;******************************************************************************
;* TI ARM G3 C/C++ Codegen                                          Unix v20.2.4.LTS *
;* Date/Time created: Fri Apr  2 00:57:45 2021                                *
;******************************************************************************
	.compiler_opts --abi=eabi --arm_vmrs_si_workaround=off --code_state=16 --diag_wrap=off --embedded_constants=on --endian=little --float_support=none --hll_source=on --object_format=elf --silicon_version=7M3 --symdebug:dwarf --symdebug:dwarf_version=3 --unaligned_access=on 
	.thumb

$C$DW$CU	.dwtag  DW_TAG_compile_unit
	.dwattr $C$DW$CU, DW_AT_name("../MPU9250/inv_mpu.c")
	.dwattr $C$DW$CU, DW_AT_producer("TI TI ARM G3 C/C++ Codegen Unix v20.2.4.LTS Copyright (c) 1996-2018 Texas Instruments Incorporated")
	.dwattr $C$DW$CU, DW_AT_TI_version(0x01)
	.dwattr $C$DW$CU, DW_AT_comp_dir("/home/merdak/KOLTEST/TIV10/Quad/Debug")
	.global	reg
	.sect	".const:reg"
	.align	1
	.elfsym	reg,SYM_SIZE(42)
reg:
	.bits		0x75,8
			; reg.who_am_i @ 0
	.bits		0x19,8
			; reg.rate_div @ 8
	.bits		0x1a,8
			; reg.lpf @ 16
	.bits		0xc,8
			; reg.prod_id @ 24
	.bits		0x6a,8
			; reg.user_ctrl @ 32
	.bits		0x23,8
			; reg.fifo_en @ 40
	.bits		0x1b,8
			; reg.gyro_cfg @ 48
	.bits		0x1c,8
			; reg.accel_cfg @ 56
	.bits		0x1d,8
			; reg.accel_cfg2 @ 64
	.bits		0x1e,8
			; reg.lp_accel_odr @ 72
	.bits		0x1f,8
			; reg.motion_thr @ 80
	.bits		0x20,8
			; reg.motion_dur @ 88
	.bits		0x72,8
			; reg.fifo_count_h @ 96
	.bits		0x74,8
			; reg.fifo_r_w @ 104
	.bits		0x43,8
			; reg.raw_gyro @ 112
	.bits		0x3b,8
			; reg.raw_accel @ 120
	.bits		0x41,8
			; reg.temp @ 128
	.bits		0x38,8
			; reg.int_enable @ 136
	.bits		0x39,8
			; reg.dmp_int_status @ 144
	.bits		0x3a,8
			; reg.int_status @ 152
	.bits		0x69,8
			; reg.accel_intel @ 160
	.bits		0x6b,8
			; reg.pwr_mgmt_1 @ 168
	.bits		0x6c,8
			; reg.pwr_mgmt_2 @ 176
	.bits		0x37,8
			; reg.int_pin_cfg @ 184
	.bits		0x6f,8
			; reg.mem_r_w @ 192
	.bits		0x77,8
			; reg.accel_offs @ 200
	.bits		0x24,8
			; reg.i2c_mst @ 208
	.bits		0x6d,8
			; reg.bank_sel @ 216
	.bits		0x6e,8
			; reg.mem_start_addr @ 224
	.bits		0x70,8
			; reg.prgm_start_h @ 232
	.bits		0x25,8
			; reg.s0_addr @ 240
	.bits		0x26,8
			; reg.s0_reg @ 248
	.bits		0x27,8
			; reg.s0_ctrl @ 256
	.bits		0x28,8
			; reg.s1_addr @ 264
	.bits		0x29,8
			; reg.s1_reg @ 272
	.bits		0x2a,8
			; reg.s1_ctrl @ 280
	.bits		0x34,8
			; reg.s4_ctrl @ 288
	.bits		0x63,8
			; reg.s0_do @ 296
	.bits		0x64,8
			; reg.s1_do @ 304
	.bits		0x67,8
			; reg.i2c_delay_ctrl @ 312
	.bits		0x49,8
			; reg.raw_compass @ 320
	.bits		0,8


$C$DW$1	.dwtag  DW_TAG_variable
	.dwattr $C$DW$1, DW_AT_name("reg")
	.dwattr $C$DW$1, DW_AT_TI_symbol_name("reg")
	.dwattr $C$DW$1, DW_AT_location[DW_OP_addr reg]
	.dwattr $C$DW$1, DW_AT_type(*$C$DW$T$129)
	.dwattr $C$DW$1, DW_AT_external
	.dwattr $C$DW$1, DW_AT_decl_file("../MPU9250/inv_mpu.c")
	.dwattr $C$DW$1, DW_AT_decl_line(0x1d9)
	.dwattr $C$DW$1, DW_AT_decl_column(0x19)

	.global	hw
	.sect	".const:hw"
	.align	2
	.elfsym	hw,SYM_SIZE(14)
hw:
	.bits		0x68,8
			; hw.addr @ 0
	.bits		0,8

	.bits		0x400,16
			; hw.max_fifo @ 16
	.bits		0x80,8
			; hw.num_reg @ 32
	.bits		0,8

	.bits		0x141,16
			; hw.temp_sens @ 48
	.bits		0,16
			; hw.temp_offset @ 64
	.bits		0x100,16
			; hw.bank_size @ 80
	.bits		0x1333,16
			; hw.compass_fsr @ 96

$C$DW$2	.dwtag  DW_TAG_variable
	.dwattr $C$DW$2, DW_AT_name("hw")
	.dwattr $C$DW$2, DW_AT_TI_symbol_name("hw")
	.dwattr $C$DW$2, DW_AT_location[DW_OP_addr hw]
	.dwattr $C$DW$2, DW_AT_type(*$C$DW$T$131)
	.dwattr $C$DW$2, DW_AT_external
	.dwattr $C$DW$2, DW_AT_decl_file("../MPU9250/inv_mpu.c")
	.dwattr $C$DW$2, DW_AT_decl_line(0x206)
	.dwattr $C$DW$2, DW_AT_decl_column(0x13)

	.global	test
	.sect	".const:test"
	.align	4
	.elfsym	test,SYM_SIZE(48)
test:
	.bits		0x83,32
			; test.gyro_sens @ 0
	.bits		0x4000,32
			; test.accel_sens @ 32
	.bits		0,8
			; test.reg_rate_div @ 64
	.bits		0x2,8
			; test.reg_lpf @ 72
	.bits		0,8
			; test.reg_gyro_fsr @ 80
	.bits		0,8
			; test.reg_accel_fsr @ 88
	.bits		0xc8,16
			; test.wait_ms @ 96
	.bits		0xc8,8
			; test.packet_thresh @ 112
	.bits		0,8

	.word	041a00000h	; test.min_dps @ 128 (20)
	.word	042700000h	; test.max_dps @ 160 (60)
	.word	03f000000h	; test.max_gyro_var @ 192 (0.5)
	.word	03e666666h	; test.min_g @ 224 (0.22499999403953552246)
	.word	03f2ccccdh	; test.max_g @ 256 (0.67500001192092895508)
	.word	03f000000h	; test.max_accel_var @ 288 (0.5)
	.word	03f000000h	; test.max_g_offset @ 320 (0.5)
	.bits		0xa,16
			; test.sample_wait_ms @ 352
	.bits		0,16


$C$DW$3	.dwtag  DW_TAG_variable
	.dwattr $C$DW$3, DW_AT_name("test")
	.dwattr $C$DW$3, DW_AT_TI_symbol_name("test")
	.dwattr $C$DW$3, DW_AT_location[DW_OP_addr test]
	.dwattr $C$DW$3, DW_AT_type(*$C$DW$T$133)
	.dwattr $C$DW$3, DW_AT_external
	.dwattr $C$DW$3, DW_AT_decl_file("../MPU9250/inv_mpu.c")
	.dwattr $C$DW$3, DW_AT_decl_line(0x212)
	.dwattr $C$DW$3, DW_AT_decl_column(0x15)

	.global	st
	.sect	".data:st", RW
	.align	4
	.elfsym	st,SYM_SIZE(56)
st:
	.bits	reg,32		; st.reg @ 0
	.bits	hw,32		; st.hw @ 32
	.bits		0,8
			; st.chip_cfg.gyro_fsr @ 64
	.space	43
	.bits	test,32		; st.test @ 416

$C$DW$4	.dwtag  DW_TAG_variable
	.dwattr $C$DW$4, DW_AT_name("st")
	.dwattr $C$DW$4, DW_AT_TI_symbol_name("st")
	.dwattr $C$DW$4, DW_AT_location[DW_OP_addr st]
	.dwattr $C$DW$4, DW_AT_type(*$C$DW$T$135)
	.dwattr $C$DW$4, DW_AT_external
	.dwattr $C$DW$4, DW_AT_decl_file("../MPU9250/inv_mpu.c")
	.dwattr $C$DW$4, DW_AT_decl_line(0x225)
	.dwattr $C$DW$4, DW_AT_decl_column(0x15)

	.global	mpu
	.common	mpu,220,4
$C$DW$5	.dwtag  DW_TAG_variable
	.dwattr $C$DW$5, DW_AT_name("mpu")
	.dwattr $C$DW$5, DW_AT_TI_symbol_name("mpu")
	.dwattr $C$DW$5, DW_AT_location[DW_OP_addr mpu]
	.dwattr $C$DW$5, DW_AT_type(*$C$DW$T$139)
	.dwattr $C$DW$5, DW_AT_external
	.dwattr $C$DW$5, DW_AT_decl_file("../MPU9250/inv_mpu.c")
	.dwattr $C$DW$5, DW_AT_decl_line(0x28a)
	.dwattr $C$DW$5, DW_AT_decl_column(0x07)

	.global	mpu_err
	.data
	.align	4
	.elfsym	mpu_err,SYM_SIZE(4)
mpu_err:
	.bits		0,32
			; mpu_err @ 0

$C$DW$6	.dwtag  DW_TAG_variable
	.dwattr $C$DW$6, DW_AT_name("mpu_err")
	.dwattr $C$DW$6, DW_AT_TI_symbol_name("mpu_err")
	.dwattr $C$DW$6, DW_AT_location[DW_OP_addr mpu_err]
	.dwattr $C$DW$6, DW_AT_type(*$C$DW$T$10)
	.dwattr $C$DW$6, DW_AT_external
	.dwattr $C$DW$6, DW_AT_decl_file("../MPU9250/inv_mpu.c")
	.dwattr $C$DW$6, DW_AT_decl_line(0x6e2)
	.dwattr $C$DW$6, DW_AT_decl_column(0x05)

	.sect	".const:mpu_6500_st_tb"
	.align	2
	.elfsym	mpu_6500_st_tb,SYM_SIZE(512)
mpu_6500_st_tb:
	.bits		0xa3c,16
			; mpu_6500_st_tb[0] @ 0
	.bits		0xa56,16
			; mpu_6500_st_tb[1] @ 16
	.bits		0xa70,16
			; mpu_6500_st_tb[2] @ 32
	.bits		0xa8b,16
			; mpu_6500_st_tb[3] @ 48
	.bits		0xaa6,16
			; mpu_6500_st_tb[4] @ 64
	.bits		0xac1,16
			; mpu_6500_st_tb[5] @ 80
	.bits		0xadd,16
			; mpu_6500_st_tb[6] @ 96
	.bits		0xaf8,16
			; mpu_6500_st_tb[7] @ 112
	.bits		0xb15,16
			; mpu_6500_st_tb[8] @ 128
	.bits		0xb31,16
			; mpu_6500_st_tb[9] @ 144
	.bits		0xb4e,16
			; mpu_6500_st_tb[10] @ 160
	.bits		0xb6b,16
			; mpu_6500_st_tb[11] @ 176
	.bits		0xb88,16
			; mpu_6500_st_tb[12] @ 192
	.bits		0xba5,16
			; mpu_6500_st_tb[13] @ 208
	.bits		0xbc3,16
			; mpu_6500_st_tb[14] @ 224
	.bits		0xbe1,16
			; mpu_6500_st_tb[15] @ 240
	.bits		0xc00,16
			; mpu_6500_st_tb[16] @ 256
	.bits		0xc1e,16
			; mpu_6500_st_tb[17] @ 272
	.bits		0xc3d,16
			; mpu_6500_st_tb[18] @ 288
	.bits		0xc5d,16
			; mpu_6500_st_tb[19] @ 304
	.bits		0xc7c,16
			; mpu_6500_st_tb[20] @ 320
	.bits		0xc9c,16
			; mpu_6500_st_tb[21] @ 336
	.bits		0xcbd,16
			; mpu_6500_st_tb[22] @ 352
	.bits		0xcdd,16
			; mpu_6500_st_tb[23] @ 368
	.bits		0xcfe,16
			; mpu_6500_st_tb[24] @ 384
	.bits		0xd1f,16
			; mpu_6500_st_tb[25] @ 400
	.bits		0xd41,16
			; mpu_6500_st_tb[26] @ 416
	.bits		0xd63,16
			; mpu_6500_st_tb[27] @ 432
	.bits		0xd85,16
			; mpu_6500_st_tb[28] @ 448
	.bits		0xda8,16
			; mpu_6500_st_tb[29] @ 464
	.bits		0xdcb,16
			; mpu_6500_st_tb[30] @ 480
	.bits		0xdee,16
			; mpu_6500_st_tb[31] @ 496
	.bits		0xe12,16
			; mpu_6500_st_tb[32] @ 512
	.bits		0xe36,16
			; mpu_6500_st_tb[33] @ 528
	.bits		0xe5a,16
			; mpu_6500_st_tb[34] @ 544
	.bits		0xe7f,16
			; mpu_6500_st_tb[35] @ 560
	.bits		0xea4,16
			; mpu_6500_st_tb[36] @ 576
	.bits		0xeca,16
			; mpu_6500_st_tb[37] @ 592
	.bits		0xeef,16
			; mpu_6500_st_tb[38] @ 608
	.bits		0xf16,16
			; mpu_6500_st_tb[39] @ 624
	.bits		0xf3c,16
			; mpu_6500_st_tb[40] @ 640
	.bits		0xf63,16
			; mpu_6500_st_tb[41] @ 656
	.bits		0xf8b,16
			; mpu_6500_st_tb[42] @ 672
	.bits		0xfb3,16
			; mpu_6500_st_tb[43] @ 688
	.bits		0xfdb,16
			; mpu_6500_st_tb[44] @ 704
	.bits		0x1003,16
			; mpu_6500_st_tb[45] @ 720
	.bits		0x102c,16
			; mpu_6500_st_tb[46] @ 736
	.bits		0x1056,16
			; mpu_6500_st_tb[47] @ 752
	.bits		0x1080,16
			; mpu_6500_st_tb[48] @ 768
	.bits		0x10aa,16
			; mpu_6500_st_tb[49] @ 784
	.bits		0x10d4,16
			; mpu_6500_st_tb[50] @ 800
	.bits		0x1100,16
			; mpu_6500_st_tb[51] @ 816
	.bits		0x112b,16
			; mpu_6500_st_tb[52] @ 832
	.bits		0x1157,16
			; mpu_6500_st_tb[53] @ 848
	.bits		0x1183,16
			; mpu_6500_st_tb[54] @ 864
	.bits		0x11b0,16
			; mpu_6500_st_tb[55] @ 880
	.bits		0x11de,16
			; mpu_6500_st_tb[56] @ 896
	.bits		0x120b,16
			; mpu_6500_st_tb[57] @ 912
	.bits		0x1239,16
			; mpu_6500_st_tb[58] @ 928
	.bits		0x1268,16
			; mpu_6500_st_tb[59] @ 944
	.bits		0x1297,16
			; mpu_6500_st_tb[60] @ 960
	.bits		0x12c7,16
			; mpu_6500_st_tb[61] @ 976
	.bits		0x12f7,16
			; mpu_6500_st_tb[62] @ 992
	.bits		0x1327,16
			; mpu_6500_st_tb[63] @ 1008
	.bits		0x1359,16
			; mpu_6500_st_tb[64] @ 1024
	.bits		0x138a,16
			; mpu_6500_st_tb[65] @ 1040
	.bits		0x13bc,16
			; mpu_6500_st_tb[66] @ 1056
	.bits		0x13ef,16
			; mpu_6500_st_tb[67] @ 1072
	.bits		0x1422,16
			; mpu_6500_st_tb[68] @ 1088
	.bits		0x1455,16
			; mpu_6500_st_tb[69] @ 1104
	.bits		0x1489,16
			; mpu_6500_st_tb[70] @ 1120
	.bits		0x14be,16
			; mpu_6500_st_tb[71] @ 1136
	.bits		0x14f3,16
			; mpu_6500_st_tb[72] @ 1152
	.bits		0x1529,16
			; mpu_6500_st_tb[73] @ 1168
	.bits		0x155f,16
			; mpu_6500_st_tb[74] @ 1184
	.bits		0x1595,16
			; mpu_6500_st_tb[75] @ 1200
	.bits		0x15cd,16
			; mpu_6500_st_tb[76] @ 1216
	.bits		0x1604,16
			; mpu_6500_st_tb[77] @ 1232
	.bits		0x163d,16
			; mpu_6500_st_tb[78] @ 1248
	.bits		0x1676,16
			; mpu_6500_st_tb[79] @ 1264
	.bits		0x16af,16
			; mpu_6500_st_tb[80] @ 1280
	.bits		0x16e9,16
			; mpu_6500_st_tb[81] @ 1296
	.bits		0x1724,16
			; mpu_6500_st_tb[82] @ 1312
	.bits		0x175f,16
			; mpu_6500_st_tb[83] @ 1328
	.bits		0x179b,16
			; mpu_6500_st_tb[84] @ 1344
	.bits		0x17d8,16
			; mpu_6500_st_tb[85] @ 1360
	.bits		0x1815,16
			; mpu_6500_st_tb[86] @ 1376
	.bits		0x1852,16
			; mpu_6500_st_tb[87] @ 1392
	.bits		0x1891,16
			; mpu_6500_st_tb[88] @ 1408
	.bits		0x18cf,16
			; mpu_6500_st_tb[89] @ 1424
	.bits		0x190f,16
			; mpu_6500_st_tb[90] @ 1440
	.bits		0x194f,16
			; mpu_6500_st_tb[91] @ 1456
	.bits		0x1990,16
			; mpu_6500_st_tb[92] @ 1472
	.bits		0x19d1,16
			; mpu_6500_st_tb[93] @ 1488
	.bits		0x1a13,16
			; mpu_6500_st_tb[94] @ 1504
	.bits		0x1a56,16
			; mpu_6500_st_tb[95] @ 1520
	.bits		0x1a9a,16
			; mpu_6500_st_tb[96] @ 1536
	.bits		0x1ade,16
			; mpu_6500_st_tb[97] @ 1552
	.bits		0x1b22,16
			; mpu_6500_st_tb[98] @ 1568
	.bits		0x1b68,16
			; mpu_6500_st_tb[99] @ 1584
	.bits		0x1bae,16
			; mpu_6500_st_tb[100] @ 1600
	.bits		0x1bf5,16
			; mpu_6500_st_tb[101] @ 1616
	.bits		0x1c3d,16
			; mpu_6500_st_tb[102] @ 1632
	.bits		0x1c85,16
			; mpu_6500_st_tb[103] @ 1648
	.bits		0x1cce,16
			; mpu_6500_st_tb[104] @ 1664
	.bits		0x1d18,16
			; mpu_6500_st_tb[105] @ 1680
	.bits		0x1d62,16
			; mpu_6500_st_tb[106] @ 1696
	.bits		0x1dad,16
			; mpu_6500_st_tb[107] @ 1712
	.bits		0x1df9,16
			; mpu_6500_st_tb[108] @ 1728
	.bits		0x1e46,16
			; mpu_6500_st_tb[109] @ 1744
	.bits		0x1e94,16
			; mpu_6500_st_tb[110] @ 1760
	.bits		0x1ee2,16
			; mpu_6500_st_tb[111] @ 1776
	.bits		0x1f31,16
			; mpu_6500_st_tb[112] @ 1792
	.bits		0x1f81,16
			; mpu_6500_st_tb[113] @ 1808
	.bits		0x1fd1,16
			; mpu_6500_st_tb[114] @ 1824
	.bits		0x2023,16
			; mpu_6500_st_tb[115] @ 1840
	.bits		0x2075,16
			; mpu_6500_st_tb[116] @ 1856
	.bits		0x20c8,16
			; mpu_6500_st_tb[117] @ 1872
	.bits		0x211c,16
			; mpu_6500_st_tb[118] @ 1888
	.bits		0x2171,16
			; mpu_6500_st_tb[119] @ 1904
	.bits		0x21c7,16
			; mpu_6500_st_tb[120] @ 1920
	.bits		0x221d,16
			; mpu_6500_st_tb[121] @ 1936
	.bits		0x2274,16
			; mpu_6500_st_tb[122] @ 1952
	.bits		0x22cd,16
			; mpu_6500_st_tb[123] @ 1968
	.bits		0x2326,16
			; mpu_6500_st_tb[124] @ 1984
	.bits		0x2380,16
			; mpu_6500_st_tb[125] @ 2000
	.bits		0x23da,16
			; mpu_6500_st_tb[126] @ 2016
	.bits		0x2436,16
			; mpu_6500_st_tb[127] @ 2032
	.bits		0x2493,16
			; mpu_6500_st_tb[128] @ 2048
	.bits		0x24f1,16
			; mpu_6500_st_tb[129] @ 2064
	.bits		0x254f,16
			; mpu_6500_st_tb[130] @ 2080
	.bits		0x25af,16
			; mpu_6500_st_tb[131] @ 2096
	.bits		0x260f,16
			; mpu_6500_st_tb[132] @ 2112
	.bits		0x2671,16
			; mpu_6500_st_tb[133] @ 2128
	.bits		0x26d3,16
			; mpu_6500_st_tb[134] @ 2144
	.bits		0x2736,16
			; mpu_6500_st_tb[135] @ 2160
	.bits		0x279b,16
			; mpu_6500_st_tb[136] @ 2176
	.bits		0x2800,16
			; mpu_6500_st_tb[137] @ 2192
	.bits		0x2867,16
			; mpu_6500_st_tb[138] @ 2208
	.bits		0x28ce,16
			; mpu_6500_st_tb[139] @ 2224
	.bits		0x2936,16
			; mpu_6500_st_tb[140] @ 2240
	.bits		0x29a0,16
			; mpu_6500_st_tb[141] @ 2256
	.bits		0x2a0b,16
			; mpu_6500_st_tb[142] @ 2272
	.bits		0x2a76,16
			; mpu_6500_st_tb[143] @ 2288
	.bits		0x2ae3,16
			; mpu_6500_st_tb[144] @ 2304
	.bits		0x2b51,16
			; mpu_6500_st_tb[145] @ 2320
	.bits		0x2bc0,16
			; mpu_6500_st_tb[146] @ 2336
	.bits		0x2c30,16
			; mpu_6500_st_tb[147] @ 2352
	.bits		0x2ca1,16
			; mpu_6500_st_tb[148] @ 2368
	.bits		0x2d13,16
			; mpu_6500_st_tb[149] @ 2384
	.bits		0x2d86,16
			; mpu_6500_st_tb[150] @ 2400
	.bits		0x2dfb,16
			; mpu_6500_st_tb[151] @ 2416
	.bits		0x2e71,16
			; mpu_6500_st_tb[152] @ 2432
	.bits		0x2ee8,16
			; mpu_6500_st_tb[153] @ 2448
	.bits		0x2f60,16
			; mpu_6500_st_tb[154] @ 2464
	.bits		0x2fd9,16
			; mpu_6500_st_tb[155] @ 2480
	.bits		0x3053,16
			; mpu_6500_st_tb[156] @ 2496
	.bits		0x30cf,16
			; mpu_6500_st_tb[157] @ 2512
	.bits		0x314c,16
			; mpu_6500_st_tb[158] @ 2528
	.bits		0x31ca,16
			; mpu_6500_st_tb[159] @ 2544
	.bits		0x324a,16
			; mpu_6500_st_tb[160] @ 2560
	.bits		0x32ca,16
			; mpu_6500_st_tb[161] @ 2576
	.bits		0x334c,16
			; mpu_6500_st_tb[162] @ 2592
	.bits		0x33d0,16
			; mpu_6500_st_tb[163] @ 2608
	.bits		0x3454,16
			; mpu_6500_st_tb[164] @ 2624
	.bits		0x34da,16
			; mpu_6500_st_tb[165] @ 2640
	.bits		0x3562,16
			; mpu_6500_st_tb[166] @ 2656
	.bits		0x35ea,16
			; mpu_6500_st_tb[167] @ 2672
	.bits		0x3674,16
			; mpu_6500_st_tb[168] @ 2688
	.bits		0x3700,16
			; mpu_6500_st_tb[169] @ 2704
	.bits		0x378d,16
			; mpu_6500_st_tb[170] @ 2720
	.bits		0x381b,16
			; mpu_6500_st_tb[171] @ 2736
	.bits		0x38aa,16
			; mpu_6500_st_tb[172] @ 2752
	.bits		0x393c,16
			; mpu_6500_st_tb[173] @ 2768
	.bits		0x39ce,16
			; mpu_6500_st_tb[174] @ 2784
	.bits		0x3a62,16
			; mpu_6500_st_tb[175] @ 2800
	.bits		0x3af8,16
			; mpu_6500_st_tb[176] @ 2816
	.bits		0x3b8f,16
			; mpu_6500_st_tb[177] @ 2832
	.bits		0x3c27,16
			; mpu_6500_st_tb[178] @ 2848
	.bits		0x3cc1,16
			; mpu_6500_st_tb[179] @ 2864
	.bits		0x3d5d,16
			; mpu_6500_st_tb[180] @ 2880
	.bits		0x3dfa,16
			; mpu_6500_st_tb[181] @ 2896
	.bits		0x3e98,16
			; mpu_6500_st_tb[182] @ 2912
	.bits		0x3f38,16
			; mpu_6500_st_tb[183] @ 2928
	.bits		0x3fda,16
			; mpu_6500_st_tb[184] @ 2944
	.bits		0x407e,16
			; mpu_6500_st_tb[185] @ 2960
	.bits		0x4123,16
			; mpu_6500_st_tb[186] @ 2976
	.bits		0x41ca,16
			; mpu_6500_st_tb[187] @ 2992
	.bits		0x4272,16
			; mpu_6500_st_tb[188] @ 3008
	.bits		0x431c,16
			; mpu_6500_st_tb[189] @ 3024
	.bits		0x43c8,16
			; mpu_6500_st_tb[190] @ 3040
	.bits		0x4476,16
			; mpu_6500_st_tb[191] @ 3056
	.bits		0x4525,16
			; mpu_6500_st_tb[192] @ 3072
	.bits		0x45d6,16
			; mpu_6500_st_tb[193] @ 3088
	.bits		0x4689,16
			; mpu_6500_st_tb[194] @ 3104
	.bits		0x473d,16
			; mpu_6500_st_tb[195] @ 3120
	.bits		0x47f4,16
			; mpu_6500_st_tb[196] @ 3136
	.bits		0x48ac,16
			; mpu_6500_st_tb[197] @ 3152
	.bits		0x4966,16
			; mpu_6500_st_tb[198] @ 3168
	.bits		0x4a22,16
			; mpu_6500_st_tb[199] @ 3184
	.bits		0x4adf,16
			; mpu_6500_st_tb[200] @ 3200
	.bits		0x4b9f,16
			; mpu_6500_st_tb[201] @ 3216
	.bits		0x4c61,16
			; mpu_6500_st_tb[202] @ 3232
	.bits		0x4d24,16
			; mpu_6500_st_tb[203] @ 3248
	.bits		0x4dea,16
			; mpu_6500_st_tb[204] @ 3264
	.bits		0x4eb1,16
			; mpu_6500_st_tb[205] @ 3280
	.bits		0x4f7b,16
			; mpu_6500_st_tb[206] @ 3296
	.bits		0x5046,16
			; mpu_6500_st_tb[207] @ 3312
	.bits		0x5114,16
			; mpu_6500_st_tb[208] @ 3328
	.bits		0x51e3,16
			; mpu_6500_st_tb[209] @ 3344
	.bits		0x52b5,16
			; mpu_6500_st_tb[210] @ 3360
	.bits		0x5389,16
			; mpu_6500_st_tb[211] @ 3376
	.bits		0x545e,16
			; mpu_6500_st_tb[212] @ 3392
	.bits		0x5536,16
			; mpu_6500_st_tb[213] @ 3408
	.bits		0x5611,16
			; mpu_6500_st_tb[214] @ 3424
	.bits		0x56ed,16
			; mpu_6500_st_tb[215] @ 3440
	.bits		0x57cb,16
			; mpu_6500_st_tb[216] @ 3456
	.bits		0x58ac,16
			; mpu_6500_st_tb[217] @ 3472
	.bits		0x598f,16
			; mpu_6500_st_tb[218] @ 3488
	.bits		0x5a74,16
			; mpu_6500_st_tb[219] @ 3504
	.bits		0x5b5c,16
			; mpu_6500_st_tb[220] @ 3520
	.bits		0x5c46,16
			; mpu_6500_st_tb[221] @ 3536
	.bits		0x5d32,16
			; mpu_6500_st_tb[222] @ 3552
	.bits		0x5e21,16
			; mpu_6500_st_tb[223] @ 3568
	.bits		0x5f12,16
			; mpu_6500_st_tb[224] @ 3584
	.bits		0x6005,16
			; mpu_6500_st_tb[225] @ 3600
	.bits		0x60fb,16
			; mpu_6500_st_tb[226] @ 3616
	.bits		0x61f3,16
			; mpu_6500_st_tb[227] @ 3632
	.bits		0x62ee,16
			; mpu_6500_st_tb[228] @ 3648
	.bits		0x63eb,16
			; mpu_6500_st_tb[229] @ 3664
	.bits		0x64eb,16
			; mpu_6500_st_tb[230] @ 3680
	.bits		0x65ed,16
			; mpu_6500_st_tb[231] @ 3696
	.bits		0x66f2,16
			; mpu_6500_st_tb[232] @ 3712
	.bits		0x67fa,16
			; mpu_6500_st_tb[233] @ 3728
	.bits		0x6904,16
			; mpu_6500_st_tb[234] @ 3744
	.bits		0x6a11,16
			; mpu_6500_st_tb[235] @ 3760
	.bits		0x6b20,16
			; mpu_6500_st_tb[236] @ 3776
	.bits		0x6c33,16
			; mpu_6500_st_tb[237] @ 3792
	.bits		0x6d48,16
			; mpu_6500_st_tb[238] @ 3808
	.bits		0x6e5f,16
			; mpu_6500_st_tb[239] @ 3824
	.bits		0x6f7a,16
			; mpu_6500_st_tb[240] @ 3840
	.bits		0x7097,16
			; mpu_6500_st_tb[241] @ 3856
	.bits		0x71b8,16
			; mpu_6500_st_tb[242] @ 3872
	.bits		0x72db,16
			; mpu_6500_st_tb[243] @ 3888
	.bits		0x7401,16
			; mpu_6500_st_tb[244] @ 3904
	.bits		0x752a,16
			; mpu_6500_st_tb[245] @ 3920
	.bits		0x7656,16
			; mpu_6500_st_tb[246] @ 3936
	.bits		0x7785,16
			; mpu_6500_st_tb[247] @ 3952
	.bits		0x78b7,16
			; mpu_6500_st_tb[248] @ 3968
	.bits		0x79ec,16
			; mpu_6500_st_tb[249] @ 3984
	.bits		0x7b24,16
			; mpu_6500_st_tb[250] @ 4000
	.bits		0x7c5f,16
			; mpu_6500_st_tb[251] @ 4016
	.bits		0x7d9d,16
			; mpu_6500_st_tb[252] @ 4032
	.bits		0x7edf,16
			; mpu_6500_st_tb[253] @ 4048
	.bits		0x8024,16
			; mpu_6500_st_tb[254] @ 4064
	.bits		0x816c,16
			; mpu_6500_st_tb[255] @ 4080

$C$DW$7	.dwtag  DW_TAG_variable
	.dwattr $C$DW$7, DW_AT_name("mpu_6500_st_tb")
	.dwattr $C$DW$7, DW_AT_TI_symbol_name("mpu_6500_st_tb")
	.dwattr $C$DW$7, DW_AT_type(*$C$DW$T$207)
	.dwattr $C$DW$7, DW_AT_location[DW_OP_addr mpu_6500_st_tb]
	.dwattr $C$DW$7, DW_AT_decl_file("../MPU9250/inv_mpu.c")
	.dwattr $C$DW$7, DW_AT_decl_line(0x855)
	.dwattr $C$DW$7, DW_AT_decl_column(0x1d)


$C$DW$8	.dwtag  DW_TAG_subprogram
	.dwattr $C$DW$8, DW_AT_name("WR_MPU")
	.dwattr $C$DW$8, DW_AT_TI_symbol_name("WR_MPU")
	.dwattr $C$DW$8, DW_AT_type(*$C$DW$T$191)
	.dwattr $C$DW$8, DW_AT_declaration
	.dwattr $C$DW$8, DW_AT_external
	.dwattr $C$DW$8, DW_AT_decl_file("/home/merdak/KOLTEST/TIV10/Quad/App/flight.h")
	.dwattr $C$DW$8, DW_AT_decl_line(0x18)
	.dwattr $C$DW$8, DW_AT_decl_column(0x0d)
$C$DW$9	.dwtag  DW_TAG_formal_parameter
	.dwattr $C$DW$9, DW_AT_type(*$C$DW$T$22)

$C$DW$10	.dwtag  DW_TAG_formal_parameter
	.dwattr $C$DW$10, DW_AT_type(*$C$DW$T$22)

$C$DW$11	.dwtag  DW_TAG_formal_parameter
	.dwattr $C$DW$11, DW_AT_type(*$C$DW$T$176)

	.dwendtag $C$DW$8


$C$DW$12	.dwtag  DW_TAG_subprogram
	.dwattr $C$DW$12, DW_AT_name("RD_MPU")
	.dwattr $C$DW$12, DW_AT_TI_symbol_name("RD_MPU")
	.dwattr $C$DW$12, DW_AT_type(*$C$DW$T$191)
	.dwattr $C$DW$12, DW_AT_declaration
	.dwattr $C$DW$12, DW_AT_external
	.dwattr $C$DW$12, DW_AT_decl_file("/home/merdak/KOLTEST/TIV10/Quad/App/flight.h")
	.dwattr $C$DW$12, DW_AT_decl_line(0x19)
	.dwattr $C$DW$12, DW_AT_decl_column(0x0d)
$C$DW$13	.dwtag  DW_TAG_formal_parameter
	.dwattr $C$DW$13, DW_AT_type(*$C$DW$T$22)

$C$DW$14	.dwtag  DW_TAG_formal_parameter
	.dwattr $C$DW$14, DW_AT_type(*$C$DW$T$22)

$C$DW$15	.dwtag  DW_TAG_formal_parameter
	.dwattr $C$DW$15, DW_AT_type(*$C$DW$T$176)

	.dwendtag $C$DW$12


$C$DW$16	.dwtag  DW_TAG_subprogram
	.dwattr $C$DW$16, DW_AT_name("Delay_Ms")
	.dwattr $C$DW$16, DW_AT_TI_symbol_name("Delay_Ms")
	.dwattr $C$DW$16, DW_AT_declaration
	.dwattr $C$DW$16, DW_AT_external
	.dwattr $C$DW$16, DW_AT_decl_file("/home/merdak/KOLTEST/TIV10/Quad/App/flight.h")
	.dwattr $C$DW$16, DW_AT_decl_line(0x21)
	.dwattr $C$DW$16, DW_AT_decl_column(0x0d)
$C$DW$17	.dwtag  DW_TAG_formal_parameter
	.dwattr $C$DW$17, DW_AT_type(*$C$DW$T$159)

	.dwendtag $C$DW$16

	.sect	".const:.string:$P$T0$1"
	.align	1
	.elfsym	||$P$T0$1||,SYM_SIZE(8)
||$P$T0$1||:
	.bits		0,8
			; $P$T0$1[0] @ 0
	.bits		0x8,8
			; $P$T0$1[1] @ 8
	.bits		0x10,8
			; $P$T0$1[2] @ 16
	.bits		0x18,8
			; $P$T0$1[3] @ 24
	.bits		0x1,8
			; $P$T0$1[4] @ 32
	.bits		0x40,8
			; $P$T0$1[5] @ 40

$C$DW$18	.dwtag  DW_TAG_variable
	.dwattr $C$DW$18, DW_AT_name("$P$T0$1")
	.dwattr $C$DW$18, DW_AT_TI_symbol_name("$P$T0$1")
	.dwattr $C$DW$18, DW_AT_type(*$C$DW$T$175)
	.dwattr $C$DW$18, DW_AT_location[DW_OP_addr ||$P$T0$1||]
	.dwattr $C$DW$18, DW_AT_decl_file("../MPU9250/inv_mpu.c")
	.dwattr $C$DW$18, DW_AT_decl_line(0x29d)
	.dwattr $C$DW$18, DW_AT_decl_column(0x07)

	.sect	".const:$P$T1$2"
	.align	4
	.elfsym	||$P$T1$2||,SYM_SIZE(16)
||$P$T1$2||:
	.word	0437a0000h	; $P$T1$2[0] @ 0 (250)
	.word	043fa0000h	; $P$T1$2[1] @ 32 (500)
	.word	0447a0000h	; $P$T1$2[2] @ 64 (1000)
	.word	044fa0000h	; $P$T1$2[3] @ 96 (2000)

$C$DW$19	.dwtag  DW_TAG_variable
	.dwattr $C$DW$19, DW_AT_name("$P$T1$2")
	.dwattr $C$DW$19, DW_AT_TI_symbol_name("$P$T1$2")
	.dwattr $C$DW$19, DW_AT_type(*$C$DW$T$364)
	.dwattr $C$DW$19, DW_AT_location[DW_OP_addr ||$P$T1$2||]
	.dwattr $C$DW$19, DW_AT_decl_file("../MPU9250/inv_mpu.c")
	.dwattr $C$DW$19, DW_AT_decl_line(0x29e)
	.dwattr $C$DW$19, DW_AT_decl_column(0x07)

	.sect	".const:$P$T2$3"
	.align	4
	.elfsym	||$P$T2$3||,SYM_SIZE(16)
||$P$T2$3||:
	.word	040000000h	; $P$T2$3[0] @ 0 (2)
	.word	040800000h	; $P$T2$3[1] @ 32 (4)
	.word	041000000h	; $P$T2$3[2] @ 64 (8)
	.word	041800000h	; $P$T2$3[3] @ 96 (16)

$C$DW$20	.dwtag  DW_TAG_variable
	.dwattr $C$DW$20, DW_AT_name("$P$T2$3")
	.dwattr $C$DW$20, DW_AT_TI_symbol_name("$P$T2$3")
	.dwattr $C$DW$20, DW_AT_type(*$C$DW$T$364)
	.dwattr $C$DW$20, DW_AT_location[DW_OP_addr ||$P$T2$3||]
	.dwattr $C$DW$20, DW_AT_decl_file("../MPU9250/inv_mpu.c")
	.dwattr $C$DW$20, DW_AT_decl_line(0x29f)
	.dwattr $C$DW$20, DW_AT_decl_column(0x07)


$C$DW$21	.dwtag  DW_TAG_subprogram
	.dwattr $C$DW$21, DW_AT_name("memset")
	.dwattr $C$DW$21, DW_AT_TI_symbol_name("memset")
	.dwattr $C$DW$21, DW_AT_type(*$C$DW$T$3)
	.dwattr $C$DW$21, DW_AT_declaration
	.dwattr $C$DW$21, DW_AT_external
	.dwendtag $C$DW$21


$C$DW$22	.dwtag  DW_TAG_subprogram
	.dwattr $C$DW$22, DW_AT_name("memcmp")
	.dwattr $C$DW$22, DW_AT_TI_symbol_name("memcmp")
	.dwattr $C$DW$22, DW_AT_type(*$C$DW$T$10)
	.dwattr $C$DW$22, DW_AT_declaration
	.dwattr $C$DW$22, DW_AT_external
	.dwattr $C$DW$22, DW_AT_decl_file("/home/merdak/Apps/ti/ccs1020/ccs/tools/compiler/ti-cgt-arm_20.2.4.LTS/include/string.h")
	.dwattr $C$DW$22, DW_AT_decl_line(0x7d)
	.dwattr $C$DW$22, DW_AT_decl_column(0x14)
$C$DW$23	.dwtag  DW_TAG_formal_parameter
	.dwattr $C$DW$23, DW_AT_type(*$C$DW$T$158)

$C$DW$24	.dwtag  DW_TAG_formal_parameter
	.dwattr $C$DW$24, DW_AT_type(*$C$DW$T$158)

$C$DW$25	.dwtag  DW_TAG_formal_parameter
	.dwattr $C$DW$25, DW_AT_type(*$C$DW$T$220)

	.dwendtag $C$DW$22

;	/home/merdak/Apps/ti/ccs1020/ccs/tools/compiler/ti-cgt-arm_20.2.4.LTS/bin/armacpia -@/tmp/TI1Ba716TG0 
	.sect	".text:__isfinite"
	.clink
	.thumbfunc __isfinite
	.thumb
	.global	__isfinite

$C$DW$26	.dwtag  DW_TAG_subprogram
	.dwattr $C$DW$26, DW_AT_name("__isfinite")
	.dwattr $C$DW$26, DW_AT_low_pc(__isfinite)
	.dwattr $C$DW$26, DW_AT_high_pc(0x00)
	.dwattr $C$DW$26, DW_AT_TI_symbol_name("__isfinite")
	.dwattr $C$DW$26, DW_AT_external
	.dwattr $C$DW$26, DW_AT_type(*$C$DW$T$10)
	.dwattr $C$DW$26, DW_AT_TI_begin_file("/home/merdak/Apps/ti/ccs1020/ccs/tools/compiler/ti-cgt-arm_20.2.4.LTS/include/_defs.h")
	.dwattr $C$DW$26, DW_AT_TI_begin_line(0x14e)
	.dwattr $C$DW$26, DW_AT_TI_begin_column(0x25)
	.dwattr $C$DW$26, DW_AT_decl_file("/home/merdak/Apps/ti/ccs1020/ccs/tools/compiler/ti-cgt-arm_20.2.4.LTS/include/_defs.h")
	.dwattr $C$DW$26, DW_AT_decl_line(0x14e)
	.dwattr $C$DW$26, DW_AT_decl_column(0x25)
	.dwattr $C$DW$26, DW_AT_TI_max_frame_size(0x10)
	.dwpsn	file "/home/merdak/Apps/ti/ccs1020/ccs/tools/compiler/ti-cgt-arm_20.2.4.LTS/include/_defs.h",line 335,column 1,is_stmt,address __isfinite,isa 1

	.dwfde $C$DW$CIE, __isfinite
$C$DW$27	.dwtag  DW_TAG_formal_parameter
	.dwattr $C$DW$27, DW_AT_name("d")
	.dwattr $C$DW$27, DW_AT_TI_symbol_name("d")
	.dwattr $C$DW$27, DW_AT_type(*$C$DW$T$17)
	.dwattr $C$DW$27, DW_AT_location[DW_OP_reg0]

;----------------------------------------------------------------------
; 334 | _CODE_ACCESS _INLINE_DEFINITION int __isfinite(double d)               
;----------------------------------------------------------------------

;*****************************************************************************
;* FUNCTION NAME: __isfinite                                                 *
;*                                                                           *
;*   Regs Modified     : A1,A2,A3,A4,V4,SP,SR                                *
;*   Regs Used         : A1,A2,A3,A4,V4,SP,LR,SR                             *
;*   Local Frame Size  : 0 Args + 8 Auto + 8 Save = 16 byte                  *
;*****************************************************************************
__isfinite:
;* --------------------------------------------------------------------------*
	.dwcfi	cfa_offset, 0
        PUSH      {A3, A4, V4, LR}      ; [DPU_V7M3_PIPE] 
	.dwcfi	cfa_offset, 16
	.dwcfi	save_reg_to_mem, 14, -4
	.dwcfi	save_reg_to_mem, 7, -8
	.dwcfi	save_reg_to_mem, 3, -12
	.dwcfi	save_reg_to_mem, 2, -16
$C$DW$28	.dwtag  DW_TAG_variable
	.dwattr $C$DW$28, DW_AT_name("d")
	.dwattr $C$DW$28, DW_AT_TI_symbol_name("d")
	.dwattr $C$DW$28, DW_AT_type(*$C$DW$T$17)
	.dwattr $C$DW$28, DW_AT_location[DW_OP_breg13 0]

;----------------------------------------------------------------------
; 335 | { return __DOUBLE_BIASED_EXP_IS_MAX(d) == 0; }                         
;----------------------------------------------------------------------
        STMIA     SP, {A1,A2}           ; [DPU_V7M3_PIPE] |335| 
	.dwpsn	file "/home/merdak/Apps/ti/ccs1020/ccs/tools/compiler/ti-cgt-arm_20.2.4.LTS/include/_defs.h",line 335,column 3,is_stmt,isa 1
        LDMIA     SP, {A2,A3}           ; [DPU_V7M3_PIPE] |335| 
        MOVS      A1, #0                ; [DPU_V7M3_PIPE] |335| 
        MOVS      V4, #0                ; [DPU_V7M3_PIPE] |335| 
        MOV       A2, A3                ; [DPU_V7M3_PIPE] |335| 
        LSLS      A3, A2, #0            ; [DPU_V7M3_PIPE] |335| 
        MOVS      A2, #0                ; [DPU_V7M3_PIPE] |335| 
        ORRS      A2, A2, A3            ; [DPU_V7M3_PIPE] |335| 
        LSRS      A3, A2, #16           ; [DPU_V7M3_PIPE] |335| 
        MOV       A2, #32752            ; [DPU_V7M3_PIPE] |335| 
        ANDS      A2, A2, A3            ; [DPU_V7M3_PIPE] |335| 
        MOV       A3, #32752            ; [DPU_V7M3_PIPE] |335| 
        CMP       A3, A2                ; [DPU_V7M3_PIPE] |335| 
        BNE       ||$C$L1||             ; [DPU_V7M3_PIPE] |335| 
        ; BRANCHCC OCCURS {||$C$L1||}    ; [] |335| 
;* --------------------------------------------------------------------------*
        MOVS      V4, #1                ; [DPU_V7M3_PIPE] |335| 
;* --------------------------------------------------------------------------*
||$C$L1||:    
        CBNZ      V4, ||$C$L2||         ; [] 
        ; BRANCHCC OCCURS {||$C$L2||}    ; [] |335| 
;* --------------------------------------------------------------------------*
        MOVS      A1, #1                ; [DPU_V7M3_PIPE] |335| 
;* --------------------------------------------------------------------------*
||$C$L2||:    
	.dwpsn	file "/home/merdak/Apps/ti/ccs1020/ccs/tools/compiler/ti-cgt-arm_20.2.4.LTS/include/_defs.h",line 335,column 46,is_stmt,isa 1
$C$DW$29	.dwtag  DW_TAG_TI_branch
	.dwattr $C$DW$29, DW_AT_low_pc(0x00)
	.dwattr $C$DW$29, DW_AT_TI_return

        POP       {A3, A4, V4, PC}      ; [DPU_V7M3_PIPE] 
	.dwcfi	cfa_offset, 0
	.dwcfi	restore_reg, 7
	.dwcfi	restore_reg, 3
	.dwcfi	restore_reg, 2
        ; BRANCH OCCURS                  ; [] 
	.dwattr $C$DW$26, DW_AT_TI_end_file("/home/merdak/Apps/ti/ccs1020/ccs/tools/compiler/ti-cgt-arm_20.2.4.LTS/include/_defs.h")
	.dwattr $C$DW$26, DW_AT_TI_end_line(0x14f)
	.dwattr $C$DW$26, DW_AT_TI_end_column(0x2e)
	.dwendentry
	.dwendtag $C$DW$26

	.sect	".text:__isfinitef"
	.clink
	.thumbfunc __isfinitef
	.thumb
	.global	__isfinitef

$C$DW$30	.dwtag  DW_TAG_subprogram
	.dwattr $C$DW$30, DW_AT_name("__isfinitef")
	.dwattr $C$DW$30, DW_AT_low_pc(__isfinitef)
	.dwattr $C$DW$30, DW_AT_high_pc(0x00)
	.dwattr $C$DW$30, DW_AT_TI_symbol_name("__isfinitef")
	.dwattr $C$DW$30, DW_AT_external
	.dwattr $C$DW$30, DW_AT_type(*$C$DW$T$10)
	.dwattr $C$DW$30, DW_AT_TI_begin_file("/home/merdak/Apps/ti/ccs1020/ccs/tools/compiler/ti-cgt-arm_20.2.4.LTS/include/_defs.h")
	.dwattr $C$DW$30, DW_AT_TI_begin_line(0x150)
	.dwattr $C$DW$30, DW_AT_TI_begin_column(0x25)
	.dwattr $C$DW$30, DW_AT_decl_file("/home/merdak/Apps/ti/ccs1020/ccs/tools/compiler/ti-cgt-arm_20.2.4.LTS/include/_defs.h")
	.dwattr $C$DW$30, DW_AT_decl_line(0x150)
	.dwattr $C$DW$30, DW_AT_decl_column(0x25)
	.dwattr $C$DW$30, DW_AT_TI_max_frame_size(0x08)
	.dwpsn	file "/home/merdak/Apps/ti/ccs1020/ccs/tools/compiler/ti-cgt-arm_20.2.4.LTS/include/_defs.h",line 337,column 1,is_stmt,address __isfinitef,isa 1

	.dwfde $C$DW$CIE, __isfinitef
$C$DW$31	.dwtag  DW_TAG_formal_parameter
	.dwattr $C$DW$31, DW_AT_name("f")
	.dwattr $C$DW$31, DW_AT_TI_symbol_name("f")
	.dwattr $C$DW$31, DW_AT_type(*$C$DW$T$16)
	.dwattr $C$DW$31, DW_AT_location[DW_OP_reg0]

;----------------------------------------------------------------------
; 336 | _CODE_ACCESS _INLINE_DEFINITION int __isfinitef(float f)               
;----------------------------------------------------------------------

;*****************************************************************************
;* FUNCTION NAME: __isfinitef                                                *
;*                                                                           *
;*   Regs Modified     : A1,A2,A3,SP,SR                                      *
;*   Regs Used         : A1,A2,A3,SP,LR,SR                                   *
;*   Local Frame Size  : 0 Args + 4 Auto + 0 Save = 4 byte                   *
;*****************************************************************************
__isfinitef:
;* --------------------------------------------------------------------------*
	.dwcfi	cfa_offset, 0
        SUB       SP, SP, #8            ; [DPU_V7M3_PIPE] 
	.dwcfi	cfa_offset, 8
$C$DW$32	.dwtag  DW_TAG_variable
	.dwattr $C$DW$32, DW_AT_name("f")
	.dwattr $C$DW$32, DW_AT_TI_symbol_name("f")
	.dwattr $C$DW$32, DW_AT_type(*$C$DW$T$16)
	.dwattr $C$DW$32, DW_AT_location[DW_OP_breg13 0]

;----------------------------------------------------------------------
; 337 | { return __FLOAT_BIASED_EXP_IS_MAX(f) == 0; }                          
;----------------------------------------------------------------------
        STR       A1, [SP, #0]          ; [DPU_V7M3_PIPE] |337| 
	.dwpsn	file "/home/merdak/Apps/ti/ccs1020/ccs/tools/compiler/ti-cgt-arm_20.2.4.LTS/include/_defs.h",line 337,column 3,is_stmt,isa 1
        LDR       A1, [SP, #0]          ; [DPU_V7M3_PIPE] |337| 
        MOVS      A2, #0                ; [DPU_V7M3_PIPE] |337| 
        LSRS      A1, A1, #16           ; [DPU_V7M3_PIPE] |337| 
        AND       A3, A1, #32640        ; [DPU_V7M3_PIPE] |337| 
        CMP       A3, #32640            ; [DPU_V7M3_PIPE] |337| 
        MOV       A1, #0                ; [DPU_V7M3_PIPE] |337| 
        BNE       ||$C$L3||             ; [DPU_V7M3_PIPE] |337| 
        ; BRANCHCC OCCURS {||$C$L3||}    ; [] |337| 
;* --------------------------------------------------------------------------*
        MOVS      A2, #1                ; [DPU_V7M3_PIPE] |337| 
;* --------------------------------------------------------------------------*
||$C$L3||:    
        CBNZ      A2, ||$C$L4||         ; [] 
        ; BRANCHCC OCCURS {||$C$L4||}    ; [] |337| 
;* --------------------------------------------------------------------------*
        MOVS      A1, #1                ; [DPU_V7M3_PIPE] |337| 
;* --------------------------------------------------------------------------*
||$C$L4||:    
	.dwpsn	file "/home/merdak/Apps/ti/ccs1020/ccs/tools/compiler/ti-cgt-arm_20.2.4.LTS/include/_defs.h",line 337,column 45,is_stmt,isa 1
        ADD       SP, SP, #8            ; [DPU_V7M3_PIPE] 
	.dwcfi	cfa_offset, 0
$C$DW$33	.dwtag  DW_TAG_TI_branch
	.dwattr $C$DW$33, DW_AT_low_pc(0x00)
	.dwattr $C$DW$33, DW_AT_TI_return

        BX        LR                    ; [DPU_V7M3_PIPE] 
        ; BRANCH OCCURS                  ; [] 
	.dwattr $C$DW$30, DW_AT_TI_end_file("/home/merdak/Apps/ti/ccs1020/ccs/tools/compiler/ti-cgt-arm_20.2.4.LTS/include/_defs.h")
	.dwattr $C$DW$30, DW_AT_TI_end_line(0x151)
	.dwattr $C$DW$30, DW_AT_TI_end_column(0x2d)
	.dwendentry
	.dwendtag $C$DW$30

	.sect	".text:__isfinitel"
	.clink
	.thumbfunc __isfinitel
	.thumb
	.global	__isfinitel

$C$DW$34	.dwtag  DW_TAG_subprogram
	.dwattr $C$DW$34, DW_AT_name("__isfinitel")
	.dwattr $C$DW$34, DW_AT_low_pc(__isfinitel)
	.dwattr $C$DW$34, DW_AT_high_pc(0x00)
	.dwattr $C$DW$34, DW_AT_TI_symbol_name("__isfinitel")
	.dwattr $C$DW$34, DW_AT_external
	.dwattr $C$DW$34, DW_AT_type(*$C$DW$T$10)
	.dwattr $C$DW$34, DW_AT_TI_begin_file("/home/merdak/Apps/ti/ccs1020/ccs/tools/compiler/ti-cgt-arm_20.2.4.LTS/include/_defs.h")
	.dwattr $C$DW$34, DW_AT_TI_begin_line(0x152)
	.dwattr $C$DW$34, DW_AT_TI_begin_column(0x25)
	.dwattr $C$DW$34, DW_AT_decl_file("/home/merdak/Apps/ti/ccs1020/ccs/tools/compiler/ti-cgt-arm_20.2.4.LTS/include/_defs.h")
	.dwattr $C$DW$34, DW_AT_decl_line(0x152)
	.dwattr $C$DW$34, DW_AT_decl_column(0x25)
	.dwattr $C$DW$34, DW_AT_TI_max_frame_size(0x10)
	.dwpsn	file "/home/merdak/Apps/ti/ccs1020/ccs/tools/compiler/ti-cgt-arm_20.2.4.LTS/include/_defs.h",line 339,column 1,is_stmt,address __isfinitel,isa 1

	.dwfde $C$DW$CIE, __isfinitel
$C$DW$35	.dwtag  DW_TAG_formal_parameter
	.dwattr $C$DW$35, DW_AT_name("e")
	.dwattr $C$DW$35, DW_AT_TI_symbol_name("e")
	.dwattr $C$DW$35, DW_AT_type(*$C$DW$T$18)
	.dwattr $C$DW$35, DW_AT_location[DW_OP_reg0]

;----------------------------------------------------------------------
; 338 | _CODE_ACCESS _INLINE_DEFINITION int __isfinitel(long double e)         
;----------------------------------------------------------------------

;*****************************************************************************
;* FUNCTION NAME: __isfinitel                                                *
;*                                                                           *
;*   Regs Modified     : A1,A2,A3,A4,V4,SP,SR                                *
;*   Regs Used         : A1,A2,A3,A4,V4,SP,LR,SR                             *
;*   Local Frame Size  : 0 Args + 8 Auto + 8 Save = 16 byte                  *
;*****************************************************************************
__isfinitel:
;* --------------------------------------------------------------------------*
	.dwcfi	cfa_offset, 0
        PUSH      {A3, A4, V4, LR}      ; [DPU_V7M3_PIPE] 
	.dwcfi	cfa_offset, 16
	.dwcfi	save_reg_to_mem, 14, -4
	.dwcfi	save_reg_to_mem, 7, -8
	.dwcfi	save_reg_to_mem, 3, -12
	.dwcfi	save_reg_to_mem, 2, -16
$C$DW$36	.dwtag  DW_TAG_variable
	.dwattr $C$DW$36, DW_AT_name("e")
	.dwattr $C$DW$36, DW_AT_TI_symbol_name("e")
	.dwattr $C$DW$36, DW_AT_type(*$C$DW$T$18)
	.dwattr $C$DW$36, DW_AT_location[DW_OP_breg13 0]

;----------------------------------------------------------------------
; 339 | { return __LDOUBLE_BIASED_EXP_IS_MAX(e) == 0; }                        
;----------------------------------------------------------------------
        STMIA     SP, {A1,A2}           ; [DPU_V7M3_PIPE] |339| 
	.dwpsn	file "/home/merdak/Apps/ti/ccs1020/ccs/tools/compiler/ti-cgt-arm_20.2.4.LTS/include/_defs.h",line 339,column 3,is_stmt,isa 1
        LDMIA     SP, {A2,A3}           ; [DPU_V7M3_PIPE] |339| 
        MOVS      A1, #0                ; [DPU_V7M3_PIPE] |339| 
        MOVS      V4, #0                ; [DPU_V7M3_PIPE] |339| 
        MOV       A2, A3                ; [DPU_V7M3_PIPE] |339| 
        LSLS      A3, A2, #0            ; [DPU_V7M3_PIPE] |339| 
        MOVS      A2, #0                ; [DPU_V7M3_PIPE] |339| 
        ORRS      A2, A2, A3            ; [DPU_V7M3_PIPE] |339| 
        LSRS      A3, A2, #16           ; [DPU_V7M3_PIPE] |339| 
        MOV       A2, #32752            ; [DPU_V7M3_PIPE] |339| 
        ANDS      A2, A2, A3            ; [DPU_V7M3_PIPE] |339| 
        MOV       A3, #32752            ; [DPU_V7M3_PIPE] |339| 
        CMP       A3, A2                ; [DPU_V7M3_PIPE] |339| 
        BNE       ||$C$L5||             ; [DPU_V7M3_PIPE] |339| 
        ; BRANCHCC OCCURS {||$C$L5||}    ; [] |339| 
;* --------------------------------------------------------------------------*
        MOVS      V4, #1                ; [DPU_V7M3_PIPE] |339| 
;* --------------------------------------------------------------------------*
||$C$L5||:    
        CBNZ      V4, ||$C$L6||         ; [] 
        ; BRANCHCC OCCURS {||$C$L6||}    ; [] |339| 
;* --------------------------------------------------------------------------*
        MOVS      A1, #1                ; [DPU_V7M3_PIPE] |339| 
;* --------------------------------------------------------------------------*
||$C$L6||:    
	.dwpsn	file "/home/merdak/Apps/ti/ccs1020/ccs/tools/compiler/ti-cgt-arm_20.2.4.LTS/include/_defs.h",line 339,column 47,is_stmt,isa 1
$C$DW$37	.dwtag  DW_TAG_TI_branch
	.dwattr $C$DW$37, DW_AT_low_pc(0x00)
	.dwattr $C$DW$37, DW_AT_TI_return

        POP       {A3, A4, V4, PC}      ; [DPU_V7M3_PIPE] 
	.dwcfi	cfa_offset, 0
	.dwcfi	restore_reg, 7
	.dwcfi	restore_reg, 3
	.dwcfi	restore_reg, 2
        ; BRANCH OCCURS                  ; [] 
	.dwattr $C$DW$34, DW_AT_TI_end_file("/home/merdak/Apps/ti/ccs1020/ccs/tools/compiler/ti-cgt-arm_20.2.4.LTS/include/_defs.h")
	.dwattr $C$DW$34, DW_AT_TI_end_line(0x153)
	.dwattr $C$DW$34, DW_AT_TI_end_column(0x2f)
	.dwendentry
	.dwendtag $C$DW$34

	.sect	".text:__isnan"
	.clink
	.thumbfunc __isnan
	.thumb
	.global	__isnan

$C$DW$38	.dwtag  DW_TAG_subprogram
	.dwattr $C$DW$38, DW_AT_name("__isnan")
	.dwattr $C$DW$38, DW_AT_low_pc(__isnan)
	.dwattr $C$DW$38, DW_AT_high_pc(0x00)
	.dwattr $C$DW$38, DW_AT_TI_symbol_name("__isnan")
	.dwattr $C$DW$38, DW_AT_external
	.dwattr $C$DW$38, DW_AT_type(*$C$DW$T$10)
	.dwattr $C$DW$38, DW_AT_TI_begin_file("/home/merdak/Apps/ti/ccs1020/ccs/tools/compiler/ti-cgt-arm_20.2.4.LTS/include/_defs.h")
	.dwattr $C$DW$38, DW_AT_TI_begin_line(0x155)
	.dwattr $C$DW$38, DW_AT_TI_begin_column(0x25)
	.dwattr $C$DW$38, DW_AT_decl_file("/home/merdak/Apps/ti/ccs1020/ccs/tools/compiler/ti-cgt-arm_20.2.4.LTS/include/_defs.h")
	.dwattr $C$DW$38, DW_AT_decl_line(0x155)
	.dwattr $C$DW$38, DW_AT_decl_column(0x25)
	.dwattr $C$DW$38, DW_AT_TI_max_frame_size(0x20)
	.dwpsn	file "/home/merdak/Apps/ti/ccs1020/ccs/tools/compiler/ti-cgt-arm_20.2.4.LTS/include/_defs.h",line 342,column 1,is_stmt,address __isnan,isa 1

	.dwfde $C$DW$CIE, __isnan
$C$DW$39	.dwtag  DW_TAG_formal_parameter
	.dwattr $C$DW$39, DW_AT_name("d")
	.dwattr $C$DW$39, DW_AT_TI_symbol_name("d")
	.dwattr $C$DW$39, DW_AT_type(*$C$DW$T$17)
	.dwattr $C$DW$39, DW_AT_location[DW_OP_reg0]

;----------------------------------------------------------------------
; 341 | _CODE_ACCESS _INLINE_DEFINITION int __isnan(double d)                  
;----------------------------------------------------------------------

;*****************************************************************************
;* FUNCTION NAME: __isnan                                                    *
;*                                                                           *
;*   Regs Modified     : A1,A2,A3,A4,V1,V2,V3,V4,SP,SR                       *
;*   Regs Used         : A1,A2,A3,A4,V1,V2,V3,V4,SP,LR,SR                    *
;*   Local Frame Size  : 0 Args + 8 Auto + 20 Save = 28 byte                 *
;*****************************************************************************
__isnan:
;* --------------------------------------------------------------------------*
	.dwcfi	cfa_offset, 0
        PUSH      {A2, A3, A4, V1, V2, V3, V4, LR} ; [DPU_V7M3_PIPE] 
	.dwcfi	cfa_offset, 32
	.dwcfi	save_reg_to_mem, 14, -4
	.dwcfi	save_reg_to_mem, 7, -8
	.dwcfi	save_reg_to_mem, 6, -12
	.dwcfi	save_reg_to_mem, 5, -16
	.dwcfi	save_reg_to_mem, 4, -20
	.dwcfi	save_reg_to_mem, 3, -24
	.dwcfi	save_reg_to_mem, 2, -28
	.dwcfi	save_reg_to_mem, 1, -32
$C$DW$40	.dwtag  DW_TAG_variable
	.dwattr $C$DW$40, DW_AT_name("d")
	.dwattr $C$DW$40, DW_AT_TI_symbol_name("d")
	.dwattr $C$DW$40, DW_AT_type(*$C$DW$T$17)
	.dwattr $C$DW$40, DW_AT_location[DW_OP_breg13 0]

;----------------------------------------------------------------------
; 342 | { return __DOUBLE_BIASED_EXP_IS_MAX(d) &&                              
;----------------------------------------------------------------------
        STMIA     SP, {A1,A2}           ; [DPU_V7M3_PIPE] |342| 
	.dwpsn	file "/home/merdak/Apps/ti/ccs1020/ccs/tools/compiler/ti-cgt-arm_20.2.4.LTS/include/_defs.h",line 342,column 3,is_stmt,isa 1
        LDMIA     SP, {A2,A3}           ; [DPU_V7M3_PIPE] |342| 
        MOVS      A1, #0                ; [DPU_V7M3_PIPE] |342| 
        MOV       A2, A3                ; [DPU_V7M3_PIPE] |342| 
        LSLS      A3, A2, #0            ; [DPU_V7M3_PIPE] |342| 
        MOVS      A2, #0                ; [DPU_V7M3_PIPE] |342| 
        ORRS      A2, A2, A3            ; [DPU_V7M3_PIPE] |342| 
        LSRS      A3, A2, #16           ; [DPU_V7M3_PIPE] |342| 
        MOV       A2, #32752            ; [DPU_V7M3_PIPE] |342| 
        ANDS      A2, A2, A3            ; [DPU_V7M3_PIPE] |342| 
        MOV       A3, #32752            ; [DPU_V7M3_PIPE] |342| 
        CMP       A3, A2                ; [DPU_V7M3_PIPE] |342| 
        BNE       ||$C$L9||             ; [DPU_V7M3_PIPE] |342| 
        ; BRANCHCC OCCURS {||$C$L9||}    ; [] |342| 
;* --------------------------------------------------------------------------*
        LDMIA     SP, {A2,A3}           ; [DPU_V7M3_PIPE] |342| 
        LDR       V3, $C$CON1           ; [DPU_V7M3_PIPE] |342| 
        MOV       A2, A3                ; [DPU_V7M3_PIPE] |342| 
        LDMIA     SP, {A3,A4}           ; [DPU_V7M3_PIPE] |342| 
        MOVS      V2, #0                ; [DPU_V7M3_PIPE] |342| 
        LSLS      V1, A2, #0            ; [DPU_V7M3_PIPE] |342| 
        MOVS      V4, #0                ; [DPU_V7M3_PIPE] |342| 
        MOVS      A2, #0                ; [DPU_V7M3_PIPE] |342| 
        MOV       A4, #-1               ; [DPU_V7M3_PIPE] |342| 
        ORRS      A3, A3, V2            ; [DPU_V7M3_PIPE] |342| 
        ORRS      A2, A2, V1            ; [DPU_V7M3_PIPE] |342| 
        ANDS      A4, A4, A3            ; [DPU_V7M3_PIPE] |342| 
        ANDS      V3, V3, A2            ; [DPU_V7M3_PIPE] |342| 
        BNE       ||$C$L7||             ; [DPU_V7M3_PIPE] |342| 
        ; BRANCHCC OCCURS {||$C$L7||}    ; [] |342| 
;* --------------------------------------------------------------------------*
        CMP       A4, #0                ; [DPU_V7M3_PIPE] |342| 
;* --------------------------------------------------------------------------*
||$C$L7||:    
        BNE       ||$C$L8||             ; [DPU_V7M3_PIPE] |342| 
        ; BRANCHCC OCCURS {||$C$L8||}    ; [] |342| 
;* --------------------------------------------------------------------------*
        MOVS      V4, #1                ; [DPU_V7M3_PIPE] |342| 
;* --------------------------------------------------------------------------*
||$C$L8||:    
        CBNZ      V4, ||$C$L9||         ; [] 
        ; BRANCHCC OCCURS {||$C$L9||}    ; [] |342| 
;* --------------------------------------------------------------------------*
        MOVS      A1, #1                ; [DPU_V7M3_PIPE] |342| 
;* --------------------------------------------------------------------------*
||$C$L9||:    
	.dwpsn	file "/home/merdak/Apps/ti/ccs1020/ccs/tools/compiler/ti-cgt-arm_20.2.4.LTS/include/_defs.h",line 343,column 47,is_stmt,isa 1
;----------------------------------------------------------------------
; 343 | (__DOUBLE_FRAC_PART_IS_ZERO(d) == 0); }                                
;----------------------------------------------------------------------
$C$DW$41	.dwtag  DW_TAG_TI_branch
	.dwattr $C$DW$41, DW_AT_low_pc(0x00)
	.dwattr $C$DW$41, DW_AT_TI_return

        POP       {A2, A3, A4, V1, V2, V3, V4, PC} ; [DPU_V7M3_PIPE] 
	.dwcfi	cfa_offset, 0
	.dwcfi	restore_reg, 7
	.dwcfi	restore_reg, 6
	.dwcfi	restore_reg, 5
	.dwcfi	restore_reg, 4
	.dwcfi	restore_reg, 3
	.dwcfi	restore_reg, 2
	.dwcfi	restore_reg, 1
        ; BRANCH OCCURS                  ; [] 
	.dwattr $C$DW$38, DW_AT_TI_end_file("/home/merdak/Apps/ti/ccs1020/ccs/tools/compiler/ti-cgt-arm_20.2.4.LTS/include/_defs.h")
	.dwattr $C$DW$38, DW_AT_TI_end_line(0x157)
	.dwattr $C$DW$38, DW_AT_TI_end_column(0x2f)
	.dwendentry
	.dwendtag $C$DW$38

	.sect	".text:__isnanf"
	.clink
	.thumbfunc __isnanf
	.thumb
	.global	__isnanf

$C$DW$42	.dwtag  DW_TAG_subprogram
	.dwattr $C$DW$42, DW_AT_name("__isnanf")
	.dwattr $C$DW$42, DW_AT_low_pc(__isnanf)
	.dwattr $C$DW$42, DW_AT_high_pc(0x00)
	.dwattr $C$DW$42, DW_AT_TI_symbol_name("__isnanf")
	.dwattr $C$DW$42, DW_AT_external
	.dwattr $C$DW$42, DW_AT_type(*$C$DW$T$10)
	.dwattr $C$DW$42, DW_AT_TI_begin_file("/home/merdak/Apps/ti/ccs1020/ccs/tools/compiler/ti-cgt-arm_20.2.4.LTS/include/_defs.h")
	.dwattr $C$DW$42, DW_AT_TI_begin_line(0x158)
	.dwattr $C$DW$42, DW_AT_TI_begin_column(0x25)
	.dwattr $C$DW$42, DW_AT_decl_file("/home/merdak/Apps/ti/ccs1020/ccs/tools/compiler/ti-cgt-arm_20.2.4.LTS/include/_defs.h")
	.dwattr $C$DW$42, DW_AT_decl_line(0x158)
	.dwattr $C$DW$42, DW_AT_decl_column(0x25)
	.dwattr $C$DW$42, DW_AT_TI_max_frame_size(0x08)
	.dwpsn	file "/home/merdak/Apps/ti/ccs1020/ccs/tools/compiler/ti-cgt-arm_20.2.4.LTS/include/_defs.h",line 345,column 1,is_stmt,address __isnanf,isa 1

	.dwfde $C$DW$CIE, __isnanf
$C$DW$43	.dwtag  DW_TAG_formal_parameter
	.dwattr $C$DW$43, DW_AT_name("f")
	.dwattr $C$DW$43, DW_AT_TI_symbol_name("f")
	.dwattr $C$DW$43, DW_AT_type(*$C$DW$T$16)
	.dwattr $C$DW$43, DW_AT_location[DW_OP_reg0]

;----------------------------------------------------------------------
; 344 | _CODE_ACCESS _INLINE_DEFINITION int __isnanf(float f)                  
;----------------------------------------------------------------------

;*****************************************************************************
;* FUNCTION NAME: __isnanf                                                   *
;*                                                                           *
;*   Regs Modified     : A1,A2,A3,SP,SR                                      *
;*   Regs Used         : A1,A2,A3,SP,LR,SR                                   *
;*   Local Frame Size  : 0 Args + 4 Auto + 0 Save = 4 byte                   *
;*****************************************************************************
__isnanf:
;* --------------------------------------------------------------------------*
	.dwcfi	cfa_offset, 0
        SUB       SP, SP, #8            ; [DPU_V7M3_PIPE] 
	.dwcfi	cfa_offset, 8
$C$DW$44	.dwtag  DW_TAG_variable
	.dwattr $C$DW$44, DW_AT_name("f")
	.dwattr $C$DW$44, DW_AT_TI_symbol_name("f")
	.dwattr $C$DW$44, DW_AT_type(*$C$DW$T$16)
	.dwattr $C$DW$44, DW_AT_location[DW_OP_breg13 0]

;----------------------------------------------------------------------
; 345 | { return __FLOAT_BIASED_EXP_IS_MAX(f) &&                               
;----------------------------------------------------------------------
        STR       A1, [SP, #0]          ; [DPU_V7M3_PIPE] |345| 
	.dwpsn	file "/home/merdak/Apps/ti/ccs1020/ccs/tools/compiler/ti-cgt-arm_20.2.4.LTS/include/_defs.h",line 345,column 3,is_stmt,isa 1
        LDR       A1, [SP, #0]          ; [DPU_V7M3_PIPE] |345| 
        MOVS      A3, #0                ; [DPU_V7M3_PIPE] |345| 
        LSRS      A1, A1, #16           ; [DPU_V7M3_PIPE] |345| 
        AND       A1, A1, #32640        ; [DPU_V7M3_PIPE] |345| 
        CMP       A1, #32640            ; [DPU_V7M3_PIPE] |345| 
        BNE       ||$C$L11||            ; [DPU_V7M3_PIPE] |345| 
        ; BRANCHCC OCCURS {||$C$L11||}   ; [] |345| 
;* --------------------------------------------------------------------------*
        LDR       A1, [SP, #0]          ; [DPU_V7M3_PIPE] |345| 
        MOV       A2, A1                ; [DPU_V7M3_PIPE] |345| 
        BFC       A2, #23, #9           ; [DPU_V7M3_PIPE] |345| 
        MOVS      A1, #0                ; [DPU_V7M3_PIPE] |345| 
        CBNZ      A2, ||$C$L10||        ; [] 
        ; BRANCHCC OCCURS {||$C$L10||}   ; [] |345| 
;* --------------------------------------------------------------------------*
        MOVS      A1, #1                ; [DPU_V7M3_PIPE] |345| 
;* --------------------------------------------------------------------------*
||$C$L10||:    
        CBNZ      A1, ||$C$L11||        ; [] 
        ; BRANCHCC OCCURS {||$C$L11||}   ; [] |345| 
;* --------------------------------------------------------------------------*
        MOVS      A3, #1                ; [DPU_V7M3_PIPE] |345| 
;* --------------------------------------------------------------------------*
||$C$L11||:    
        MOV       A1, A3                ; [DPU_V7M3_PIPE] |345| 
	.dwpsn	file "/home/merdak/Apps/ti/ccs1020/ccs/tools/compiler/ti-cgt-arm_20.2.4.LTS/include/_defs.h",line 346,column 46,is_stmt,isa 1
;----------------------------------------------------------------------
; 346 | (__FLOAT_FRAC_PART_IS_ZERO(f) == 0); }                                 
;----------------------------------------------------------------------
        ADD       SP, SP, #8            ; [DPU_V7M3_PIPE] 
	.dwcfi	cfa_offset, 0
$C$DW$45	.dwtag  DW_TAG_TI_branch
	.dwattr $C$DW$45, DW_AT_low_pc(0x00)
	.dwattr $C$DW$45, DW_AT_TI_return

        BX        LR                    ; [DPU_V7M3_PIPE] 
        ; BRANCH OCCURS                  ; [] 
	.dwattr $C$DW$42, DW_AT_TI_end_file("/home/merdak/Apps/ti/ccs1020/ccs/tools/compiler/ti-cgt-arm_20.2.4.LTS/include/_defs.h")
	.dwattr $C$DW$42, DW_AT_TI_end_line(0x15a)
	.dwattr $C$DW$42, DW_AT_TI_end_column(0x2e)
	.dwendentry
	.dwendtag $C$DW$42

	.sect	".text:__isnanl"
	.clink
	.thumbfunc __isnanl
	.thumb
	.global	__isnanl

$C$DW$46	.dwtag  DW_TAG_subprogram
	.dwattr $C$DW$46, DW_AT_name("__isnanl")
	.dwattr $C$DW$46, DW_AT_low_pc(__isnanl)
	.dwattr $C$DW$46, DW_AT_high_pc(0x00)
	.dwattr $C$DW$46, DW_AT_TI_symbol_name("__isnanl")
	.dwattr $C$DW$46, DW_AT_external
	.dwattr $C$DW$46, DW_AT_type(*$C$DW$T$10)
	.dwattr $C$DW$46, DW_AT_TI_begin_file("/home/merdak/Apps/ti/ccs1020/ccs/tools/compiler/ti-cgt-arm_20.2.4.LTS/include/_defs.h")
	.dwattr $C$DW$46, DW_AT_TI_begin_line(0x15b)
	.dwattr $C$DW$46, DW_AT_TI_begin_column(0x25)
	.dwattr $C$DW$46, DW_AT_decl_file("/home/merdak/Apps/ti/ccs1020/ccs/tools/compiler/ti-cgt-arm_20.2.4.LTS/include/_defs.h")
	.dwattr $C$DW$46, DW_AT_decl_line(0x15b)
	.dwattr $C$DW$46, DW_AT_decl_column(0x25)
	.dwattr $C$DW$46, DW_AT_TI_max_frame_size(0x20)
	.dwpsn	file "/home/merdak/Apps/ti/ccs1020/ccs/tools/compiler/ti-cgt-arm_20.2.4.LTS/include/_defs.h",line 348,column 1,is_stmt,address __isnanl,isa 1

	.dwfde $C$DW$CIE, __isnanl
$C$DW$47	.dwtag  DW_TAG_formal_parameter
	.dwattr $C$DW$47, DW_AT_name("e")
	.dwattr $C$DW$47, DW_AT_TI_symbol_name("e")
	.dwattr $C$DW$47, DW_AT_type(*$C$DW$T$18)
	.dwattr $C$DW$47, DW_AT_location[DW_OP_reg0]

;----------------------------------------------------------------------
; 347 | _CODE_ACCESS _INLINE_DEFINITION int __isnanl(long double e)            
;----------------------------------------------------------------------

;*****************************************************************************
;* FUNCTION NAME: __isnanl                                                   *
;*                                                                           *
;*   Regs Modified     : A1,A2,A3,A4,V1,V2,V3,V4,SP,SR                       *
;*   Regs Used         : A1,A2,A3,A4,V1,V2,V3,V4,SP,LR,SR                    *
;*   Local Frame Size  : 0 Args + 8 Auto + 20 Save = 28 byte                 *
;*****************************************************************************
__isnanl:
;* --------------------------------------------------------------------------*
	.dwcfi	cfa_offset, 0
        PUSH      {A2, A3, A4, V1, V2, V3, V4, LR} ; [DPU_V7M3_PIPE] 
	.dwcfi	cfa_offset, 32
	.dwcfi	save_reg_to_mem, 14, -4
	.dwcfi	save_reg_to_mem, 7, -8
	.dwcfi	save_reg_to_mem, 6, -12
	.dwcfi	save_reg_to_mem, 5, -16
	.dwcfi	save_reg_to_mem, 4, -20
	.dwcfi	save_reg_to_mem, 3, -24
	.dwcfi	save_reg_to_mem, 2, -28
	.dwcfi	save_reg_to_mem, 1, -32
$C$DW$48	.dwtag  DW_TAG_variable
	.dwattr $C$DW$48, DW_AT_name("e")
	.dwattr $C$DW$48, DW_AT_TI_symbol_name("e")
	.dwattr $C$DW$48, DW_AT_type(*$C$DW$T$18)
	.dwattr $C$DW$48, DW_AT_location[DW_OP_breg13 0]

;----------------------------------------------------------------------
; 348 | { return __LDOUBLE_BIASED_EXP_IS_MAX(e) &&                             
;----------------------------------------------------------------------
        STMIA     SP, {A1,A2}           ; [DPU_V7M3_PIPE] |348| 
	.dwpsn	file "/home/merdak/Apps/ti/ccs1020/ccs/tools/compiler/ti-cgt-arm_20.2.4.LTS/include/_defs.h",line 348,column 3,is_stmt,isa 1
        LDMIA     SP, {A2,A3}           ; [DPU_V7M3_PIPE] |348| 
        MOVS      A1, #0                ; [DPU_V7M3_PIPE] |348| 
        MOV       A2, A3                ; [DPU_V7M3_PIPE] |348| 
        LSLS      A3, A2, #0            ; [DPU_V7M3_PIPE] |348| 
        MOVS      A2, #0                ; [DPU_V7M3_PIPE] |348| 
        ORRS      A2, A2, A3            ; [DPU_V7M3_PIPE] |348| 
        LSRS      A3, A2, #16           ; [DPU_V7M3_PIPE] |348| 
        MOV       A2, #32752            ; [DPU_V7M3_PIPE] |348| 
        ANDS      A2, A2, A3            ; [DPU_V7M3_PIPE] |348| 
        MOV       A3, #32752            ; [DPU_V7M3_PIPE] |348| 
        CMP       A3, A2                ; [DPU_V7M3_PIPE] |348| 
        BNE       ||$C$L14||            ; [DPU_V7M3_PIPE] |348| 
        ; BRANCHCC OCCURS {||$C$L14||}   ; [] |348| 
;* --------------------------------------------------------------------------*
        LDMIA     SP, {A2,A3}           ; [DPU_V7M3_PIPE] |348| 
        LDR       V3, $C$CON2           ; [DPU_V7M3_PIPE] |348| 
        MOV       A2, A3                ; [DPU_V7M3_PIPE] |348| 
        LDMIA     SP, {A3,A4}           ; [DPU_V7M3_PIPE] |348| 
        MOVS      V2, #0                ; [DPU_V7M3_PIPE] |348| 
        LSLS      V1, A2, #0            ; [DPU_V7M3_PIPE] |348| 
        MOVS      V4, #0                ; [DPU_V7M3_PIPE] |348| 
        MOVS      A2, #0                ; [DPU_V7M3_PIPE] |348| 
        MOV       A4, #-1               ; [DPU_V7M3_PIPE] |348| 
        ORRS      A3, A3, V2            ; [DPU_V7M3_PIPE] |348| 
        ORRS      A2, A2, V1            ; [DPU_V7M3_PIPE] |348| 
        ANDS      A4, A4, A3            ; [DPU_V7M3_PIPE] |348| 
        ANDS      V3, V3, A2            ; [DPU_V7M3_PIPE] |348| 
        BNE       ||$C$L12||            ; [DPU_V7M3_PIPE] |348| 
        ; BRANCHCC OCCURS {||$C$L12||}   ; [] |348| 
;* --------------------------------------------------------------------------*
        CMP       A4, #0                ; [DPU_V7M3_PIPE] |348| 
;* --------------------------------------------------------------------------*
||$C$L12||:    
        BNE       ||$C$L13||            ; [DPU_V7M3_PIPE] |348| 
        ; BRANCHCC OCCURS {||$C$L13||}   ; [] |348| 
;* --------------------------------------------------------------------------*
        MOVS      V4, #1                ; [DPU_V7M3_PIPE] |348| 
;* --------------------------------------------------------------------------*
||$C$L13||:    
        CBNZ      V4, ||$C$L14||        ; [] 
        ; BRANCHCC OCCURS {||$C$L14||}   ; [] |348| 
;* --------------------------------------------------------------------------*
        MOVS      A1, #1                ; [DPU_V7M3_PIPE] |348| 
;* --------------------------------------------------------------------------*
||$C$L14||:    
	.dwpsn	file "/home/merdak/Apps/ti/ccs1020/ccs/tools/compiler/ti-cgt-arm_20.2.4.LTS/include/_defs.h",line 349,column 48,is_stmt,isa 1
;----------------------------------------------------------------------
; 349 | (__LDOUBLE_FRAC_PART_IS_ZERO(e) == 0); }                               
;----------------------------------------------------------------------
$C$DW$49	.dwtag  DW_TAG_TI_branch
	.dwattr $C$DW$49, DW_AT_low_pc(0x00)
	.dwattr $C$DW$49, DW_AT_TI_return

        POP       {A2, A3, A4, V1, V2, V3, V4, PC} ; [DPU_V7M3_PIPE] 
	.dwcfi	cfa_offset, 0
	.dwcfi	restore_reg, 7
	.dwcfi	restore_reg, 6
	.dwcfi	restore_reg, 5
	.dwcfi	restore_reg, 4
	.dwcfi	restore_reg, 3
	.dwcfi	restore_reg, 2
	.dwcfi	restore_reg, 1
        ; BRANCH OCCURS                  ; [] 
	.dwattr $C$DW$46, DW_AT_TI_end_file("/home/merdak/Apps/ti/ccs1020/ccs/tools/compiler/ti-cgt-arm_20.2.4.LTS/include/_defs.h")
	.dwattr $C$DW$46, DW_AT_TI_end_line(0x15d)
	.dwattr $C$DW$46, DW_AT_TI_end_column(0x30)
	.dwendentry
	.dwendtag $C$DW$46

	.sect	".text:__isnormal"
	.clink
	.thumbfunc __isnormal
	.thumb
	.global	__isnormal

$C$DW$50	.dwtag  DW_TAG_subprogram
	.dwattr $C$DW$50, DW_AT_name("__isnormal")
	.dwattr $C$DW$50, DW_AT_low_pc(__isnormal)
	.dwattr $C$DW$50, DW_AT_high_pc(0x00)
	.dwattr $C$DW$50, DW_AT_TI_symbol_name("__isnormal")
	.dwattr $C$DW$50, DW_AT_external
	.dwattr $C$DW$50, DW_AT_type(*$C$DW$T$10)
	.dwattr $C$DW$50, DW_AT_TI_begin_file("/home/merdak/Apps/ti/ccs1020/ccs/tools/compiler/ti-cgt-arm_20.2.4.LTS/include/_defs.h")
	.dwattr $C$DW$50, DW_AT_TI_begin_line(0x15f)
	.dwattr $C$DW$50, DW_AT_TI_begin_column(0x25)
	.dwattr $C$DW$50, DW_AT_decl_file("/home/merdak/Apps/ti/ccs1020/ccs/tools/compiler/ti-cgt-arm_20.2.4.LTS/include/_defs.h")
	.dwattr $C$DW$50, DW_AT_decl_line(0x15f)
	.dwattr $C$DW$50, DW_AT_decl_column(0x25)
	.dwattr $C$DW$50, DW_AT_TI_max_frame_size(0x18)
	.dwpsn	file "/home/merdak/Apps/ti/ccs1020/ccs/tools/compiler/ti-cgt-arm_20.2.4.LTS/include/_defs.h",line 352,column 1,is_stmt,address __isnormal,isa 1

	.dwfde $C$DW$CIE, __isnormal
$C$DW$51	.dwtag  DW_TAG_formal_parameter
	.dwattr $C$DW$51, DW_AT_name("d")
	.dwattr $C$DW$51, DW_AT_TI_symbol_name("d")
	.dwattr $C$DW$51, DW_AT_type(*$C$DW$T$17)
	.dwattr $C$DW$51, DW_AT_location[DW_OP_reg0]

;----------------------------------------------------------------------
; 351 | _CODE_ACCESS _INLINE_DEFINITION int __isnormal(double d)               
;----------------------------------------------------------------------

;*****************************************************************************
;* FUNCTION NAME: __isnormal                                                 *
;*                                                                           *
;*   Regs Modified     : A1,A2,A3,A4,V3,V4,SP,SR                             *
;*   Regs Used         : A1,A2,A3,A4,V3,V4,SP,LR,SR                          *
;*   Local Frame Size  : 0 Args + 8 Auto + 12 Save = 20 byte                 *
;*****************************************************************************
__isnormal:
;* --------------------------------------------------------------------------*
	.dwcfi	cfa_offset, 0
        PUSH      {A2, A3, A4, V3, V4, LR} ; [DPU_V7M3_PIPE] 
	.dwcfi	cfa_offset, 24
	.dwcfi	save_reg_to_mem, 14, -4
	.dwcfi	save_reg_to_mem, 7, -8
	.dwcfi	save_reg_to_mem, 6, -12
	.dwcfi	save_reg_to_mem, 3, -16
	.dwcfi	save_reg_to_mem, 2, -20
	.dwcfi	save_reg_to_mem, 1, -24
$C$DW$52	.dwtag  DW_TAG_variable
	.dwattr $C$DW$52, DW_AT_name("d")
	.dwattr $C$DW$52, DW_AT_TI_symbol_name("d")
	.dwattr $C$DW$52, DW_AT_type(*$C$DW$T$17)
	.dwattr $C$DW$52, DW_AT_location[DW_OP_breg13 0]

;----------------------------------------------------------------------
; 352 | { return (__DOUBLE_BIASED_EXP_IS_ZERO(d) == 0) &&                      
;----------------------------------------------------------------------
        STMIA     SP, {A1,A2}           ; [DPU_V7M3_PIPE] |352| 
	.dwpsn	file "/home/merdak/Apps/ti/ccs1020/ccs/tools/compiler/ti-cgt-arm_20.2.4.LTS/include/_defs.h",line 352,column 3,is_stmt,isa 1
        LDMIA     SP, {A2,A3}           ; [DPU_V7M3_PIPE] |352| 
        MOVS      A1, #0                ; [DPU_V7M3_PIPE] |352| 
        MOVS      V4, #0                ; [DPU_V7M3_PIPE] |352| 
        MOV       A2, A3                ; [DPU_V7M3_PIPE] |352| 
        LSLS      A3, A2, #0            ; [DPU_V7M3_PIPE] |352| 
        MOVS      A2, #0                ; [DPU_V7M3_PIPE] |352| 
        ORRS      A2, A2, A3            ; [DPU_V7M3_PIPE] |352| 
        LSRS      A4, A2, #20           ; [DPU_V7M3_PIPE] |352| 
        MOVS      A3, #0                ; [DPU_V7M3_PIPE] |352| 
        MOV       A2, #2047             ; [DPU_V7M3_PIPE] |352| 
        ASRS      V3, A2, #31           ; [DPU_V7M3_PIPE] |352| 
        ANDS      V3, V3, A3            ; [DPU_V7M3_PIPE] |352| 
        AND       A2, A2, A4            ; [DPU_V7M3_PIPE] |352| 
        BNE       ||$C$L15||            ; [DPU_V7M3_PIPE] |352| 
        ; BRANCHCC OCCURS {||$C$L15||}   ; [] |352| 
;* --------------------------------------------------------------------------*
        CMP       A2, #0                ; [DPU_V7M3_PIPE] |352| 
;* --------------------------------------------------------------------------*
||$C$L15||:    
        BNE       ||$C$L16||            ; [DPU_V7M3_PIPE] |352| 
        ; BRANCHCC OCCURS {||$C$L16||}   ; [] |352| 
;* --------------------------------------------------------------------------*
        MOVS      V4, #1                ; [DPU_V7M3_PIPE] |352| 
;* --------------------------------------------------------------------------*
||$C$L16||:    
        CBNZ      V4, ||$C$L18||        ; [] 
        ; BRANCHCC OCCURS {||$C$L18||}   ; [] |352| 
;* --------------------------------------------------------------------------*
        LDMIA     SP, {A2,A3}           ; [DPU_V7M3_PIPE] |352| 
        MOV       A2, A3                ; [DPU_V7M3_PIPE] |352| 
        MOVS      V4, #0                ; [DPU_V7M3_PIPE] |352| 
        LSLS      A3, A2, #0            ; [DPU_V7M3_PIPE] |352| 
        MOVS      A2, #0                ; [DPU_V7M3_PIPE] |352| 
        ORRS      A2, A2, A3            ; [DPU_V7M3_PIPE] |352| 
        LSRS      A3, A2, #16           ; [DPU_V7M3_PIPE] |352| 
        MOV       A2, #32752            ; [DPU_V7M3_PIPE] |352| 
        ANDS      A2, A2, A3            ; [DPU_V7M3_PIPE] |352| 
        MOV       A3, #32752            ; [DPU_V7M3_PIPE] |352| 
        CMP       A3, A2                ; [DPU_V7M3_PIPE] |352| 
        BNE       ||$C$L17||            ; [DPU_V7M3_PIPE] |352| 
        ; BRANCHCC OCCURS {||$C$L17||}   ; [] |352| 
;* --------------------------------------------------------------------------*
        MOVS      V4, #1                ; [DPU_V7M3_PIPE] |352| 
;* --------------------------------------------------------------------------*
||$C$L17||:    
        CBNZ      V4, ||$C$L18||        ; [] 
        ; BRANCHCC OCCURS {||$C$L18||}   ; [] |352| 
;* --------------------------------------------------------------------------*
        MOVS      A1, #1                ; [DPU_V7M3_PIPE] |352| 
;* --------------------------------------------------------------------------*
||$C$L18||:    
	.dwpsn	file "/home/merdak/Apps/ti/ccs1020/ccs/tools/compiler/ti-cgt-arm_20.2.4.LTS/include/_defs.h",line 353,column 48,is_stmt,isa 1
;----------------------------------------------------------------------
; 353 | (__DOUBLE_BIASED_EXP_IS_MAX(d) == 0); }                                
;----------------------------------------------------------------------
$C$DW$53	.dwtag  DW_TAG_TI_branch
	.dwattr $C$DW$53, DW_AT_low_pc(0x00)
	.dwattr $C$DW$53, DW_AT_TI_return

        POP       {A2, A3, A4, V3, V4, PC} ; [DPU_V7M3_PIPE] 
	.dwcfi	cfa_offset, 0
	.dwcfi	restore_reg, 7
	.dwcfi	restore_reg, 6
	.dwcfi	restore_reg, 3
	.dwcfi	restore_reg, 2
	.dwcfi	restore_reg, 1
        ; BRANCH OCCURS                  ; [] 
	.dwattr $C$DW$50, DW_AT_TI_end_file("/home/merdak/Apps/ti/ccs1020/ccs/tools/compiler/ti-cgt-arm_20.2.4.LTS/include/_defs.h")
	.dwattr $C$DW$50, DW_AT_TI_end_line(0x161)
	.dwattr $C$DW$50, DW_AT_TI_end_column(0x30)
	.dwendentry
	.dwendtag $C$DW$50

	.sect	".text:__isnormalf"
	.clink
	.thumbfunc __isnormalf
	.thumb
	.global	__isnormalf

$C$DW$54	.dwtag  DW_TAG_subprogram
	.dwattr $C$DW$54, DW_AT_name("__isnormalf")
	.dwattr $C$DW$54, DW_AT_low_pc(__isnormalf)
	.dwattr $C$DW$54, DW_AT_high_pc(0x00)
	.dwattr $C$DW$54, DW_AT_TI_symbol_name("__isnormalf")
	.dwattr $C$DW$54, DW_AT_external
	.dwattr $C$DW$54, DW_AT_type(*$C$DW$T$10)
	.dwattr $C$DW$54, DW_AT_TI_begin_file("/home/merdak/Apps/ti/ccs1020/ccs/tools/compiler/ti-cgt-arm_20.2.4.LTS/include/_defs.h")
	.dwattr $C$DW$54, DW_AT_TI_begin_line(0x163)
	.dwattr $C$DW$54, DW_AT_TI_begin_column(0x25)
	.dwattr $C$DW$54, DW_AT_decl_file("/home/merdak/Apps/ti/ccs1020/ccs/tools/compiler/ti-cgt-arm_20.2.4.LTS/include/_defs.h")
	.dwattr $C$DW$54, DW_AT_decl_line(0x163)
	.dwattr $C$DW$54, DW_AT_decl_column(0x25)
	.dwattr $C$DW$54, DW_AT_TI_max_frame_size(0x08)
	.dwpsn	file "/home/merdak/Apps/ti/ccs1020/ccs/tools/compiler/ti-cgt-arm_20.2.4.LTS/include/_defs.h",line 356,column 1,is_stmt,address __isnormalf,isa 1

	.dwfde $C$DW$CIE, __isnormalf
$C$DW$55	.dwtag  DW_TAG_formal_parameter
	.dwattr $C$DW$55, DW_AT_name("f")
	.dwattr $C$DW$55, DW_AT_TI_symbol_name("f")
	.dwattr $C$DW$55, DW_AT_type(*$C$DW$T$16)
	.dwattr $C$DW$55, DW_AT_location[DW_OP_reg0]

;----------------------------------------------------------------------
; 355 | _CODE_ACCESS _INLINE_DEFINITION int __isnormalf(float f)               
;----------------------------------------------------------------------

;*****************************************************************************
;* FUNCTION NAME: __isnormalf                                                *
;*                                                                           *
;*   Regs Modified     : A1,A2,A3,SP,SR                                      *
;*   Regs Used         : A1,A2,A3,SP,LR,SR                                   *
;*   Local Frame Size  : 0 Args + 4 Auto + 0 Save = 4 byte                   *
;*****************************************************************************
__isnormalf:
;* --------------------------------------------------------------------------*
	.dwcfi	cfa_offset, 0
        SUB       SP, SP, #8            ; [DPU_V7M3_PIPE] 
	.dwcfi	cfa_offset, 8
$C$DW$56	.dwtag  DW_TAG_variable
	.dwattr $C$DW$56, DW_AT_name("f")
	.dwattr $C$DW$56, DW_AT_TI_symbol_name("f")
	.dwattr $C$DW$56, DW_AT_type(*$C$DW$T$16)
	.dwattr $C$DW$56, DW_AT_location[DW_OP_breg13 0]

;----------------------------------------------------------------------
; 356 | { return (__FLOAT_BIASED_EXP_IS_ZERO(f) == 0) &&                       
;----------------------------------------------------------------------
        STR       A1, [SP, #0]          ; [DPU_V7M3_PIPE] |356| 
	.dwpsn	file "/home/merdak/Apps/ti/ccs1020/ccs/tools/compiler/ti-cgt-arm_20.2.4.LTS/include/_defs.h",line 356,column 3,is_stmt,isa 1
        LDR       A1, [SP, #0]          ; [DPU_V7M3_PIPE] |356| 
        MOVS      A2, #0                ; [DPU_V7M3_PIPE] |356| 
        UBFX      A3, A1, #23, #8       ; [DPU_V7M3_PIPE] |356| 
        MOVS      A1, #0                ; [DPU_V7M3_PIPE] |356| 
        CBNZ      A3, ||$C$L19||        ; [] 
        ; BRANCHCC OCCURS {||$C$L19||}   ; [] |356| 
;* --------------------------------------------------------------------------*
        MOVS      A2, #1                ; [DPU_V7M3_PIPE] |356| 
;* --------------------------------------------------------------------------*
||$C$L19||:    
        CBNZ      A2, ||$C$L21||        ; [] 
        ; BRANCHCC OCCURS {||$C$L21||}   ; [] |356| 
;* --------------------------------------------------------------------------*
        LDR       A2, [SP, #0]          ; [DPU_V7M3_PIPE] |356| 
        LSRS      A2, A2, #16           ; [DPU_V7M3_PIPE] |356| 
        AND       A3, A2, #32640        ; [DPU_V7M3_PIPE] |356| 
        CMP       A3, #32640            ; [DPU_V7M3_PIPE] |356| 
        MOV       A2, #0                ; [DPU_V7M3_PIPE] |356| 
        BNE       ||$C$L20||            ; [DPU_V7M3_PIPE] |356| 
        ; BRANCHCC OCCURS {||$C$L20||}   ; [] |356| 
;* --------------------------------------------------------------------------*
        MOVS      A2, #1                ; [DPU_V7M3_PIPE] |356| 
;* --------------------------------------------------------------------------*
||$C$L20||:    
        CBNZ      A2, ||$C$L21||        ; [] 
        ; BRANCHCC OCCURS {||$C$L21||}   ; [] |356| 
;* --------------------------------------------------------------------------*
        MOVS      A1, #1                ; [DPU_V7M3_PIPE] |356| 
;* --------------------------------------------------------------------------*
||$C$L21||:    
	.dwpsn	file "/home/merdak/Apps/ti/ccs1020/ccs/tools/compiler/ti-cgt-arm_20.2.4.LTS/include/_defs.h",line 357,column 47,is_stmt,isa 1
;----------------------------------------------------------------------
; 357 | (__FLOAT_BIASED_EXP_IS_MAX(f) == 0); }                                 
;----------------------------------------------------------------------
        ADD       SP, SP, #8            ; [DPU_V7M3_PIPE] 
	.dwcfi	cfa_offset, 0
$C$DW$57	.dwtag  DW_TAG_TI_branch
	.dwattr $C$DW$57, DW_AT_low_pc(0x00)
	.dwattr $C$DW$57, DW_AT_TI_return

        BX        LR                    ; [DPU_V7M3_PIPE] 
        ; BRANCH OCCURS                  ; [] 
	.dwattr $C$DW$54, DW_AT_TI_end_file("/home/merdak/Apps/ti/ccs1020/ccs/tools/compiler/ti-cgt-arm_20.2.4.LTS/include/_defs.h")
	.dwattr $C$DW$54, DW_AT_TI_end_line(0x165)
	.dwattr $C$DW$54, DW_AT_TI_end_column(0x2f)
	.dwendentry
	.dwendtag $C$DW$54

	.sect	".text:__isnormall"
	.clink
	.thumbfunc __isnormall
	.thumb
	.global	__isnormall

$C$DW$58	.dwtag  DW_TAG_subprogram
	.dwattr $C$DW$58, DW_AT_name("__isnormall")
	.dwattr $C$DW$58, DW_AT_low_pc(__isnormall)
	.dwattr $C$DW$58, DW_AT_high_pc(0x00)
	.dwattr $C$DW$58, DW_AT_TI_symbol_name("__isnormall")
	.dwattr $C$DW$58, DW_AT_external
	.dwattr $C$DW$58, DW_AT_type(*$C$DW$T$10)
	.dwattr $C$DW$58, DW_AT_TI_begin_file("/home/merdak/Apps/ti/ccs1020/ccs/tools/compiler/ti-cgt-arm_20.2.4.LTS/include/_defs.h")
	.dwattr $C$DW$58, DW_AT_TI_begin_line(0x167)
	.dwattr $C$DW$58, DW_AT_TI_begin_column(0x25)
	.dwattr $C$DW$58, DW_AT_decl_file("/home/merdak/Apps/ti/ccs1020/ccs/tools/compiler/ti-cgt-arm_20.2.4.LTS/include/_defs.h")
	.dwattr $C$DW$58, DW_AT_decl_line(0x167)
	.dwattr $C$DW$58, DW_AT_decl_column(0x25)
	.dwattr $C$DW$58, DW_AT_TI_max_frame_size(0x18)
	.dwpsn	file "/home/merdak/Apps/ti/ccs1020/ccs/tools/compiler/ti-cgt-arm_20.2.4.LTS/include/_defs.h",line 360,column 1,is_stmt,address __isnormall,isa 1

	.dwfde $C$DW$CIE, __isnormall
$C$DW$59	.dwtag  DW_TAG_formal_parameter
	.dwattr $C$DW$59, DW_AT_name("e")
	.dwattr $C$DW$59, DW_AT_TI_symbol_name("e")
	.dwattr $C$DW$59, DW_AT_type(*$C$DW$T$18)
	.dwattr $C$DW$59, DW_AT_location[DW_OP_reg0]

;----------------------------------------------------------------------
; 359 | _CODE_ACCESS _INLINE_DEFINITION int __isnormall(long double e)         
;----------------------------------------------------------------------

;*****************************************************************************
;* FUNCTION NAME: __isnormall                                                *
;*                                                                           *
;*   Regs Modified     : A1,A2,A3,A4,V3,V4,SP,SR                             *
;*   Regs Used         : A1,A2,A3,A4,V3,V4,SP,LR,SR                          *
;*   Local Frame Size  : 0 Args + 8 Auto + 12 Save = 20 byte                 *
;*****************************************************************************
__isnormall:
;* --------------------------------------------------------------------------*
	.dwcfi	cfa_offset, 0
        PUSH      {A2, A3, A4, V3, V4, LR} ; [DPU_V7M3_PIPE] 
	.dwcfi	cfa_offset, 24
	.dwcfi	save_reg_to_mem, 14, -4
	.dwcfi	save_reg_to_mem, 7, -8
	.dwcfi	save_reg_to_mem, 6, -12
	.dwcfi	save_reg_to_mem, 3, -16
	.dwcfi	save_reg_to_mem, 2, -20
	.dwcfi	save_reg_to_mem, 1, -24
$C$DW$60	.dwtag  DW_TAG_variable
	.dwattr $C$DW$60, DW_AT_name("e")
	.dwattr $C$DW$60, DW_AT_TI_symbol_name("e")
	.dwattr $C$DW$60, DW_AT_type(*$C$DW$T$18)
	.dwattr $C$DW$60, DW_AT_location[DW_OP_breg13 0]

;----------------------------------------------------------------------
; 360 | { return (__LDOUBLE_BIASED_EXP_IS_ZERO(e) == 0) &&                     
;----------------------------------------------------------------------
        STMIA     SP, {A1,A2}           ; [DPU_V7M3_PIPE] |360| 
	.dwpsn	file "/home/merdak/Apps/ti/ccs1020/ccs/tools/compiler/ti-cgt-arm_20.2.4.LTS/include/_defs.h",line 360,column 3,is_stmt,isa 1
        LDMIA     SP, {A2,A3}           ; [DPU_V7M3_PIPE] |360| 
        MOVS      A1, #0                ; [DPU_V7M3_PIPE] |360| 
        MOVS      V4, #0                ; [DPU_V7M3_PIPE] |360| 
        MOV       A2, A3                ; [DPU_V7M3_PIPE] |360| 
        LSLS      A3, A2, #0            ; [DPU_V7M3_PIPE] |360| 
        MOVS      A2, #0                ; [DPU_V7M3_PIPE] |360| 
        ORRS      A2, A2, A3            ; [DPU_V7M3_PIPE] |360| 
        LSRS      A4, A2, #20           ; [DPU_V7M3_PIPE] |360| 
        MOVS      A3, #0                ; [DPU_V7M3_PIPE] |360| 
        MOV       A2, #2047             ; [DPU_V7M3_PIPE] |360| 
        ASRS      V3, A2, #31           ; [DPU_V7M3_PIPE] |360| 
        ANDS      V3, V3, A3            ; [DPU_V7M3_PIPE] |360| 
        AND       A2, A2, A4            ; [DPU_V7M3_PIPE] |360| 
        BNE       ||$C$L22||            ; [DPU_V7M3_PIPE] |360| 
        ; BRANCHCC OCCURS {||$C$L22||}   ; [] |360| 
;* --------------------------------------------------------------------------*
        CMP       A2, #0                ; [DPU_V7M3_PIPE] |360| 
;* --------------------------------------------------------------------------*
||$C$L22||:    
        BNE       ||$C$L23||            ; [DPU_V7M3_PIPE] |360| 
        ; BRANCHCC OCCURS {||$C$L23||}   ; [] |360| 
;* --------------------------------------------------------------------------*
        MOVS      V4, #1                ; [DPU_V7M3_PIPE] |360| 
;* --------------------------------------------------------------------------*
||$C$L23||:    
        CBNZ      V4, ||$C$L25||        ; [] 
        ; BRANCHCC OCCURS {||$C$L25||}   ; [] |360| 
;* --------------------------------------------------------------------------*
        LDMIA     SP, {A2,A3}           ; [DPU_V7M3_PIPE] |360| 
        MOV       A2, A3                ; [DPU_V7M3_PIPE] |360| 
        MOVS      V4, #0                ; [DPU_V7M3_PIPE] |360| 
        LSLS      A3, A2, #0            ; [DPU_V7M3_PIPE] |360| 
        MOVS      A2, #0                ; [DPU_V7M3_PIPE] |360| 
        ORRS      A2, A2, A3            ; [DPU_V7M3_PIPE] |360| 
        LSRS      A3, A2, #16           ; [DPU_V7M3_PIPE] |360| 
        MOV       A2, #32752            ; [DPU_V7M3_PIPE] |360| 
        ANDS      A2, A2, A3            ; [DPU_V7M3_PIPE] |360| 
        MOV       A3, #32752            ; [DPU_V7M3_PIPE] |360| 
        CMP       A3, A2                ; [DPU_V7M3_PIPE] |360| 
        BNE       ||$C$L24||            ; [DPU_V7M3_PIPE] |360| 
        ; BRANCHCC OCCURS {||$C$L24||}   ; [] |360| 
;* --------------------------------------------------------------------------*
        MOVS      V4, #1                ; [DPU_V7M3_PIPE] |360| 
;* --------------------------------------------------------------------------*
||$C$L24||:    
        CBNZ      V4, ||$C$L25||        ; [] 
        ; BRANCHCC OCCURS {||$C$L25||}   ; [] |360| 
;* --------------------------------------------------------------------------*
        MOVS      A1, #1                ; [DPU_V7M3_PIPE] |360| 
;* --------------------------------------------------------------------------*
||$C$L25||:    
	.dwpsn	file "/home/merdak/Apps/ti/ccs1020/ccs/tools/compiler/ti-cgt-arm_20.2.4.LTS/include/_defs.h",line 361,column 49,is_stmt,isa 1
;----------------------------------------------------------------------
; 361 | (__LDOUBLE_BIASED_EXP_IS_MAX(e) == 0); }                               
;----------------------------------------------------------------------
$C$DW$61	.dwtag  DW_TAG_TI_branch
	.dwattr $C$DW$61, DW_AT_low_pc(0x00)
	.dwattr $C$DW$61, DW_AT_TI_return

        POP       {A2, A3, A4, V3, V4, PC} ; [DPU_V7M3_PIPE] 
	.dwcfi	cfa_offset, 0
	.dwcfi	restore_reg, 7
	.dwcfi	restore_reg, 6
	.dwcfi	restore_reg, 3
	.dwcfi	restore_reg, 2
	.dwcfi	restore_reg, 1
        ; BRANCH OCCURS                  ; [] 
	.dwattr $C$DW$58, DW_AT_TI_end_file("/home/merdak/Apps/ti/ccs1020/ccs/tools/compiler/ti-cgt-arm_20.2.4.LTS/include/_defs.h")
	.dwattr $C$DW$58, DW_AT_TI_end_line(0x169)
	.dwattr $C$DW$58, DW_AT_TI_end_column(0x31)
	.dwendentry
	.dwendtag $C$DW$58

	.sect	".text:__signbit"
	.clink
	.thumbfunc __signbit
	.thumb
	.global	__signbit

$C$DW$62	.dwtag  DW_TAG_subprogram
	.dwattr $C$DW$62, DW_AT_name("__signbit")
	.dwattr $C$DW$62, DW_AT_low_pc(__signbit)
	.dwattr $C$DW$62, DW_AT_high_pc(0x00)
	.dwattr $C$DW$62, DW_AT_TI_symbol_name("__signbit")
	.dwattr $C$DW$62, DW_AT_external
	.dwattr $C$DW$62, DW_AT_type(*$C$DW$T$10)
	.dwattr $C$DW$62, DW_AT_TI_begin_file("/home/merdak/Apps/ti/ccs1020/ccs/tools/compiler/ti-cgt-arm_20.2.4.LTS/include/_defs.h")
	.dwattr $C$DW$62, DW_AT_TI_begin_line(0x16b)
	.dwattr $C$DW$62, DW_AT_TI_begin_column(0x25)
	.dwattr $C$DW$62, DW_AT_decl_file("/home/merdak/Apps/ti/ccs1020/ccs/tools/compiler/ti-cgt-arm_20.2.4.LTS/include/_defs.h")
	.dwattr $C$DW$62, DW_AT_decl_line(0x16b)
	.dwattr $C$DW$62, DW_AT_decl_column(0x25)
	.dwattr $C$DW$62, DW_AT_TI_max_frame_size(0x20)
	.dwpsn	file "/home/merdak/Apps/ti/ccs1020/ccs/tools/compiler/ti-cgt-arm_20.2.4.LTS/include/_defs.h",line 364,column 1,is_stmt,address __signbit,isa 1

	.dwfde $C$DW$CIE, __signbit
$C$DW$63	.dwtag  DW_TAG_formal_parameter
	.dwattr $C$DW$63, DW_AT_name("d")
	.dwattr $C$DW$63, DW_AT_TI_symbol_name("d")
	.dwattr $C$DW$63, DW_AT_type(*$C$DW$T$17)
	.dwattr $C$DW$63, DW_AT_location[DW_OP_reg0]

;----------------------------------------------------------------------
; 363 | _CODE_ACCESS _INLINE_DEFINITION int __signbit(double d)                
;----------------------------------------------------------------------

;*****************************************************************************
;* FUNCTION NAME: __signbit                                                  *
;*                                                                           *
;*   Regs Modified     : A1,A2,A3,A4,V1,V2,V3,V4,SP,SR                       *
;*   Regs Used         : A1,A2,A3,A4,V1,V2,V3,V4,SP,LR,SR                    *
;*   Local Frame Size  : 0 Args + 8 Auto + 20 Save = 28 byte                 *
;*****************************************************************************
__signbit:
;* --------------------------------------------------------------------------*
	.dwcfi	cfa_offset, 0
        PUSH      {A2, A3, A4, V1, V2, V3, V4, LR} ; [DPU_V7M3_PIPE] 
	.dwcfi	cfa_offset, 32
	.dwcfi	save_reg_to_mem, 14, -4
	.dwcfi	save_reg_to_mem, 7, -8
	.dwcfi	save_reg_to_mem, 6, -12
	.dwcfi	save_reg_to_mem, 5, -16
	.dwcfi	save_reg_to_mem, 4, -20
	.dwcfi	save_reg_to_mem, 3, -24
	.dwcfi	save_reg_to_mem, 2, -28
	.dwcfi	save_reg_to_mem, 1, -32
$C$DW$64	.dwtag  DW_TAG_variable
	.dwattr $C$DW$64, DW_AT_name("d")
	.dwattr $C$DW$64, DW_AT_TI_symbol_name("d")
	.dwattr $C$DW$64, DW_AT_type(*$C$DW$T$17)
	.dwattr $C$DW$64, DW_AT_location[DW_OP_breg13 0]

;----------------------------------------------------------------------
; 364 | { return __DOUBLE_SIGN_BIT_ZERO(d) == 0; }                             
;----------------------------------------------------------------------
        STMIA     SP, {A1,A2}           ; [DPU_V7M3_PIPE] |364| 
	.dwpsn	file "/home/merdak/Apps/ti/ccs1020/ccs/tools/compiler/ti-cgt-arm_20.2.4.LTS/include/_defs.h",line 364,column 3,is_stmt,isa 1
        LDMIA     SP, {A2,A3}           ; [DPU_V7M3_PIPE] |364| 
        MOV       A2, A3                ; [DPU_V7M3_PIPE] |364| 
        LDMIA     SP, {A3,A4}           ; [DPU_V7M3_PIPE] |364| 
        MOVS      V2, #0                ; [DPU_V7M3_PIPE] |364| 
        MOV       V3, #-2147483648      ; [DPU_V7M3_PIPE] |364| 
        MOVS      A1, #0                ; [DPU_V7M3_PIPE] |364| 
        MOVS      V4, #0                ; [DPU_V7M3_PIPE] |364| 
        LSLS      V1, A2, #0            ; [DPU_V7M3_PIPE] |364| 
        MOVS      A2, #0                ; [DPU_V7M3_PIPE] |364| 
        ORRS      A2, A2, V1            ; [DPU_V7M3_PIPE] |364| 
        MOVS      A4, #0                ; [DPU_V7M3_PIPE] |364| 
        ORRS      A3, A3, V2            ; [DPU_V7M3_PIPE] |364| 
        ANDS      V3, V3, A2            ; [DPU_V7M3_PIPE] |364| 
        AND       A4, A4, A3            ; [DPU_V7M3_PIPE] |364| 
        BNE       ||$C$L26||            ; [DPU_V7M3_PIPE] |364| 
        ; BRANCHCC OCCURS {||$C$L26||}   ; [] |364| 
;* --------------------------------------------------------------------------*
        CMP       A4, #0                ; [DPU_V7M3_PIPE] |364| 
;* --------------------------------------------------------------------------*
||$C$L26||:    
        BNE       ||$C$L27||            ; [DPU_V7M3_PIPE] |364| 
        ; BRANCHCC OCCURS {||$C$L27||}   ; [] |364| 
;* --------------------------------------------------------------------------*
        MOVS      V4, #1                ; [DPU_V7M3_PIPE] |364| 
;* --------------------------------------------------------------------------*
||$C$L27||:    
        CBNZ      V4, ||$C$L28||        ; [] 
        ; BRANCHCC OCCURS {||$C$L28||}   ; [] |364| 
;* --------------------------------------------------------------------------*
        MOVS      A1, #1                ; [DPU_V7M3_PIPE] |364| 
;* --------------------------------------------------------------------------*
||$C$L28||:    
	.dwpsn	file "/home/merdak/Apps/ti/ccs1020/ccs/tools/compiler/ti-cgt-arm_20.2.4.LTS/include/_defs.h",line 364,column 42,is_stmt,isa 1
$C$DW$65	.dwtag  DW_TAG_TI_branch
	.dwattr $C$DW$65, DW_AT_low_pc(0x00)
	.dwattr $C$DW$65, DW_AT_TI_return

        POP       {A2, A3, A4, V1, V2, V3, V4, PC} ; [DPU_V7M3_PIPE] 
	.dwcfi	cfa_offset, 0
	.dwcfi	restore_reg, 7
	.dwcfi	restore_reg, 6
	.dwcfi	restore_reg, 5
	.dwcfi	restore_reg, 4
	.dwcfi	restore_reg, 3
	.dwcfi	restore_reg, 2
	.dwcfi	restore_reg, 1
        ; BRANCH OCCURS                  ; [] 
	.dwattr $C$DW$62, DW_AT_TI_end_file("/home/merdak/Apps/ti/ccs1020/ccs/tools/compiler/ti-cgt-arm_20.2.4.LTS/include/_defs.h")
	.dwattr $C$DW$62, DW_AT_TI_end_line(0x16c)
	.dwattr $C$DW$62, DW_AT_TI_end_column(0x2a)
	.dwendentry
	.dwendtag $C$DW$62

	.sect	".text:__signbitf"
	.clink
	.thumbfunc __signbitf
	.thumb
	.global	__signbitf

$C$DW$66	.dwtag  DW_TAG_subprogram
	.dwattr $C$DW$66, DW_AT_name("__signbitf")
	.dwattr $C$DW$66, DW_AT_low_pc(__signbitf)
	.dwattr $C$DW$66, DW_AT_high_pc(0x00)
	.dwattr $C$DW$66, DW_AT_TI_symbol_name("__signbitf")
	.dwattr $C$DW$66, DW_AT_external
	.dwattr $C$DW$66, DW_AT_type(*$C$DW$T$10)
	.dwattr $C$DW$66, DW_AT_TI_begin_file("/home/merdak/Apps/ti/ccs1020/ccs/tools/compiler/ti-cgt-arm_20.2.4.LTS/include/_defs.h")
	.dwattr $C$DW$66, DW_AT_TI_begin_line(0x16d)
	.dwattr $C$DW$66, DW_AT_TI_begin_column(0x25)
	.dwattr $C$DW$66, DW_AT_decl_file("/home/merdak/Apps/ti/ccs1020/ccs/tools/compiler/ti-cgt-arm_20.2.4.LTS/include/_defs.h")
	.dwattr $C$DW$66, DW_AT_decl_line(0x16d)
	.dwattr $C$DW$66, DW_AT_decl_column(0x25)
	.dwattr $C$DW$66, DW_AT_TI_max_frame_size(0x08)
	.dwpsn	file "/home/merdak/Apps/ti/ccs1020/ccs/tools/compiler/ti-cgt-arm_20.2.4.LTS/include/_defs.h",line 366,column 1,is_stmt,address __signbitf,isa 1

	.dwfde $C$DW$CIE, __signbitf
$C$DW$67	.dwtag  DW_TAG_formal_parameter
	.dwattr $C$DW$67, DW_AT_name("f")
	.dwattr $C$DW$67, DW_AT_TI_symbol_name("f")
	.dwattr $C$DW$67, DW_AT_type(*$C$DW$T$16)
	.dwattr $C$DW$67, DW_AT_location[DW_OP_reg0]

;----------------------------------------------------------------------
; 365 | _CODE_ACCESS _INLINE_DEFINITION int __signbitf(float f)                
;----------------------------------------------------------------------

;*****************************************************************************
;* FUNCTION NAME: __signbitf                                                 *
;*                                                                           *
;*   Regs Modified     : A1,A2,A3,SP,SR                                      *
;*   Regs Used         : A1,A2,A3,SP,LR,SR                                   *
;*   Local Frame Size  : 0 Args + 4 Auto + 0 Save = 4 byte                   *
;*****************************************************************************
__signbitf:
;* --------------------------------------------------------------------------*
	.dwcfi	cfa_offset, 0
        SUB       SP, SP, #8            ; [DPU_V7M3_PIPE] 
	.dwcfi	cfa_offset, 8
$C$DW$68	.dwtag  DW_TAG_variable
	.dwattr $C$DW$68, DW_AT_name("f")
	.dwattr $C$DW$68, DW_AT_TI_symbol_name("f")
	.dwattr $C$DW$68, DW_AT_type(*$C$DW$T$16)
	.dwattr $C$DW$68, DW_AT_location[DW_OP_breg13 0]

;----------------------------------------------------------------------
; 366 | { return __FLOAT_SIGN_BIT_ZERO(f) == 0; }                              
;----------------------------------------------------------------------
        STR       A1, [SP, #0]          ; [DPU_V7M3_PIPE] |366| 
	.dwpsn	file "/home/merdak/Apps/ti/ccs1020/ccs/tools/compiler/ti-cgt-arm_20.2.4.LTS/include/_defs.h",line 366,column 3,is_stmt,isa 1
        LDR       A3, [SP, #0]          ; [DPU_V7M3_PIPE] |366| 
        MOVS      A2, #0                ; [DPU_V7M3_PIPE] |366| 
        MOVS      A1, #0                ; [DPU_V7M3_PIPE] |366| 
        LSRS      A3, A3, #32           ; [DPU_V7M3_PIPE] |366| 
        BCS       ||$C$L29||            ; [DPU_V7M3_PIPE] |366| 
        ; BRANCHCC OCCURS {||$C$L29||}   ; [] |366| 
;* --------------------------------------------------------------------------*
        MOVS      A2, #1                ; [DPU_V7M3_PIPE] |366| 
;* --------------------------------------------------------------------------*
||$C$L29||:    
        CBNZ      A2, ||$C$L30||        ; [] 
        ; BRANCHCC OCCURS {||$C$L30||}   ; [] |366| 
;* --------------------------------------------------------------------------*
        MOVS      A1, #1                ; [DPU_V7M3_PIPE] |366| 
;* --------------------------------------------------------------------------*
||$C$L30||:    
	.dwpsn	file "/home/merdak/Apps/ti/ccs1020/ccs/tools/compiler/ti-cgt-arm_20.2.4.LTS/include/_defs.h",line 366,column 41,is_stmt,isa 1
        ADD       SP, SP, #8            ; [DPU_V7M3_PIPE] 
	.dwcfi	cfa_offset, 0
$C$DW$69	.dwtag  DW_TAG_TI_branch
	.dwattr $C$DW$69, DW_AT_low_pc(0x00)
	.dwattr $C$DW$69, DW_AT_TI_return

        BX        LR                    ; [DPU_V7M3_PIPE] 
        ; BRANCH OCCURS                  ; [] 
	.dwattr $C$DW$66, DW_AT_TI_end_file("/home/merdak/Apps/ti/ccs1020/ccs/tools/compiler/ti-cgt-arm_20.2.4.LTS/include/_defs.h")
	.dwattr $C$DW$66, DW_AT_TI_end_line(0x16e)
	.dwattr $C$DW$66, DW_AT_TI_end_column(0x29)
	.dwendentry
	.dwendtag $C$DW$66

	.sect	".text:__signbitl"
	.clink
	.thumbfunc __signbitl
	.thumb
	.global	__signbitl

$C$DW$70	.dwtag  DW_TAG_subprogram
	.dwattr $C$DW$70, DW_AT_name("__signbitl")
	.dwattr $C$DW$70, DW_AT_low_pc(__signbitl)
	.dwattr $C$DW$70, DW_AT_high_pc(0x00)
	.dwattr $C$DW$70, DW_AT_TI_symbol_name("__signbitl")
	.dwattr $C$DW$70, DW_AT_external
	.dwattr $C$DW$70, DW_AT_type(*$C$DW$T$10)
	.dwattr $C$DW$70, DW_AT_TI_begin_file("/home/merdak/Apps/ti/ccs1020/ccs/tools/compiler/ti-cgt-arm_20.2.4.LTS/include/_defs.h")
	.dwattr $C$DW$70, DW_AT_TI_begin_line(0x16f)
	.dwattr $C$DW$70, DW_AT_TI_begin_column(0x25)
	.dwattr $C$DW$70, DW_AT_decl_file("/home/merdak/Apps/ti/ccs1020/ccs/tools/compiler/ti-cgt-arm_20.2.4.LTS/include/_defs.h")
	.dwattr $C$DW$70, DW_AT_decl_line(0x16f)
	.dwattr $C$DW$70, DW_AT_decl_column(0x25)
	.dwattr $C$DW$70, DW_AT_TI_max_frame_size(0x20)
	.dwpsn	file "/home/merdak/Apps/ti/ccs1020/ccs/tools/compiler/ti-cgt-arm_20.2.4.LTS/include/_defs.h",line 368,column 1,is_stmt,address __signbitl,isa 1

	.dwfde $C$DW$CIE, __signbitl
$C$DW$71	.dwtag  DW_TAG_formal_parameter
	.dwattr $C$DW$71, DW_AT_name("e")
	.dwattr $C$DW$71, DW_AT_TI_symbol_name("e")
	.dwattr $C$DW$71, DW_AT_type(*$C$DW$T$18)
	.dwattr $C$DW$71, DW_AT_location[DW_OP_reg0]

;----------------------------------------------------------------------
; 367 | _CODE_ACCESS _INLINE_DEFINITION int __signbitl(long double e)          
;----------------------------------------------------------------------

;*****************************************************************************
;* FUNCTION NAME: __signbitl                                                 *
;*                                                                           *
;*   Regs Modified     : A1,A2,A3,A4,V1,V2,V3,V4,SP,SR                       *
;*   Regs Used         : A1,A2,A3,A4,V1,V2,V3,V4,SP,LR,SR                    *
;*   Local Frame Size  : 0 Args + 8 Auto + 20 Save = 28 byte                 *
;*****************************************************************************
__signbitl:
;* --------------------------------------------------------------------------*
	.dwcfi	cfa_offset, 0
        PUSH      {A2, A3, A4, V1, V2, V3, V4, LR} ; [DPU_V7M3_PIPE] 
	.dwcfi	cfa_offset, 32
	.dwcfi	save_reg_to_mem, 14, -4
	.dwcfi	save_reg_to_mem, 7, -8
	.dwcfi	save_reg_to_mem, 6, -12
	.dwcfi	save_reg_to_mem, 5, -16
	.dwcfi	save_reg_to_mem, 4, -20
	.dwcfi	save_reg_to_mem, 3, -24
	.dwcfi	save_reg_to_mem, 2, -28
	.dwcfi	save_reg_to_mem, 1, -32
$C$DW$72	.dwtag  DW_TAG_variable
	.dwattr $C$DW$72, DW_AT_name("e")
	.dwattr $C$DW$72, DW_AT_TI_symbol_name("e")
	.dwattr $C$DW$72, DW_AT_type(*$C$DW$T$18)
	.dwattr $C$DW$72, DW_AT_location[DW_OP_breg13 0]

;----------------------------------------------------------------------
; 368 | { return __LDOUBLE_SIGN_BIT_ZERO(e) == 0; }                            
;----------------------------------------------------------------------
        STMIA     SP, {A1,A2}           ; [DPU_V7M3_PIPE] |368| 
	.dwpsn	file "/home/merdak/Apps/ti/ccs1020/ccs/tools/compiler/ti-cgt-arm_20.2.4.LTS/include/_defs.h",line 368,column 3,is_stmt,isa 1
        LDMIA     SP, {A2,A3}           ; [DPU_V7M3_PIPE] |368| 
        MOV       A2, A3                ; [DPU_V7M3_PIPE] |368| 
        LDMIA     SP, {A3,A4}           ; [DPU_V7M3_PIPE] |368| 
        MOVS      V2, #0                ; [DPU_V7M3_PIPE] |368| 
        MOV       V3, #-2147483648      ; [DPU_V7M3_PIPE] |368| 
        MOVS      A1, #0                ; [DPU_V7M3_PIPE] |368| 
        MOVS      V4, #0                ; [DPU_V7M3_PIPE] |368| 
        LSLS      V1, A2, #0            ; [DPU_V7M3_PIPE] |368| 
        MOVS      A2, #0                ; [DPU_V7M3_PIPE] |368| 
        ORRS      A2, A2, V1            ; [DPU_V7M3_PIPE] |368| 
        MOVS      A4, #0                ; [DPU_V7M3_PIPE] |368| 
        ORRS      A3, A3, V2            ; [DPU_V7M3_PIPE] |368| 
        ANDS      V3, V3, A2            ; [DPU_V7M3_PIPE] |368| 
        AND       A4, A4, A3            ; [DPU_V7M3_PIPE] |368| 
        BNE       ||$C$L31||            ; [DPU_V7M3_PIPE] |368| 
        ; BRANCHCC OCCURS {||$C$L31||}   ; [] |368| 
;* --------------------------------------------------------------------------*
        CMP       A4, #0                ; [DPU_V7M3_PIPE] |368| 
;* --------------------------------------------------------------------------*
||$C$L31||:    
        BNE       ||$C$L32||            ; [DPU_V7M3_PIPE] |368| 
        ; BRANCHCC OCCURS {||$C$L32||}   ; [] |368| 
;* --------------------------------------------------------------------------*
        MOVS      V4, #1                ; [DPU_V7M3_PIPE] |368| 
;* --------------------------------------------------------------------------*
||$C$L32||:    
        CBNZ      V4, ||$C$L33||        ; [] 
        ; BRANCHCC OCCURS {||$C$L33||}   ; [] |368| 
;* --------------------------------------------------------------------------*
        MOVS      A1, #1                ; [DPU_V7M3_PIPE] |368| 
;* --------------------------------------------------------------------------*
||$C$L33||:    
	.dwpsn	file "/home/merdak/Apps/ti/ccs1020/ccs/tools/compiler/ti-cgt-arm_20.2.4.LTS/include/_defs.h",line 368,column 43,is_stmt,isa 1
$C$DW$73	.dwtag  DW_TAG_TI_branch
	.dwattr $C$DW$73, DW_AT_low_pc(0x00)
	.dwattr $C$DW$73, DW_AT_TI_return

        POP       {A2, A3, A4, V1, V2, V3, V4, PC} ; [DPU_V7M3_PIPE] 
	.dwcfi	cfa_offset, 0
	.dwcfi	restore_reg, 7
	.dwcfi	restore_reg, 6
	.dwcfi	restore_reg, 5
	.dwcfi	restore_reg, 4
	.dwcfi	restore_reg, 3
	.dwcfi	restore_reg, 2
	.dwcfi	restore_reg, 1
        ; BRANCH OCCURS                  ; [] 
	.dwattr $C$DW$70, DW_AT_TI_end_file("/home/merdak/Apps/ti/ccs1020/ccs/tools/compiler/ti-cgt-arm_20.2.4.LTS/include/_defs.h")
	.dwattr $C$DW$70, DW_AT_TI_end_line(0x170)
	.dwattr $C$DW$70, DW_AT_TI_end_column(0x2b)
	.dwendentry
	.dwendtag $C$DW$70

	.sect	".text:__isinff"
	.clink
	.thumbfunc __isinff
	.thumb
	.global	__isinff

$C$DW$74	.dwtag  DW_TAG_subprogram
	.dwattr $C$DW$74, DW_AT_name("__isinff")
	.dwattr $C$DW$74, DW_AT_low_pc(__isinff)
	.dwattr $C$DW$74, DW_AT_high_pc(0x00)
	.dwattr $C$DW$74, DW_AT_TI_symbol_name("__isinff")
	.dwattr $C$DW$74, DW_AT_external
	.dwattr $C$DW$74, DW_AT_type(*$C$DW$T$10)
	.dwattr $C$DW$74, DW_AT_TI_begin_file("/home/merdak/Apps/ti/ccs1020/ccs/tools/compiler/ti-cgt-arm_20.2.4.LTS/include/_defs.h")
	.dwattr $C$DW$74, DW_AT_TI_begin_line(0x176)
	.dwattr $C$DW$74, DW_AT_TI_begin_column(0x25)
	.dwattr $C$DW$74, DW_AT_decl_file("/home/merdak/Apps/ti/ccs1020/ccs/tools/compiler/ti-cgt-arm_20.2.4.LTS/include/_defs.h")
	.dwattr $C$DW$74, DW_AT_decl_line(0x176)
	.dwattr $C$DW$74, DW_AT_decl_column(0x25)
	.dwattr $C$DW$74, DW_AT_TI_max_frame_size(0x08)
	.dwpsn	file "/home/merdak/Apps/ti/ccs1020/ccs/tools/compiler/ti-cgt-arm_20.2.4.LTS/include/_defs.h",line 375,column 1,is_stmt,address __isinff,isa 1

	.dwfde $C$DW$CIE, __isinff
$C$DW$75	.dwtag  DW_TAG_formal_parameter
	.dwattr $C$DW$75, DW_AT_name("f")
	.dwattr $C$DW$75, DW_AT_TI_symbol_name("f")
	.dwattr $C$DW$75, DW_AT_type(*$C$DW$T$16)
	.dwattr $C$DW$75, DW_AT_location[DW_OP_reg0]

;----------------------------------------------------------------------
; 374 | _CODE_ACCESS _INLINE_DEFINITION int __isinff(float f)                  
;----------------------------------------------------------------------

;*****************************************************************************
;* FUNCTION NAME: __isinff                                                   *
;*                                                                           *
;*   Regs Modified     : A1,A2,SP,SR                                         *
;*   Regs Used         : A1,A2,SP,LR,SR                                      *
;*   Local Frame Size  : 0 Args + 4 Auto + 0 Save = 4 byte                   *
;*****************************************************************************
__isinff:
;* --------------------------------------------------------------------------*
	.dwcfi	cfa_offset, 0
        SUB       SP, SP, #8            ; [DPU_V7M3_PIPE] 
	.dwcfi	cfa_offset, 8
$C$DW$76	.dwtag  DW_TAG_variable
	.dwattr $C$DW$76, DW_AT_name("f")
	.dwattr $C$DW$76, DW_AT_TI_symbol_name("f")
	.dwattr $C$DW$76, DW_AT_type(*$C$DW$T$16)
	.dwattr $C$DW$76, DW_AT_location[DW_OP_breg13 0]

;----------------------------------------------------------------------
; 375 | { return __FLOAT_BIASED_EXP_IS_MAX(f) && __FLOAT_FRAC_PART_IS_ZERO(f);
;     | }                                                                      
;----------------------------------------------------------------------
        STR       A1, [SP, #0]          ; [DPU_V7M3_PIPE] |375| 
	.dwpsn	file "/home/merdak/Apps/ti/ccs1020/ccs/tools/compiler/ti-cgt-arm_20.2.4.LTS/include/_defs.h",line 375,column 3,is_stmt,isa 1
        LDR       A1, [SP, #0]          ; [DPU_V7M3_PIPE] |375| 
        MOVS      A2, #0                ; [DPU_V7M3_PIPE] |375| 
        LSRS      A1, A1, #16           ; [DPU_V7M3_PIPE] |375| 
        AND       A1, A1, #32640        ; [DPU_V7M3_PIPE] |375| 
        CMP       A1, #32640            ; [DPU_V7M3_PIPE] |375| 
        BNE       ||$C$L34||            ; [DPU_V7M3_PIPE] |375| 
        ; BRANCHCC OCCURS {||$C$L34||}   ; [] |375| 
;* --------------------------------------------------------------------------*
        LDR       A1, [SP, #0]          ; [DPU_V7M3_PIPE] |375| 
        BFC       A1, #23, #9           ; [DPU_V7M3_PIPE] |375| 
        CBNZ      A1, ||$C$L34||        ; [] 
        ; BRANCHCC OCCURS {||$C$L34||}   ; [] |375| 
;* --------------------------------------------------------------------------*
        MOVS      A2, #1                ; [DPU_V7M3_PIPE] |375| 
;* --------------------------------------------------------------------------*
||$C$L34||:    
        MOV       A1, A2                ; [DPU_V7M3_PIPE] |375| 
	.dwpsn	file "/home/merdak/Apps/ti/ccs1020/ccs/tools/compiler/ti-cgt-arm_20.2.4.LTS/include/_defs.h",line 375,column 72,is_stmt,isa 1
        ADD       SP, SP, #8            ; [DPU_V7M3_PIPE] 
	.dwcfi	cfa_offset, 0
$C$DW$77	.dwtag  DW_TAG_TI_branch
	.dwattr $C$DW$77, DW_AT_low_pc(0x00)
	.dwattr $C$DW$77, DW_AT_TI_return

        BX        LR                    ; [DPU_V7M3_PIPE] 
        ; BRANCH OCCURS                  ; [] 
	.dwattr $C$DW$74, DW_AT_TI_end_file("/home/merdak/Apps/ti/ccs1020/ccs/tools/compiler/ti-cgt-arm_20.2.4.LTS/include/_defs.h")
	.dwattr $C$DW$74, DW_AT_TI_end_line(0x177)
	.dwattr $C$DW$74, DW_AT_TI_end_column(0x48)
	.dwendentry
	.dwendtag $C$DW$74

	.sect	".text:__isinf"
	.clink
	.thumbfunc __isinf
	.thumb
	.global	__isinf

$C$DW$78	.dwtag  DW_TAG_subprogram
	.dwattr $C$DW$78, DW_AT_name("__isinf")
	.dwattr $C$DW$78, DW_AT_low_pc(__isinf)
	.dwattr $C$DW$78, DW_AT_high_pc(0x00)
	.dwattr $C$DW$78, DW_AT_TI_symbol_name("__isinf")
	.dwattr $C$DW$78, DW_AT_external
	.dwattr $C$DW$78, DW_AT_type(*$C$DW$T$10)
	.dwattr $C$DW$78, DW_AT_TI_begin_file("/home/merdak/Apps/ti/ccs1020/ccs/tools/compiler/ti-cgt-arm_20.2.4.LTS/include/_defs.h")
	.dwattr $C$DW$78, DW_AT_TI_begin_line(0x178)
	.dwattr $C$DW$78, DW_AT_TI_begin_column(0x25)
	.dwattr $C$DW$78, DW_AT_decl_file("/home/merdak/Apps/ti/ccs1020/ccs/tools/compiler/ti-cgt-arm_20.2.4.LTS/include/_defs.h")
	.dwattr $C$DW$78, DW_AT_decl_line(0x178)
	.dwattr $C$DW$78, DW_AT_decl_column(0x25)
	.dwattr $C$DW$78, DW_AT_TI_max_frame_size(0x18)
	.dwpsn	file "/home/merdak/Apps/ti/ccs1020/ccs/tools/compiler/ti-cgt-arm_20.2.4.LTS/include/_defs.h",line 377,column 1,is_stmt,address __isinf,isa 1

	.dwfde $C$DW$CIE, __isinf
$C$DW$79	.dwtag  DW_TAG_formal_parameter
	.dwattr $C$DW$79, DW_AT_name("d")
	.dwattr $C$DW$79, DW_AT_TI_symbol_name("d")
	.dwattr $C$DW$79, DW_AT_type(*$C$DW$T$17)
	.dwattr $C$DW$79, DW_AT_location[DW_OP_reg0]

;----------------------------------------------------------------------
; 376 | _CODE_ACCESS _INLINE_DEFINITION int __isinf (double d)                 
;----------------------------------------------------------------------

;*****************************************************************************
;* FUNCTION NAME: __isinf                                                    *
;*                                                                           *
;*   Regs Modified     : A1,A2,A3,A4,V1,V2,V4,SP,SR                          *
;*   Regs Used         : A1,A2,A3,A4,V1,V2,V4,SP,LR,SR                       *
;*   Local Frame Size  : 0 Args + 8 Auto + 16 Save = 24 byte                 *
;*****************************************************************************
__isinf:
;* --------------------------------------------------------------------------*
	.dwcfi	cfa_offset, 0
        PUSH      {A3, A4, V1, V2, V4, LR} ; [DPU_V7M3_PIPE] 
	.dwcfi	cfa_offset, 24
	.dwcfi	save_reg_to_mem, 14, -4
	.dwcfi	save_reg_to_mem, 7, -8
	.dwcfi	save_reg_to_mem, 5, -12
	.dwcfi	save_reg_to_mem, 4, -16
	.dwcfi	save_reg_to_mem, 3, -20
	.dwcfi	save_reg_to_mem, 2, -24
$C$DW$80	.dwtag  DW_TAG_variable
	.dwattr $C$DW$80, DW_AT_name("d")
	.dwattr $C$DW$80, DW_AT_TI_symbol_name("d")
	.dwattr $C$DW$80, DW_AT_type(*$C$DW$T$17)
	.dwattr $C$DW$80, DW_AT_location[DW_OP_breg13 0]

;----------------------------------------------------------------------
; 377 | { return __DOUBLE_BIASED_EXP_IS_MAX(d) && __DOUBLE_FRAC_PART_IS_ZERO(d)
;     | ; }                                                                    
;----------------------------------------------------------------------
        STMIA     SP, {A1,A2}           ; [DPU_V7M3_PIPE] |377| 
	.dwpsn	file "/home/merdak/Apps/ti/ccs1020/ccs/tools/compiler/ti-cgt-arm_20.2.4.LTS/include/_defs.h",line 377,column 3,is_stmt,isa 1
        LDMIA     SP, {A2,A3}           ; [DPU_V7M3_PIPE] |377| 
        MOVS      A1, #0                ; [DPU_V7M3_PIPE] |377| 
        MOV       A2, A3                ; [DPU_V7M3_PIPE] |377| 
        LSLS      A3, A2, #0            ; [DPU_V7M3_PIPE] |377| 
        MOVS      A2, #0                ; [DPU_V7M3_PIPE] |377| 
        ORRS      A2, A2, A3            ; [DPU_V7M3_PIPE] |377| 
        LSRS      A3, A2, #16           ; [DPU_V7M3_PIPE] |377| 
        MOV       A2, #32752            ; [DPU_V7M3_PIPE] |377| 
        ANDS      A2, A2, A3            ; [DPU_V7M3_PIPE] |377| 
        MOV       A3, #32752            ; [DPU_V7M3_PIPE] |377| 
        CMP       A3, A2                ; [DPU_V7M3_PIPE] |377| 
        BNE       ||$C$L36||            ; [DPU_V7M3_PIPE] |377| 
        ; BRANCHCC OCCURS {||$C$L36||}   ; [] |377| 
;* --------------------------------------------------------------------------*
        LDMIA     SP, {A2,A3}           ; [DPU_V7M3_PIPE] |377| 
        LDR       V4, $C$CON3           ; [DPU_V7M3_PIPE] |377| 
        MOV       A2, A3                ; [DPU_V7M3_PIPE] |377| 
        LDMIA     SP, {A3,A4}           ; [DPU_V7M3_PIPE] |377| 
        MOVS      V2, #0                ; [DPU_V7M3_PIPE] |377| 
        LSLS      V1, A2, #0            ; [DPU_V7M3_PIPE] |377| 
        MOVS      A2, #0                ; [DPU_V7M3_PIPE] |377| 
        MOV       A4, #-1               ; [DPU_V7M3_PIPE] |377| 
        ORRS      A3, A3, V2            ; [DPU_V7M3_PIPE] |377| 
        ORRS      A2, A2, V1            ; [DPU_V7M3_PIPE] |377| 
        ANDS      A4, A4, A3            ; [DPU_V7M3_PIPE] |377| 
        ANDS      V4, V4, A2            ; [DPU_V7M3_PIPE] |377| 
        BNE       ||$C$L35||            ; [DPU_V7M3_PIPE] |377| 
        ; BRANCHCC OCCURS {||$C$L35||}   ; [] |377| 
;* --------------------------------------------------------------------------*
        CMP       A4, #0                ; [DPU_V7M3_PIPE] |377| 
;* --------------------------------------------------------------------------*
||$C$L35||:    
        BNE       ||$C$L36||            ; [DPU_V7M3_PIPE] |377| 
        ; BRANCHCC OCCURS {||$C$L36||}   ; [] |377| 
;* --------------------------------------------------------------------------*
        MOVS      A1, #1                ; [DPU_V7M3_PIPE] |377| 
;* --------------------------------------------------------------------------*
||$C$L36||:    
	.dwpsn	file "/home/merdak/Apps/ti/ccs1020/ccs/tools/compiler/ti-cgt-arm_20.2.4.LTS/include/_defs.h",line 377,column 74,is_stmt,isa 1
$C$DW$81	.dwtag  DW_TAG_TI_branch
	.dwattr $C$DW$81, DW_AT_low_pc(0x00)
	.dwattr $C$DW$81, DW_AT_TI_return

        POP       {A3, A4, V1, V2, V4, PC} ; [DPU_V7M3_PIPE] 
	.dwcfi	cfa_offset, 0
	.dwcfi	restore_reg, 7
	.dwcfi	restore_reg, 5
	.dwcfi	restore_reg, 4
	.dwcfi	restore_reg, 3
	.dwcfi	restore_reg, 2
        ; BRANCH OCCURS                  ; [] 
	.dwattr $C$DW$78, DW_AT_TI_end_file("/home/merdak/Apps/ti/ccs1020/ccs/tools/compiler/ti-cgt-arm_20.2.4.LTS/include/_defs.h")
	.dwattr $C$DW$78, DW_AT_TI_end_line(0x179)
	.dwattr $C$DW$78, DW_AT_TI_end_column(0x4a)
	.dwendentry
	.dwendtag $C$DW$78

	.sect	".text:__isinfl"
	.clink
	.thumbfunc __isinfl
	.thumb
	.global	__isinfl

$C$DW$82	.dwtag  DW_TAG_subprogram
	.dwattr $C$DW$82, DW_AT_name("__isinfl")
	.dwattr $C$DW$82, DW_AT_low_pc(__isinfl)
	.dwattr $C$DW$82, DW_AT_high_pc(0x00)
	.dwattr $C$DW$82, DW_AT_TI_symbol_name("__isinfl")
	.dwattr $C$DW$82, DW_AT_external
	.dwattr $C$DW$82, DW_AT_type(*$C$DW$T$10)
	.dwattr $C$DW$82, DW_AT_TI_begin_file("/home/merdak/Apps/ti/ccs1020/ccs/tools/compiler/ti-cgt-arm_20.2.4.LTS/include/_defs.h")
	.dwattr $C$DW$82, DW_AT_TI_begin_line(0x17a)
	.dwattr $C$DW$82, DW_AT_TI_begin_column(0x25)
	.dwattr $C$DW$82, DW_AT_decl_file("/home/merdak/Apps/ti/ccs1020/ccs/tools/compiler/ti-cgt-arm_20.2.4.LTS/include/_defs.h")
	.dwattr $C$DW$82, DW_AT_decl_line(0x17a)
	.dwattr $C$DW$82, DW_AT_decl_column(0x25)
	.dwattr $C$DW$82, DW_AT_TI_max_frame_size(0x18)
	.dwpsn	file "/home/merdak/Apps/ti/ccs1020/ccs/tools/compiler/ti-cgt-arm_20.2.4.LTS/include/_defs.h",line 379,column 1,is_stmt,address __isinfl,isa 1

	.dwfde $C$DW$CIE, __isinfl
$C$DW$83	.dwtag  DW_TAG_formal_parameter
	.dwattr $C$DW$83, DW_AT_name("e")
	.dwattr $C$DW$83, DW_AT_TI_symbol_name("e")
	.dwattr $C$DW$83, DW_AT_type(*$C$DW$T$18)
	.dwattr $C$DW$83, DW_AT_location[DW_OP_reg0]

;----------------------------------------------------------------------
; 378 | _CODE_ACCESS _INLINE_DEFINITION int __isinfl(long double e)            
;----------------------------------------------------------------------

;*****************************************************************************
;* FUNCTION NAME: __isinfl                                                   *
;*                                                                           *
;*   Regs Modified     : A1,A2,A3,A4,V1,V2,V4,SP,SR                          *
;*   Regs Used         : A1,A2,A3,A4,V1,V2,V4,SP,LR,SR                       *
;*   Local Frame Size  : 0 Args + 8 Auto + 16 Save = 24 byte                 *
;*****************************************************************************
__isinfl:
;* --------------------------------------------------------------------------*
	.dwcfi	cfa_offset, 0
        PUSH      {A3, A4, V1, V2, V4, LR} ; [DPU_V7M3_PIPE] 
	.dwcfi	cfa_offset, 24
	.dwcfi	save_reg_to_mem, 14, -4
	.dwcfi	save_reg_to_mem, 7, -8
	.dwcfi	save_reg_to_mem, 5, -12
	.dwcfi	save_reg_to_mem, 4, -16
	.dwcfi	save_reg_to_mem, 3, -20
	.dwcfi	save_reg_to_mem, 2, -24
$C$DW$84	.dwtag  DW_TAG_variable
	.dwattr $C$DW$84, DW_AT_name("e")
	.dwattr $C$DW$84, DW_AT_TI_symbol_name("e")
	.dwattr $C$DW$84, DW_AT_type(*$C$DW$T$18)
	.dwattr $C$DW$84, DW_AT_location[DW_OP_breg13 0]

;----------------------------------------------------------------------
; 379 | { return __LDOUBLE_BIASED_EXP_IS_MAX(e) && __LDOUBLE_FRAC_PART_IS_ZERO(
;     | e); }                                                                  
;----------------------------------------------------------------------
        STMIA     SP, {A1,A2}           ; [DPU_V7M3_PIPE] |379| 
	.dwpsn	file "/home/merdak/Apps/ti/ccs1020/ccs/tools/compiler/ti-cgt-arm_20.2.4.LTS/include/_defs.h",line 379,column 3,is_stmt,isa 1
        LDMIA     SP, {A2,A3}           ; [DPU_V7M3_PIPE] |379| 
        MOVS      A1, #0                ; [DPU_V7M3_PIPE] |379| 
        MOV       A2, A3                ; [DPU_V7M3_PIPE] |379| 
        LSLS      A3, A2, #0            ; [DPU_V7M3_PIPE] |379| 
        MOVS      A2, #0                ; [DPU_V7M3_PIPE] |379| 
        ORRS      A2, A2, A3            ; [DPU_V7M3_PIPE] |379| 
        LSRS      A3, A2, #16           ; [DPU_V7M3_PIPE] |379| 
        MOV       A2, #32752            ; [DPU_V7M3_PIPE] |379| 
        ANDS      A2, A2, A3            ; [DPU_V7M3_PIPE] |379| 
        MOV       A3, #32752            ; [DPU_V7M3_PIPE] |379| 
        CMP       A3, A2                ; [DPU_V7M3_PIPE] |379| 
        BNE       ||$C$L38||            ; [DPU_V7M3_PIPE] |379| 
        ; BRANCHCC OCCURS {||$C$L38||}   ; [] |379| 
;* --------------------------------------------------------------------------*
        LDMIA     SP, {A2,A3}           ; [DPU_V7M3_PIPE] |379| 
        LDR       V4, $C$CON4           ; [DPU_V7M3_PIPE] |379| 
        MOV       A2, A3                ; [DPU_V7M3_PIPE] |379| 
        LDMIA     SP, {A3,A4}           ; [DPU_V7M3_PIPE] |379| 
        MOVS      V2, #0                ; [DPU_V7M3_PIPE] |379| 
        LSLS      V1, A2, #0            ; [DPU_V7M3_PIPE] |379| 
        MOVS      A2, #0                ; [DPU_V7M3_PIPE] |379| 
        MOV       A4, #-1               ; [DPU_V7M3_PIPE] |379| 
        ORRS      A3, A3, V2            ; [DPU_V7M3_PIPE] |379| 
        ORRS      A2, A2, V1            ; [DPU_V7M3_PIPE] |379| 
        ANDS      A4, A4, A3            ; [DPU_V7M3_PIPE] |379| 
        ANDS      V4, V4, A2            ; [DPU_V7M3_PIPE] |379| 
        BNE       ||$C$L37||            ; [DPU_V7M3_PIPE] |379| 
        ; BRANCHCC OCCURS {||$C$L37||}   ; [] |379| 
;* --------------------------------------------------------------------------*
        CMP       A4, #0                ; [DPU_V7M3_PIPE] |379| 
;* --------------------------------------------------------------------------*
||$C$L37||:    
        BNE       ||$C$L38||            ; [DPU_V7M3_PIPE] |379| 
        ; BRANCHCC OCCURS {||$C$L38||}   ; [] |379| 
;* --------------------------------------------------------------------------*
        MOVS      A1, #1                ; [DPU_V7M3_PIPE] |379| 
;* --------------------------------------------------------------------------*
||$C$L38||:    
	.dwpsn	file "/home/merdak/Apps/ti/ccs1020/ccs/tools/compiler/ti-cgt-arm_20.2.4.LTS/include/_defs.h",line 379,column 76,is_stmt,isa 1
$C$DW$85	.dwtag  DW_TAG_TI_branch
	.dwattr $C$DW$85, DW_AT_low_pc(0x00)
	.dwattr $C$DW$85, DW_AT_TI_return

        POP       {A3, A4, V1, V2, V4, PC} ; [DPU_V7M3_PIPE] 
	.dwcfi	cfa_offset, 0
	.dwcfi	restore_reg, 7
	.dwcfi	restore_reg, 5
	.dwcfi	restore_reg, 4
	.dwcfi	restore_reg, 3
	.dwcfi	restore_reg, 2
        ; BRANCH OCCURS                  ; [] 
	.dwattr $C$DW$82, DW_AT_TI_end_file("/home/merdak/Apps/ti/ccs1020/ccs/tools/compiler/ti-cgt-arm_20.2.4.LTS/include/_defs.h")
	.dwattr $C$DW$82, DW_AT_TI_end_line(0x17b)
	.dwattr $C$DW$82, DW_AT_TI_end_column(0x4c)
	.dwendentry
	.dwendtag $C$DW$82

	.sect	".text:__fpclassifyf"
	.clink
	.thumbfunc __fpclassifyf
	.thumb
	.global	__fpclassifyf

$C$DW$86	.dwtag  DW_TAG_subprogram
	.dwattr $C$DW$86, DW_AT_name("__fpclassifyf")
	.dwattr $C$DW$86, DW_AT_low_pc(__fpclassifyf)
	.dwattr $C$DW$86, DW_AT_high_pc(0x00)
	.dwattr $C$DW$86, DW_AT_TI_symbol_name("__fpclassifyf")
	.dwattr $C$DW$86, DW_AT_external
	.dwattr $C$DW$86, DW_AT_type(*$C$DW$T$10)
	.dwattr $C$DW$86, DW_AT_TI_begin_file("/home/merdak/Apps/ti/ccs1020/ccs/tools/compiler/ti-cgt-arm_20.2.4.LTS/include/_defs.h")
	.dwattr $C$DW$86, DW_AT_TI_begin_line(0x18c)
	.dwattr $C$DW$86, DW_AT_TI_begin_column(0x25)
	.dwattr $C$DW$86, DW_AT_decl_file("/home/merdak/Apps/ti/ccs1020/ccs/tools/compiler/ti-cgt-arm_20.2.4.LTS/include/_defs.h")
	.dwattr $C$DW$86, DW_AT_decl_line(0x18c)
	.dwattr $C$DW$86, DW_AT_decl_column(0x25)
	.dwattr $C$DW$86, DW_AT_TI_max_frame_size(0x08)
	.dwpsn	file "/home/merdak/Apps/ti/ccs1020/ccs/tools/compiler/ti-cgt-arm_20.2.4.LTS/include/_defs.h",line 397,column 1,is_stmt,address __fpclassifyf,isa 1

	.dwfde $C$DW$CIE, __fpclassifyf
$C$DW$87	.dwtag  DW_TAG_formal_parameter
	.dwattr $C$DW$87, DW_AT_name("f")
	.dwattr $C$DW$87, DW_AT_TI_symbol_name("f")
	.dwattr $C$DW$87, DW_AT_type(*$C$DW$T$16)
	.dwattr $C$DW$87, DW_AT_location[DW_OP_reg0]

;----------------------------------------------------------------------
; 396 | _CODE_ACCESS _INLINE_DEFINITION int __fpclassifyf(float f)             
;----------------------------------------------------------------------

;*****************************************************************************
;* FUNCTION NAME: __fpclassifyf                                              *
;*                                                                           *
;*   Regs Modified     : A1,SP,SR                                            *
;*   Regs Used         : A1,SP,LR,SR                                         *
;*   Local Frame Size  : 0 Args + 4 Auto + 0 Save = 4 byte                   *
;*****************************************************************************
__fpclassifyf:
;* --------------------------------------------------------------------------*
	.dwcfi	cfa_offset, 0
        SUB       SP, SP, #8            ; [DPU_V7M3_PIPE] 
	.dwcfi	cfa_offset, 8
$C$DW$88	.dwtag  DW_TAG_variable
	.dwattr $C$DW$88, DW_AT_name("f")
	.dwattr $C$DW$88, DW_AT_TI_symbol_name("f")
	.dwattr $C$DW$88, DW_AT_type(*$C$DW$T$16)
	.dwattr $C$DW$88, DW_AT_location[DW_OP_breg13 0]

        STR       A1, [SP, #0]          ; [DPU_V7M3_PIPE] |397| 
	.dwpsn	file "/home/merdak/Apps/ti/ccs1020/ccs/tools/compiler/ti-cgt-arm_20.2.4.LTS/include/_defs.h",line 398,column 5,is_stmt,isa 1
;----------------------------------------------------------------------
; 398 | if (__FLOAT_BIASED_EXP_IS_MAX(f))                                      
;----------------------------------------------------------------------
        LDR       A1, [SP, #0]          ; [DPU_V7M3_PIPE] |398| 
        LSRS      A1, A1, #16           ; [DPU_V7M3_PIPE] |398| 
        AND       A1, A1, #32640        ; [DPU_V7M3_PIPE] |398| 
        CMP       A1, #32640            ; [DPU_V7M3_PIPE] |398| 
        BNE       ||$C$L40||            ; [DPU_V7M3_PIPE] |398| 
        ; BRANCHCC OCCURS {||$C$L40||}   ; [] |398| 
;* --------------------------------------------------------------------------*
	.dwpsn	file "/home/merdak/Apps/ti/ccs1020/ccs/tools/compiler/ti-cgt-arm_20.2.4.LTS/include/_defs.h",line 400,column 9,is_stmt,isa 1
;----------------------------------------------------------------------
; 400 | if (__FLOAT_FRAC_PART_IS_ZERO(f))                                      
;----------------------------------------------------------------------
        LDR       A1, [SP, #0]          ; [DPU_V7M3_PIPE] |400| 
        BFC       A1, #23, #9           ; [DPU_V7M3_PIPE] |400| 
        CBNZ      A1, ||$C$L39||        ; [] 
        ; BRANCHCC OCCURS {||$C$L39||}   ; [] |400| 
;* --------------------------------------------------------------------------*
	.dwpsn	file "/home/merdak/Apps/ti/ccs1020/ccs/tools/compiler/ti-cgt-arm_20.2.4.LTS/include/_defs.h",line 401,column 13,is_stmt,isa 1
;----------------------------------------------------------------------
; 401 | return __FP_INFINITE;                                                  
;----------------------------------------------------------------------
        MOVS      A1, #1                ; [DPU_V7M3_PIPE] |401| 
        B         ||$C$L43||            ; [DPU_V7M3_PIPE] |401| 
        ; BRANCH OCCURS {||$C$L43||}     ; [] |401| 
;* --------------------------------------------------------------------------*
||$C$L39||:    
	.dwpsn	file "/home/merdak/Apps/ti/ccs1020/ccs/tools/compiler/ti-cgt-arm_20.2.4.LTS/include/_defs.h",line 402,column 14,is_stmt,isa 1
;----------------------------------------------------------------------
; 402 | else return __FP_NAN;                                                  
;----------------------------------------------------------------------
        MOVS      A1, #2                ; [DPU_V7M3_PIPE] |402| 
        B         ||$C$L43||            ; [DPU_V7M3_PIPE] |402| 
        ; BRANCH OCCURS {||$C$L43||}     ; [] |402| 
;* --------------------------------------------------------------------------*
||$C$L40||:    
	.dwpsn	file "/home/merdak/Apps/ti/ccs1020/ccs/tools/compiler/ti-cgt-arm_20.2.4.LTS/include/_defs.h",line 404,column 5,is_stmt,isa 1
;----------------------------------------------------------------------
; 404 | if (__FLOAT_BIASED_EXP_IS_ZERO(f))                                     
;----------------------------------------------------------------------
        LDR       A1, [SP, #0]          ; [DPU_V7M3_PIPE] |404| 
        UBFX      A1, A1, #23, #8       ; [DPU_V7M3_PIPE] |404| 
        CBNZ      A1, ||$C$L42||        ; [] 
        ; BRANCHCC OCCURS {||$C$L42||}   ; [] |404| 
;* --------------------------------------------------------------------------*
	.dwpsn	file "/home/merdak/Apps/ti/ccs1020/ccs/tools/compiler/ti-cgt-arm_20.2.4.LTS/include/_defs.h",line 406,column 9,is_stmt,isa 1
;----------------------------------------------------------------------
; 406 | if (__FLOAT_FRAC_PART_IS_ZERO(f))                                      
;----------------------------------------------------------------------
        LDR       A1, [SP, #0]          ; [DPU_V7M3_PIPE] |406| 
        BFC       A1, #23, #9           ; [DPU_V7M3_PIPE] |406| 
        CBNZ      A1, ||$C$L41||        ; [] 
        ; BRANCHCC OCCURS {||$C$L41||}   ; [] |406| 
;* --------------------------------------------------------------------------*
	.dwpsn	file "/home/merdak/Apps/ti/ccs1020/ccs/tools/compiler/ti-cgt-arm_20.2.4.LTS/include/_defs.h",line 407,column 13,is_stmt,isa 1
;----------------------------------------------------------------------
; 407 | return __FP_ZERO;                                                      
;----------------------------------------------------------------------
        MOVS      A1, #0                ; [DPU_V7M3_PIPE] |407| 
        B         ||$C$L43||            ; [DPU_V7M3_PIPE] |407| 
        ; BRANCH OCCURS {||$C$L43||}     ; [] |407| 
;* --------------------------------------------------------------------------*
||$C$L41||:    
	.dwpsn	file "/home/merdak/Apps/ti/ccs1020/ccs/tools/compiler/ti-cgt-arm_20.2.4.LTS/include/_defs.h",line 408,column 14,is_stmt,isa 1
;----------------------------------------------------------------------
; 408 | else return __FP_SUBNORMAL;                                            
;----------------------------------------------------------------------
        MVN       A1, #1                ; [DPU_V7M3_PIPE] |408| 
        B         ||$C$L43||            ; [DPU_V7M3_PIPE] |408| 
        ; BRANCH OCCURS {||$C$L43||}     ; [] |408| 
;* --------------------------------------------------------------------------*
||$C$L42||:    
	.dwpsn	file "/home/merdak/Apps/ti/ccs1020/ccs/tools/compiler/ti-cgt-arm_20.2.4.LTS/include/_defs.h",line 410,column 5,is_stmt,isa 1
;----------------------------------------------------------------------
; 410 | return __FP_NORMAL;                                                    
;----------------------------------------------------------------------
        MOV       A1, #-1               ; [DPU_V7M3_PIPE] |410| 
;* --------------------------------------------------------------------------*
||$C$L43||:    
	.dwpsn	file "/home/merdak/Apps/ti/ccs1020/ccs/tools/compiler/ti-cgt-arm_20.2.4.LTS/include/_defs.h",line 411,column 1,is_stmt,isa 1
        ADD       SP, SP, #8            ; [DPU_V7M3_PIPE] 
	.dwcfi	cfa_offset, 0
$C$DW$89	.dwtag  DW_TAG_TI_branch
	.dwattr $C$DW$89, DW_AT_low_pc(0x00)
	.dwattr $C$DW$89, DW_AT_TI_return

        BX        LR                    ; [DPU_V7M3_PIPE] 
        ; BRANCH OCCURS                  ; [] 
	.dwattr $C$DW$86, DW_AT_TI_end_file("/home/merdak/Apps/ti/ccs1020/ccs/tools/compiler/ti-cgt-arm_20.2.4.LTS/include/_defs.h")
	.dwattr $C$DW$86, DW_AT_TI_end_line(0x19b)
	.dwattr $C$DW$86, DW_AT_TI_end_column(0x01)
	.dwendentry
	.dwendtag $C$DW$86

	.sect	".text:__fpclassify"
	.clink
	.thumbfunc __fpclassify
	.thumb
	.global	__fpclassify

$C$DW$90	.dwtag  DW_TAG_subprogram
	.dwattr $C$DW$90, DW_AT_name("__fpclassify")
	.dwattr $C$DW$90, DW_AT_low_pc(__fpclassify)
	.dwattr $C$DW$90, DW_AT_high_pc(0x00)
	.dwattr $C$DW$90, DW_AT_TI_symbol_name("__fpclassify")
	.dwattr $C$DW$90, DW_AT_external
	.dwattr $C$DW$90, DW_AT_type(*$C$DW$T$10)
	.dwattr $C$DW$90, DW_AT_TI_begin_file("/home/merdak/Apps/ti/ccs1020/ccs/tools/compiler/ti-cgt-arm_20.2.4.LTS/include/_defs.h")
	.dwattr $C$DW$90, DW_AT_TI_begin_line(0x19d)
	.dwattr $C$DW$90, DW_AT_TI_begin_column(0x25)
	.dwattr $C$DW$90, DW_AT_decl_file("/home/merdak/Apps/ti/ccs1020/ccs/tools/compiler/ti-cgt-arm_20.2.4.LTS/include/_defs.h")
	.dwattr $C$DW$90, DW_AT_decl_line(0x19d)
	.dwattr $C$DW$90, DW_AT_decl_column(0x25)
	.dwattr $C$DW$90, DW_AT_TI_max_frame_size(0x10)
	.dwpsn	file "/home/merdak/Apps/ti/ccs1020/ccs/tools/compiler/ti-cgt-arm_20.2.4.LTS/include/_defs.h",line 414,column 1,is_stmt,address __fpclassify,isa 1

	.dwfde $C$DW$CIE, __fpclassify
$C$DW$91	.dwtag  DW_TAG_formal_parameter
	.dwattr $C$DW$91, DW_AT_name("d")
	.dwattr $C$DW$91, DW_AT_TI_symbol_name("d")
	.dwattr $C$DW$91, DW_AT_type(*$C$DW$T$17)
	.dwattr $C$DW$91, DW_AT_location[DW_OP_reg0]

;----------------------------------------------------------------------
; 413 | _CODE_ACCESS _INLINE_DEFINITION int __fpclassify (double d)            
;----------------------------------------------------------------------

;*****************************************************************************
;* FUNCTION NAME: __fpclassify                                               *
;*                                                                           *
;*   Regs Modified     : A1,A2,A3,A4,V1,SP,SR                                *
;*   Regs Used         : A1,A2,A3,A4,V1,SP,LR,SR                             *
;*   Local Frame Size  : 0 Args + 8 Auto + 8 Save = 16 byte                  *
;*****************************************************************************
__fpclassify:
;* --------------------------------------------------------------------------*
	.dwcfi	cfa_offset, 0
        PUSH      {A3, A4, V1, LR}      ; [DPU_V7M3_PIPE] 
	.dwcfi	cfa_offset, 16
	.dwcfi	save_reg_to_mem, 14, -4
	.dwcfi	save_reg_to_mem, 4, -8
	.dwcfi	save_reg_to_mem, 3, -12
	.dwcfi	save_reg_to_mem, 2, -16
$C$DW$92	.dwtag  DW_TAG_variable
	.dwattr $C$DW$92, DW_AT_name("d")
	.dwattr $C$DW$92, DW_AT_TI_symbol_name("d")
	.dwattr $C$DW$92, DW_AT_type(*$C$DW$T$17)
	.dwattr $C$DW$92, DW_AT_location[DW_OP_breg13 0]

        STMIA     SP, {A1,A2}           ; [DPU_V7M3_PIPE] |414| 
	.dwpsn	file "/home/merdak/Apps/ti/ccs1020/ccs/tools/compiler/ti-cgt-arm_20.2.4.LTS/include/_defs.h",line 415,column 5,is_stmt,isa 1
;----------------------------------------------------------------------
; 415 | if (__DOUBLE_BIASED_EXP_IS_MAX(d))                                     
;----------------------------------------------------------------------
        LDMIA     SP, {A2,A3}           ; [DPU_V7M3_PIPE] |415| 
        MOV       A1, A3                ; [DPU_V7M3_PIPE] |415| 
        LSLS      A2, A1, #0            ; [DPU_V7M3_PIPE] |415| 
        MOVS      A1, #0                ; [DPU_V7M3_PIPE] |415| 
        ORRS      A1, A1, A2            ; [DPU_V7M3_PIPE] |415| 
        LSRS      A2, A1, #16           ; [DPU_V7M3_PIPE] |415| 
        MOV       A1, #32752            ; [DPU_V7M3_PIPE] |415| 
        ANDS      A1, A1, A2            ; [DPU_V7M3_PIPE] |415| 
        MOV       A2, #32752            ; [DPU_V7M3_PIPE] |415| 
        CMP       A2, A1                ; [DPU_V7M3_PIPE] |415| 
        BNE       ||$C$L46||            ; [DPU_V7M3_PIPE] |415| 
        ; BRANCHCC OCCURS {||$C$L46||}   ; [] |415| 
;* --------------------------------------------------------------------------*
	.dwpsn	file "/home/merdak/Apps/ti/ccs1020/ccs/tools/compiler/ti-cgt-arm_20.2.4.LTS/include/_defs.h",line 417,column 9,is_stmt,isa 1
;----------------------------------------------------------------------
; 417 | if (__DOUBLE_FRAC_PART_IS_ZERO(d))                                     
;----------------------------------------------------------------------
        LDMIA     SP, {A2,A3}           ; [DPU_V7M3_PIPE] |417| 
        MOV       A1, A3                ; [DPU_V7M3_PIPE] |417| 
        LDMIA     SP, {A3,A4}           ; [DPU_V7M3_PIPE] |417| 
        MOVS      A2, #0                ; [DPU_V7M3_PIPE] |417| 
        LSLS      A1, A1, #0            ; [DPU_V7M3_PIPE] |417| 
        ORRS      A2, A2, A1            ; [DPU_V7M3_PIPE] |417| 
        LDR       A1, $C$CON5           ; [DPU_V7M3_PIPE] |417| 
        MOVS      V1, #0                ; [DPU_V7M3_PIPE] |417| 
        MOV       A4, #-1               ; [DPU_V7M3_PIPE] |417| 
        ORRS      A3, A3, V1            ; [DPU_V7M3_PIPE] |417| 
        ANDS      A4, A4, A3            ; [DPU_V7M3_PIPE] |417| 
        ANDS      A1, A1, A2            ; [DPU_V7M3_PIPE] |417| 
        BNE       ||$C$L44||            ; [DPU_V7M3_PIPE] |417| 
        ; BRANCHCC OCCURS {||$C$L44||}   ; [] |417| 
;* --------------------------------------------------------------------------*
        CMP       A4, #0                ; [DPU_V7M3_PIPE] |417| 
;* --------------------------------------------------------------------------*
||$C$L44||:    
        BNE       ||$C$L45||            ; [DPU_V7M3_PIPE] |417| 
        ; BRANCHCC OCCURS {||$C$L45||}   ; [] |417| 
;* --------------------------------------------------------------------------*
	.dwpsn	file "/home/merdak/Apps/ti/ccs1020/ccs/tools/compiler/ti-cgt-arm_20.2.4.LTS/include/_defs.h",line 418,column 13,is_stmt,isa 1
;----------------------------------------------------------------------
; 418 | return __FP_INFINITE;                                                  
;----------------------------------------------------------------------
        MOVS      A1, #1                ; [DPU_V7M3_PIPE] |418| 
        B         ||$C$L51||            ; [DPU_V7M3_PIPE] |418| 
        ; BRANCH OCCURS {||$C$L51||}     ; [] |418| 
;* --------------------------------------------------------------------------*
||$C$L45||:    
	.dwpsn	file "/home/merdak/Apps/ti/ccs1020/ccs/tools/compiler/ti-cgt-arm_20.2.4.LTS/include/_defs.h",line 419,column 14,is_stmt,isa 1
;----------------------------------------------------------------------
; 419 | else return __FP_NAN;                                                  
;----------------------------------------------------------------------
        MOVS      A1, #2                ; [DPU_V7M3_PIPE] |419| 
        B         ||$C$L51||            ; [DPU_V7M3_PIPE] |419| 
        ; BRANCH OCCURS {||$C$L51||}     ; [] |419| 
;* --------------------------------------------------------------------------*
||$C$L46||:    
	.dwpsn	file "/home/merdak/Apps/ti/ccs1020/ccs/tools/compiler/ti-cgt-arm_20.2.4.LTS/include/_defs.h",line 421,column 5,is_stmt,isa 1
;----------------------------------------------------------------------
; 421 | if (__DOUBLE_BIASED_EXP_IS_ZERO(d))                                    
;----------------------------------------------------------------------
        LDMIA     SP, {A2,A3}           ; [DPU_V7M3_PIPE] |421| 
        MOV       A1, A3                ; [DPU_V7M3_PIPE] |421| 
        LSLS      A2, A1, #0            ; [DPU_V7M3_PIPE] |421| 
        MOVS      A1, #0                ; [DPU_V7M3_PIPE] |421| 
        MOVS      A3, #0                ; [DPU_V7M3_PIPE] |421| 
        ORRS      A1, A1, A2            ; [DPU_V7M3_PIPE] |421| 
        LSRS      A4, A1, #20           ; [DPU_V7M3_PIPE] |421| 
        MOV       A1, #2047             ; [DPU_V7M3_PIPE] |421| 
        MOV       A2, A1                ; [DPU_V7M3_PIPE] |421| 
        ASRS      A1, A1, #31           ; [DPU_V7M3_PIPE] |421| 
        ANDS      A2, A2, A4            ; [DPU_V7M3_PIPE] |421| 
        ANDS      A1, A1, A3            ; [DPU_V7M3_PIPE] |421| 
        BNE       ||$C$L47||            ; [DPU_V7M3_PIPE] |421| 
        ; BRANCHCC OCCURS {||$C$L47||}   ; [] |421| 
;* --------------------------------------------------------------------------*
        CMP       A2, #0                ; [DPU_V7M3_PIPE] |421| 
;* --------------------------------------------------------------------------*
||$C$L47||:    
        BNE       ||$C$L50||            ; [DPU_V7M3_PIPE] |421| 
        ; BRANCHCC OCCURS {||$C$L50||}   ; [] |421| 
;* --------------------------------------------------------------------------*
	.dwpsn	file "/home/merdak/Apps/ti/ccs1020/ccs/tools/compiler/ti-cgt-arm_20.2.4.LTS/include/_defs.h",line 423,column 9,is_stmt,isa 1
;----------------------------------------------------------------------
; 423 | if (__DOUBLE_FRAC_PART_IS_ZERO(d))                                     
;----------------------------------------------------------------------
        LDMIA     SP, {A2,A3}           ; [DPU_V7M3_PIPE] |423| 
        MOV       A1, A3                ; [DPU_V7M3_PIPE] |423| 
        LDMIA     SP, {A3,A4}           ; [DPU_V7M3_PIPE] |423| 
        MOVS      A2, #0                ; [DPU_V7M3_PIPE] |423| 
        LSLS      A1, A1, #0            ; [DPU_V7M3_PIPE] |423| 
        ORRS      A2, A2, A1            ; [DPU_V7M3_PIPE] |423| 
        LDR       A1, $C$CON5           ; [DPU_V7M3_PIPE] |423| 
        MOVS      V1, #0                ; [DPU_V7M3_PIPE] |423| 
        MOV       A4, #-1               ; [DPU_V7M3_PIPE] |423| 
        ORRS      A3, A3, V1            ; [DPU_V7M3_PIPE] |423| 
        ANDS      A4, A4, A3            ; [DPU_V7M3_PIPE] |423| 
        ANDS      A1, A1, A2            ; [DPU_V7M3_PIPE] |423| 
        BNE       ||$C$L48||            ; [DPU_V7M3_PIPE] |423| 
        ; BRANCHCC OCCURS {||$C$L48||}   ; [] |423| 
;* --------------------------------------------------------------------------*
        CMP       A4, #0                ; [DPU_V7M3_PIPE] |423| 
;* --------------------------------------------------------------------------*
||$C$L48||:    
        BNE       ||$C$L49||            ; [DPU_V7M3_PIPE] |423| 
        ; BRANCHCC OCCURS {||$C$L49||}   ; [] |423| 
;* --------------------------------------------------------------------------*
	.dwpsn	file "/home/merdak/Apps/ti/ccs1020/ccs/tools/compiler/ti-cgt-arm_20.2.4.LTS/include/_defs.h",line 424,column 13,is_stmt,isa 1
;----------------------------------------------------------------------
; 424 | return __FP_ZERO;                                                      
;----------------------------------------------------------------------
        MOVS      A1, #0                ; [DPU_V7M3_PIPE] |424| 
        B         ||$C$L51||            ; [DPU_V7M3_PIPE] |424| 
        ; BRANCH OCCURS {||$C$L51||}     ; [] |424| 
;* --------------------------------------------------------------------------*
||$C$L49||:    
	.dwpsn	file "/home/merdak/Apps/ti/ccs1020/ccs/tools/compiler/ti-cgt-arm_20.2.4.LTS/include/_defs.h",line 425,column 14,is_stmt,isa 1
;----------------------------------------------------------------------
; 425 | else return __FP_SUBNORMAL;                                            
;----------------------------------------------------------------------
        MVN       A1, #1                ; [DPU_V7M3_PIPE] |425| 
        B         ||$C$L51||            ; [DPU_V7M3_PIPE] |425| 
        ; BRANCH OCCURS {||$C$L51||}     ; [] |425| 
;* --------------------------------------------------------------------------*
||$C$L50||:    
	.dwpsn	file "/home/merdak/Apps/ti/ccs1020/ccs/tools/compiler/ti-cgt-arm_20.2.4.LTS/include/_defs.h",line 427,column 5,is_stmt,isa 1
;----------------------------------------------------------------------
; 427 | return __FP_NORMAL;                                                    
;----------------------------------------------------------------------
        MOV       A1, #-1               ; [DPU_V7M3_PIPE] |427| 
;* --------------------------------------------------------------------------*
||$C$L51||:    
	.dwpsn	file "/home/merdak/Apps/ti/ccs1020/ccs/tools/compiler/ti-cgt-arm_20.2.4.LTS/include/_defs.h",line 428,column 1,is_stmt,isa 1
$C$DW$93	.dwtag  DW_TAG_TI_branch
	.dwattr $C$DW$93, DW_AT_low_pc(0x00)
	.dwattr $C$DW$93, DW_AT_TI_return

        POP       {A3, A4, V1, PC}      ; [DPU_V7M3_PIPE] 
	.dwcfi	cfa_offset, 0
	.dwcfi	restore_reg, 4
	.dwcfi	restore_reg, 3
	.dwcfi	restore_reg, 2
        ; BRANCH OCCURS                  ; [] 
	.dwattr $C$DW$90, DW_AT_TI_end_file("/home/merdak/Apps/ti/ccs1020/ccs/tools/compiler/ti-cgt-arm_20.2.4.LTS/include/_defs.h")
	.dwattr $C$DW$90, DW_AT_TI_end_line(0x1ac)
	.dwattr $C$DW$90, DW_AT_TI_end_column(0x01)
	.dwendentry
	.dwendtag $C$DW$90

	.sect	".text:__fpclassifyl"
	.clink
	.thumbfunc __fpclassifyl
	.thumb
	.global	__fpclassifyl

$C$DW$94	.dwtag  DW_TAG_subprogram
	.dwattr $C$DW$94, DW_AT_name("__fpclassifyl")
	.dwattr $C$DW$94, DW_AT_low_pc(__fpclassifyl)
	.dwattr $C$DW$94, DW_AT_high_pc(0x00)
	.dwattr $C$DW$94, DW_AT_TI_symbol_name("__fpclassifyl")
	.dwattr $C$DW$94, DW_AT_external
	.dwattr $C$DW$94, DW_AT_type(*$C$DW$T$10)
	.dwattr $C$DW$94, DW_AT_TI_begin_file("/home/merdak/Apps/ti/ccs1020/ccs/tools/compiler/ti-cgt-arm_20.2.4.LTS/include/_defs.h")
	.dwattr $C$DW$94, DW_AT_TI_begin_line(0x1ae)
	.dwattr $C$DW$94, DW_AT_TI_begin_column(0x25)
	.dwattr $C$DW$94, DW_AT_decl_file("/home/merdak/Apps/ti/ccs1020/ccs/tools/compiler/ti-cgt-arm_20.2.4.LTS/include/_defs.h")
	.dwattr $C$DW$94, DW_AT_decl_line(0x1ae)
	.dwattr $C$DW$94, DW_AT_decl_column(0x25)
	.dwattr $C$DW$94, DW_AT_TI_max_frame_size(0x10)
	.dwpsn	file "/home/merdak/Apps/ti/ccs1020/ccs/tools/compiler/ti-cgt-arm_20.2.4.LTS/include/_defs.h",line 431,column 1,is_stmt,address __fpclassifyl,isa 1

	.dwfde $C$DW$CIE, __fpclassifyl
$C$DW$95	.dwtag  DW_TAG_formal_parameter
	.dwattr $C$DW$95, DW_AT_name("e")
	.dwattr $C$DW$95, DW_AT_TI_symbol_name("e")
	.dwattr $C$DW$95, DW_AT_type(*$C$DW$T$18)
	.dwattr $C$DW$95, DW_AT_location[DW_OP_reg0]

;----------------------------------------------------------------------
; 430 | _CODE_ACCESS _INLINE_DEFINITION int __fpclassifyl(long double e)       
;----------------------------------------------------------------------

;*****************************************************************************
;* FUNCTION NAME: __fpclassifyl                                              *
;*                                                                           *
;*   Regs Modified     : A1,A2,A3,A4,V1,SP,SR                                *
;*   Regs Used         : A1,A2,A3,A4,V1,SP,LR,SR                             *
;*   Local Frame Size  : 0 Args + 8 Auto + 8 Save = 16 byte                  *
;*****************************************************************************
__fpclassifyl:
;* --------------------------------------------------------------------------*
	.dwcfi	cfa_offset, 0
        PUSH      {A3, A4, V1, LR}      ; [DPU_V7M3_PIPE] 
	.dwcfi	cfa_offset, 16
	.dwcfi	save_reg_to_mem, 14, -4
	.dwcfi	save_reg_to_mem, 4, -8
	.dwcfi	save_reg_to_mem, 3, -12
	.dwcfi	save_reg_to_mem, 2, -16
$C$DW$96	.dwtag  DW_TAG_variable
	.dwattr $C$DW$96, DW_AT_name("e")
	.dwattr $C$DW$96, DW_AT_TI_symbol_name("e")
	.dwattr $C$DW$96, DW_AT_type(*$C$DW$T$18)
	.dwattr $C$DW$96, DW_AT_location[DW_OP_breg13 0]

        STMIA     SP, {A1,A2}           ; [DPU_V7M3_PIPE] |431| 
	.dwpsn	file "/home/merdak/Apps/ti/ccs1020/ccs/tools/compiler/ti-cgt-arm_20.2.4.LTS/include/_defs.h",line 432,column 5,is_stmt,isa 1
;----------------------------------------------------------------------
; 432 | if (__LDOUBLE_BIASED_EXP_IS_MAX(e))                                    
;----------------------------------------------------------------------
        LDMIA     SP, {A2,A3}           ; [DPU_V7M3_PIPE] |432| 
        MOV       A1, A3                ; [DPU_V7M3_PIPE] |432| 
        LSLS      A2, A1, #0            ; [DPU_V7M3_PIPE] |432| 
        MOVS      A1, #0                ; [DPU_V7M3_PIPE] |432| 
        ORRS      A1, A1, A2            ; [DPU_V7M3_PIPE] |432| 
        LSRS      A2, A1, #16           ; [DPU_V7M3_PIPE] |432| 
        MOV       A1, #32752            ; [DPU_V7M3_PIPE] |432| 
        ANDS      A1, A1, A2            ; [DPU_V7M3_PIPE] |432| 
        MOV       A2, #32752            ; [DPU_V7M3_PIPE] |432| 
        CMP       A2, A1                ; [DPU_V7M3_PIPE] |432| 
        BNE       ||$C$L54||            ; [DPU_V7M3_PIPE] |432| 
        ; BRANCHCC OCCURS {||$C$L54||}   ; [] |432| 
;* --------------------------------------------------------------------------*
	.dwpsn	file "/home/merdak/Apps/ti/ccs1020/ccs/tools/compiler/ti-cgt-arm_20.2.4.LTS/include/_defs.h",line 434,column 9,is_stmt,isa 1
;----------------------------------------------------------------------
; 434 | if (__LDOUBLE_FRAC_PART_IS_ZERO(e))                                    
;----------------------------------------------------------------------
        LDMIA     SP, {A2,A3}           ; [DPU_V7M3_PIPE] |434| 
        MOV       A1, A3                ; [DPU_V7M3_PIPE] |434| 
        LDMIA     SP, {A3,A4}           ; [DPU_V7M3_PIPE] |434| 
        MOVS      A2, #0                ; [DPU_V7M3_PIPE] |434| 
        LSLS      A1, A1, #0            ; [DPU_V7M3_PIPE] |434| 
        ORRS      A2, A2, A1            ; [DPU_V7M3_PIPE] |434| 
        LDR       A1, $C$CON6           ; [DPU_V7M3_PIPE] |434| 
        MOVS      V1, #0                ; [DPU_V7M3_PIPE] |434| 
        MOV       A4, #-1               ; [DPU_V7M3_PIPE] |434| 
        ORRS      A3, A3, V1            ; [DPU_V7M3_PIPE] |434| 
        ANDS      A4, A4, A3            ; [DPU_V7M3_PIPE] |434| 
        ANDS      A1, A1, A2            ; [DPU_V7M3_PIPE] |434| 
        BNE       ||$C$L52||            ; [DPU_V7M3_PIPE] |434| 
        ; BRANCHCC OCCURS {||$C$L52||}   ; [] |434| 
;* --------------------------------------------------------------------------*
        CMP       A4, #0                ; [DPU_V7M3_PIPE] |434| 
;* --------------------------------------------------------------------------*
||$C$L52||:    
        BNE       ||$C$L53||            ; [DPU_V7M3_PIPE] |434| 
        ; BRANCHCC OCCURS {||$C$L53||}   ; [] |434| 
;* --------------------------------------------------------------------------*
	.dwpsn	file "/home/merdak/Apps/ti/ccs1020/ccs/tools/compiler/ti-cgt-arm_20.2.4.LTS/include/_defs.h",line 435,column 13,is_stmt,isa 1
;----------------------------------------------------------------------
; 435 | return __FP_INFINITE;                                                  
;----------------------------------------------------------------------
        MOVS      A1, #1                ; [DPU_V7M3_PIPE] |435| 
        B         ||$C$L59||            ; [DPU_V7M3_PIPE] |435| 
        ; BRANCH OCCURS {||$C$L59||}     ; [] |435| 
;* --------------------------------------------------------------------------*
||$C$L53||:    
	.dwpsn	file "/home/merdak/Apps/ti/ccs1020/ccs/tools/compiler/ti-cgt-arm_20.2.4.LTS/include/_defs.h",line 436,column 14,is_stmt,isa 1
;----------------------------------------------------------------------
; 436 | else return __FP_NAN;                                                  
;----------------------------------------------------------------------
        MOVS      A1, #2                ; [DPU_V7M3_PIPE] |436| 
        B         ||$C$L59||            ; [DPU_V7M3_PIPE] |436| 
        ; BRANCH OCCURS {||$C$L59||}     ; [] |436| 
;* --------------------------------------------------------------------------*
||$C$L54||:    
	.dwpsn	file "/home/merdak/Apps/ti/ccs1020/ccs/tools/compiler/ti-cgt-arm_20.2.4.LTS/include/_defs.h",line 438,column 5,is_stmt,isa 1
;----------------------------------------------------------------------
; 438 | if (__LDOUBLE_BIASED_EXP_IS_ZERO(e))                                   
;----------------------------------------------------------------------
        LDMIA     SP, {A2,A3}           ; [DPU_V7M3_PIPE] |438| 
        MOV       A1, A3                ; [DPU_V7M3_PIPE] |438| 
        LSLS      A2, A1, #0            ; [DPU_V7M3_PIPE] |438| 
        MOVS      A1, #0                ; [DPU_V7M3_PIPE] |438| 
        MOVS      A3, #0                ; [DPU_V7M3_PIPE] |438| 
        ORRS      A1, A1, A2            ; [DPU_V7M3_PIPE] |438| 
        LSRS      A4, A1, #20           ; [DPU_V7M3_PIPE] |438| 
        MOV       A1, #2047             ; [DPU_V7M3_PIPE] |438| 
        MOV       A2, A1                ; [DPU_V7M3_PIPE] |438| 
        ASRS      A1, A1, #31           ; [DPU_V7M3_PIPE] |438| 
        ANDS      A2, A2, A4            ; [DPU_V7M3_PIPE] |438| 
        ANDS      A1, A1, A3            ; [DPU_V7M3_PIPE] |438| 
        BNE       ||$C$L55||            ; [DPU_V7M3_PIPE] |438| 
        ; BRANCHCC OCCURS {||$C$L55||}   ; [] |438| 
;* --------------------------------------------------------------------------*
        CMP       A2, #0                ; [DPU_V7M3_PIPE] |438| 
;* --------------------------------------------------------------------------*
||$C$L55||:    
        BNE       ||$C$L58||            ; [DPU_V7M3_PIPE] |438| 
        ; BRANCHCC OCCURS {||$C$L58||}   ; [] |438| 
;* --------------------------------------------------------------------------*
	.dwpsn	file "/home/merdak/Apps/ti/ccs1020/ccs/tools/compiler/ti-cgt-arm_20.2.4.LTS/include/_defs.h",line 440,column 9,is_stmt,isa 1
;----------------------------------------------------------------------
; 440 | if (__LDOUBLE_FRAC_PART_IS_ZERO(e))                                    
;----------------------------------------------------------------------
        LDMIA     SP, {A2,A3}           ; [DPU_V7M3_PIPE] |440| 
        MOV       A1, A3                ; [DPU_V7M3_PIPE] |440| 
        LDMIA     SP, {A3,A4}           ; [DPU_V7M3_PIPE] |440| 
        MOVS      A2, #0                ; [DPU_V7M3_PIPE] |440| 
        LSLS      A1, A1, #0            ; [DPU_V7M3_PIPE] |440| 
        ORRS      A2, A2, A1            ; [DPU_V7M3_PIPE] |440| 
        LDR       A1, $C$CON6           ; [DPU_V7M3_PIPE] |440| 
        MOVS      V1, #0                ; [DPU_V7M3_PIPE] |440| 
        MOV       A4, #-1               ; [DPU_V7M3_PIPE] |440| 
        ORRS      A3, A3, V1            ; [DPU_V7M3_PIPE] |440| 
        ANDS      A4, A4, A3            ; [DPU_V7M3_PIPE] |440| 
        ANDS      A1, A1, A2            ; [DPU_V7M3_PIPE] |440| 
        BNE       ||$C$L56||            ; [DPU_V7M3_PIPE] |440| 
        ; BRANCHCC OCCURS {||$C$L56||}   ; [] |440| 
;* --------------------------------------------------------------------------*
        CMP       A4, #0                ; [DPU_V7M3_PIPE] |440| 
;* --------------------------------------------------------------------------*
||$C$L56||:    
        BNE       ||$C$L57||            ; [DPU_V7M3_PIPE] |440| 
        ; BRANCHCC OCCURS {||$C$L57||}   ; [] |440| 
;* --------------------------------------------------------------------------*
	.dwpsn	file "/home/merdak/Apps/ti/ccs1020/ccs/tools/compiler/ti-cgt-arm_20.2.4.LTS/include/_defs.h",line 441,column 13,is_stmt,isa 1
;----------------------------------------------------------------------
; 441 | return __FP_ZERO;                                                      
;----------------------------------------------------------------------
        MOVS      A1, #0                ; [DPU_V7M3_PIPE] |441| 
        B         ||$C$L59||            ; [DPU_V7M3_PIPE] |441| 
        ; BRANCH OCCURS {||$C$L59||}     ; [] |441| 
;* --------------------------------------------------------------------------*
||$C$L57||:    
	.dwpsn	file "/home/merdak/Apps/ti/ccs1020/ccs/tools/compiler/ti-cgt-arm_20.2.4.LTS/include/_defs.h",line 442,column 14,is_stmt,isa 1
;----------------------------------------------------------------------
; 442 | else return __FP_SUBNORMAL;                                            
;----------------------------------------------------------------------
        MVN       A1, #1                ; [DPU_V7M3_PIPE] |442| 
        B         ||$C$L59||            ; [DPU_V7M3_PIPE] |442| 
        ; BRANCH OCCURS {||$C$L59||}     ; [] |442| 
;* --------------------------------------------------------------------------*
||$C$L58||:    
	.dwpsn	file "/home/merdak/Apps/ti/ccs1020/ccs/tools/compiler/ti-cgt-arm_20.2.4.LTS/include/_defs.h",line 444,column 5,is_stmt,isa 1
;----------------------------------------------------------------------
; 444 | return __FP_NORMAL;                                                    
;----------------------------------------------------------------------
        MOV       A1, #-1               ; [DPU_V7M3_PIPE] |444| 
;* --------------------------------------------------------------------------*
||$C$L59||:    
	.dwpsn	file "/home/merdak/Apps/ti/ccs1020/ccs/tools/compiler/ti-cgt-arm_20.2.4.LTS/include/_defs.h",line 445,column 1,is_stmt,isa 1
$C$DW$97	.dwtag  DW_TAG_TI_branch
	.dwattr $C$DW$97, DW_AT_low_pc(0x00)
	.dwattr $C$DW$97, DW_AT_TI_return

        POP       {A3, A4, V1, PC}      ; [DPU_V7M3_PIPE] 
	.dwcfi	cfa_offset, 0
	.dwcfi	restore_reg, 4
	.dwcfi	restore_reg, 3
	.dwcfi	restore_reg, 2
        ; BRANCH OCCURS                  ; [] 
	.dwattr $C$DW$94, DW_AT_TI_end_file("/home/merdak/Apps/ti/ccs1020/ccs/tools/compiler/ti-cgt-arm_20.2.4.LTS/include/_defs.h")
	.dwattr $C$DW$94, DW_AT_TI_end_line(0x1bd)
	.dwattr $C$DW$94, DW_AT_TI_end_column(0x01)
	.dwendentry
	.dwendtag $C$DW$94

	.sect	".text:set_int_enable"
	.clink
	.thumbfunc set_int_enable
	.thumb
	.global	set_int_enable

$C$DW$98	.dwtag  DW_TAG_subprogram
	.dwattr $C$DW$98, DW_AT_name("set_int_enable")
	.dwattr $C$DW$98, DW_AT_low_pc(set_int_enable)
	.dwattr $C$DW$98, DW_AT_high_pc(0x00)
	.dwattr $C$DW$98, DW_AT_TI_symbol_name("set_int_enable")
	.dwattr $C$DW$98, DW_AT_external
	.dwattr $C$DW$98, DW_AT_type(*$C$DW$T$10)
	.dwattr $C$DW$98, DW_AT_TI_begin_file("../MPU9250/inv_mpu.c")
	.dwattr $C$DW$98, DW_AT_TI_begin_line(0x23d)
	.dwattr $C$DW$98, DW_AT_TI_begin_column(0x05)
	.dwattr $C$DW$98, DW_AT_decl_file("../MPU9250/inv_mpu.c")
	.dwattr $C$DW$98, DW_AT_decl_line(0x23d)
	.dwattr $C$DW$98, DW_AT_decl_column(0x05)
	.dwattr $C$DW$98, DW_AT_TI_max_frame_size(0x08)
	.dwpsn	file "../MPU9250/inv_mpu.c",line 574,column 1,is_stmt,address set_int_enable,isa 1

	.dwfde $C$DW$CIE, set_int_enable
$C$DW$99	.dwtag  DW_TAG_formal_parameter
	.dwattr $C$DW$99, DW_AT_name("enable")
	.dwattr $C$DW$99, DW_AT_TI_symbol_name("enable")
	.dwattr $C$DW$99, DW_AT_type(*$C$DW$T$10)
	.dwattr $C$DW$99, DW_AT_location[DW_OP_reg0]

;----------------------------------------------------------------------
; 573 | int set_int_enable(unsigned char enable)                               
;----------------------------------------------------------------------

;*****************************************************************************
;* FUNCTION NAME: set_int_enable                                             *
;*                                                                           *
;*   Regs Modified     : A1,A2,A3,A4,V9,SP,LR,SR                             *
;*   Regs Used         : A1,A2,A3,A4,V9,SP,LR,SR                             *
;*   Local Frame Size  : 0 Args + 4 Auto + 4 Save = 8 byte                   *
;*****************************************************************************
set_int_enable:
;* --------------------------------------------------------------------------*
	.dwcfi	cfa_offset, 0
        PUSH      {A4, LR}              ; [DPU_V7M3_PIPE] 
	.dwcfi	cfa_offset, 8
	.dwcfi	save_reg_to_mem, 14, -4
	.dwcfi	save_reg_to_mem, 3, -8
$C$DW$100	.dwtag  DW_TAG_variable
	.dwattr $C$DW$100, DW_AT_name("enable")
	.dwattr $C$DW$100, DW_AT_TI_symbol_name("enable")
	.dwattr $C$DW$100, DW_AT_type(*$C$DW$T$6)
	.dwattr $C$DW$100, DW_AT_location[DW_OP_breg13 0]

$C$DW$101	.dwtag  DW_TAG_variable
	.dwattr $C$DW$101, DW_AT_name("tmp")
	.dwattr $C$DW$101, DW_AT_TI_symbol_name("tmp")
	.dwattr $C$DW$101, DW_AT_type(*$C$DW$T$6)
	.dwattr $C$DW$101, DW_AT_location[DW_OP_breg13 1]

;----------------------------------------------------------------------
; 575 | unsigned char tmp;                                                     
;----------------------------------------------------------------------
        STRB      A1, [SP, #0]          ; [DPU_V7M3_PIPE] |574| 
	.dwpsn	file "../MPU9250/inv_mpu.c",line 577,column 5,is_stmt,isa 1
;----------------------------------------------------------------------
; 577 | if (st.chip_cfg.dmp_on) {                                              
;----------------------------------------------------------------------
        LDR       A1, $C$CON7           ; [DPU_V7M3_PIPE] |577| 
        LDRB      A1, [A1, #0]          ; [DPU_V7M3_PIPE] |577| 
        CBZ       A1, ||$C$L63||        ; [] 
        ; BRANCHCC OCCURS {||$C$L63||}   ; [] |577| 
;* --------------------------------------------------------------------------*
	.dwpsn	file "../MPU9250/inv_mpu.c",line 578,column 9,is_stmt,isa 1
;----------------------------------------------------------------------
; 578 | if (enable)                                                            
;----------------------------------------------------------------------
        LDRB      A1, [SP, #0]          ; [DPU_V7M3_PIPE] |578| 
        CBZ       A1, ||$C$L60||        ; [] 
        ; BRANCHCC OCCURS {||$C$L60||}   ; [] |578| 
;* --------------------------------------------------------------------------*
	.dwpsn	file "../MPU9250/inv_mpu.c",line 579,column 13,is_stmt,isa 1
;----------------------------------------------------------------------
; 579 | tmp = BIT_DMP_INT_EN;                                                  
; 580 | else                                                                   
;----------------------------------------------------------------------
        MOVS      A1, #2                ; [DPU_V7M3_PIPE] |579| 
        STRB      A1, [SP, #1]          ; [DPU_V7M3_PIPE] |579| 
        B         ||$C$L61||            ; [DPU_V7M3_PIPE] 
        ; BRANCH OCCURS {||$C$L61||}     ; [] 
;* --------------------------------------------------------------------------*
||$C$L60||:    
	.dwpsn	file "../MPU9250/inv_mpu.c",line 581,column 13,is_stmt,isa 1
;----------------------------------------------------------------------
; 581 | tmp = 0x00;                                                            
;----------------------------------------------------------------------
        MOVS      A1, #0                ; [DPU_V7M3_PIPE] |581| 
        STRB      A1, [SP, #1]          ; [DPU_V7M3_PIPE] |581| 
;* --------------------------------------------------------------------------*
||$C$L61||:    
	.dwpsn	file "../MPU9250/inv_mpu.c",line 582,column 9,is_stmt,isa 1
;----------------------------------------------------------------------
; 582 | if (i2c_write(st.hw->addr, st.reg->int_enable, 1, &tmp))               
;----------------------------------------------------------------------
        LDR       A1, $C$CON8           ; [DPU_V7M3_PIPE] |582| 
        LDR       A1, [A1, #0]          ; [DPU_V7M3_PIPE] |582| 
        LDRB      A1, [A1, #17]         ; [DPU_V7M3_PIPE] |582| 
        MOVS      A2, #1                ; [DPU_V7M3_PIPE] |582| 
        ADD       A3, SP, #1            ; [DPU_V7M3_PIPE] |582| 
$C$DW$102	.dwtag  DW_TAG_TI_branch
	.dwattr $C$DW$102, DW_AT_low_pc(0x00)
	.dwattr $C$DW$102, DW_AT_name("WR_MPU")
	.dwattr $C$DW$102, DW_AT_TI_call

        BL        WR_MPU                ; [DPU_V7M3_PIPE] |582| 
        ; CALL OCCURS {WR_MPU }          ; [] |582| 
        CBZ       A1, ||$C$L62||        ; [] 
        ; BRANCHCC OCCURS {||$C$L62||}   ; [] |582| 
;* --------------------------------------------------------------------------*
	.dwpsn	file "../MPU9250/inv_mpu.c",line 583,column 13,is_stmt,isa 1
;----------------------------------------------------------------------
; 583 | return -1;                                                             
;----------------------------------------------------------------------
        MOV       A1, #-1               ; [DPU_V7M3_PIPE] |583| 
        B         ||$C$L70||            ; [DPU_V7M3_PIPE] |583| 
        ; BRANCH OCCURS {||$C$L70||}     ; [] |583| 
;* --------------------------------------------------------------------------*
||$C$L62||:    
	.dwpsn	file "../MPU9250/inv_mpu.c",line 584,column 9,is_stmt,isa 1
;----------------------------------------------------------------------
; 584 | st.chip_cfg.int_enable = tmp;                                          
; 585 | } else {                                                               
;----------------------------------------------------------------------
        LDRB      A1, [SP, #1]          ; [DPU_V7M3_PIPE] |584| 
        LDR       A2, $C$CON9           ; [DPU_V7M3_PIPE] |584| 
        STRB      A1, [A2, #0]          ; [DPU_V7M3_PIPE] |584| 
        B         ||$C$L69||            ; [DPU_V7M3_PIPE] 
        ; BRANCH OCCURS {||$C$L69||}     ; [] 
;* --------------------------------------------------------------------------*
||$C$L63||:    
	.dwpsn	file "../MPU9250/inv_mpu.c",line 586,column 9,is_stmt,isa 1
;----------------------------------------------------------------------
; 586 | if (!st.chip_cfg.sensors)                                              
;----------------------------------------------------------------------
        LDR       A1, $C$CON10          ; [DPU_V7M3_PIPE] |586| 
        LDRB      A1, [A1, #0]          ; [DPU_V7M3_PIPE] |586| 
        CBNZ      A1, ||$C$L64||        ; [] 
        ; BRANCHCC OCCURS {||$C$L64||}   ; [] |586| 
;* --------------------------------------------------------------------------*
	.dwpsn	file "../MPU9250/inv_mpu.c",line 587,column 13,is_stmt,isa 1
;----------------------------------------------------------------------
; 587 | return -1;                                                             
;----------------------------------------------------------------------
        MOV       A1, #-1               ; [DPU_V7M3_PIPE] |587| 
        B         ||$C$L70||            ; [DPU_V7M3_PIPE] |587| 
        ; BRANCH OCCURS {||$C$L70||}     ; [] |587| 
;* --------------------------------------------------------------------------*
||$C$L64||:    
	.dwpsn	file "../MPU9250/inv_mpu.c",line 588,column 9,is_stmt,isa 1
;----------------------------------------------------------------------
; 588 | if (enable && st.chip_cfg.int_enable)                                  
;----------------------------------------------------------------------
        LDRB      A1, [SP, #0]          ; [DPU_V7M3_PIPE] |588| 
        CBZ       A1, ||$C$L65||        ; [] 
        ; BRANCHCC OCCURS {||$C$L65||}   ; [] |588| 
;* --------------------------------------------------------------------------*
        LDR       A1, $C$CON9           ; [DPU_V7M3_PIPE] |588| 
        LDRB      A1, [A1, #0]          ; [DPU_V7M3_PIPE] |588| 
        CBZ       A1, ||$C$L65||        ; [] 
        ; BRANCHCC OCCURS {||$C$L65||}   ; [] |588| 
;* --------------------------------------------------------------------------*
	.dwpsn	file "../MPU9250/inv_mpu.c",line 589,column 13,is_stmt,isa 1
;----------------------------------------------------------------------
; 589 | return 0;                                                              
;----------------------------------------------------------------------
        MOVS      A1, #0                ; [DPU_V7M3_PIPE] |589| 
        B         ||$C$L70||            ; [DPU_V7M3_PIPE] |589| 
        ; BRANCH OCCURS {||$C$L70||}     ; [] |589| 
;* --------------------------------------------------------------------------*
||$C$L65||:    
	.dwpsn	file "../MPU9250/inv_mpu.c",line 590,column 9,is_stmt,isa 1
;----------------------------------------------------------------------
; 590 | if (enable)                                                            
;----------------------------------------------------------------------
        LDRB      A1, [SP, #0]          ; [DPU_V7M3_PIPE] |590| 
        CBZ       A1, ||$C$L66||        ; [] 
        ; BRANCHCC OCCURS {||$C$L66||}   ; [] |590| 
;* --------------------------------------------------------------------------*
	.dwpsn	file "../MPU9250/inv_mpu.c",line 591,column 13,is_stmt,isa 1
;----------------------------------------------------------------------
; 591 | tmp = BIT_DATA_RDY_EN;                                                 
; 592 | else                                                                   
;----------------------------------------------------------------------
        MOVS      A1, #1                ; [DPU_V7M3_PIPE] |591| 
        STRB      A1, [SP, #1]          ; [DPU_V7M3_PIPE] |591| 
        B         ||$C$L67||            ; [DPU_V7M3_PIPE] 
        ; BRANCH OCCURS {||$C$L67||}     ; [] 
;* --------------------------------------------------------------------------*
||$C$L66||:    
	.dwpsn	file "../MPU9250/inv_mpu.c",line 593,column 13,is_stmt,isa 1
;----------------------------------------------------------------------
; 593 | tmp = 0x00;                                                            
;----------------------------------------------------------------------
        MOVS      A1, #0                ; [DPU_V7M3_PIPE] |593| 
        STRB      A1, [SP, #1]          ; [DPU_V7M3_PIPE] |593| 
;* --------------------------------------------------------------------------*
||$C$L67||:    
	.dwpsn	file "../MPU9250/inv_mpu.c",line 594,column 9,is_stmt,isa 1
;----------------------------------------------------------------------
; 594 | if (i2c_write(st.hw->addr, st.reg->int_enable, 1, &tmp))               
;----------------------------------------------------------------------
        LDR       A1, $C$CON8           ; [DPU_V7M3_PIPE] |594| 
        LDR       A1, [A1, #0]          ; [DPU_V7M3_PIPE] |594| 
        LDRB      A1, [A1, #17]         ; [DPU_V7M3_PIPE] |594| 
        MOVS      A2, #1                ; [DPU_V7M3_PIPE] |594| 
        ADD       A3, SP, #1            ; [DPU_V7M3_PIPE] |594| 
$C$DW$103	.dwtag  DW_TAG_TI_branch
	.dwattr $C$DW$103, DW_AT_low_pc(0x00)
	.dwattr $C$DW$103, DW_AT_name("WR_MPU")
	.dwattr $C$DW$103, DW_AT_TI_call

        BL        WR_MPU                ; [DPU_V7M3_PIPE] |594| 
        ; CALL OCCURS {WR_MPU }          ; [] |594| 
        CBZ       A1, ||$C$L68||        ; [] 
        ; BRANCHCC OCCURS {||$C$L68||}   ; [] |594| 
;* --------------------------------------------------------------------------*
	.dwpsn	file "../MPU9250/inv_mpu.c",line 595,column 13,is_stmt,isa 1
;----------------------------------------------------------------------
; 595 | return -1;                                                             
;----------------------------------------------------------------------
        MOV       A1, #-1               ; [DPU_V7M3_PIPE] |595| 
        B         ||$C$L70||            ; [DPU_V7M3_PIPE] |595| 
        ; BRANCH OCCURS {||$C$L70||}     ; [] |595| 
;* --------------------------------------------------------------------------*
||$C$L68||:    
	.dwpsn	file "../MPU9250/inv_mpu.c",line 596,column 9,is_stmt,isa 1
;----------------------------------------------------------------------
; 596 | st.chip_cfg.int_enable = tmp;                                          
;----------------------------------------------------------------------
        LDRB      A1, [SP, #1]          ; [DPU_V7M3_PIPE] |596| 
        LDR       A2, $C$CON9           ; [DPU_V7M3_PIPE] |596| 
        STRB      A1, [A2, #0]          ; [DPU_V7M3_PIPE] |596| 
;* --------------------------------------------------------------------------*
||$C$L69||:    
	.dwpsn	file "../MPU9250/inv_mpu.c",line 598,column 5,is_stmt,isa 1
;----------------------------------------------------------------------
; 598 | return 0;                                                              
;----------------------------------------------------------------------
        MOVS      A1, #0                ; [DPU_V7M3_PIPE] |598| 
;* --------------------------------------------------------------------------*
||$C$L70||:    
	.dwpsn	file "../MPU9250/inv_mpu.c",line 599,column 1,is_stmt,isa 1
$C$DW$104	.dwtag  DW_TAG_TI_branch
	.dwattr $C$DW$104, DW_AT_low_pc(0x00)
	.dwattr $C$DW$104, DW_AT_TI_return

        POP       {A4, PC}              ; [DPU_V7M3_PIPE] 
	.dwcfi	cfa_offset, 0
	.dwcfi	restore_reg, 3
        ; BRANCH OCCURS                  ; [] 
	.dwattr $C$DW$98, DW_AT_TI_end_file("../MPU9250/inv_mpu.c")
	.dwattr $C$DW$98, DW_AT_TI_end_line(0x257)
	.dwattr $C$DW$98, DW_AT_TI_end_column(0x01)
	.dwendentry
	.dwendtag $C$DW$98

	.sect	".text:mpu_reg_dump"
	.clink
	.thumbfunc mpu_reg_dump
	.thumb
	.global	mpu_reg_dump

$C$DW$105	.dwtag  DW_TAG_subprogram
	.dwattr $C$DW$105, DW_AT_name("mpu_reg_dump")
	.dwattr $C$DW$105, DW_AT_low_pc(mpu_reg_dump)
	.dwattr $C$DW$105, DW_AT_high_pc(0x00)
	.dwattr $C$DW$105, DW_AT_TI_symbol_name("mpu_reg_dump")
	.dwattr $C$DW$105, DW_AT_external
	.dwattr $C$DW$105, DW_AT_type(*$C$DW$T$10)
	.dwattr $C$DW$105, DW_AT_TI_begin_file("../MPU9250/inv_mpu.c")
	.dwattr $C$DW$105, DW_AT_TI_begin_line(0x25d)
	.dwattr $C$DW$105, DW_AT_TI_begin_column(0x05)
	.dwattr $C$DW$105, DW_AT_decl_file("../MPU9250/inv_mpu.c")
	.dwattr $C$DW$105, DW_AT_decl_line(0x25d)
	.dwattr $C$DW$105, DW_AT_decl_column(0x05)
	.dwattr $C$DW$105, DW_AT_TI_max_frame_size(0x08)
	.dwpsn	file "../MPU9250/inv_mpu.c",line 606,column 1,is_stmt,address mpu_reg_dump,isa 1

	.dwfde $C$DW$CIE, mpu_reg_dump
;----------------------------------------------------------------------
; 605 | int mpu_reg_dump(void)                                                 
; 607 | unsigned char ii;                                                      
; 608 | unsigned char data;                                                    
;----------------------------------------------------------------------

;*****************************************************************************
;* FUNCTION NAME: mpu_reg_dump                                               *
;*                                                                           *
;*   Regs Modified     : A1,A2,A3,A4,V9,SP,LR,SR                             *
;*   Regs Used         : A1,A2,A3,A4,V9,SP,LR,SR                             *
;*   Local Frame Size  : 0 Args + 4 Auto + 4 Save = 8 byte                   *
;*****************************************************************************
mpu_reg_dump:
;* --------------------------------------------------------------------------*
	.dwcfi	cfa_offset, 0
        PUSH      {A4, LR}              ; [DPU_V7M3_PIPE] 
	.dwcfi	cfa_offset, 8
	.dwcfi	save_reg_to_mem, 14, -4
	.dwcfi	save_reg_to_mem, 3, -8
$C$DW$106	.dwtag  DW_TAG_variable
	.dwattr $C$DW$106, DW_AT_name("ii")
	.dwattr $C$DW$106, DW_AT_TI_symbol_name("ii")
	.dwattr $C$DW$106, DW_AT_type(*$C$DW$T$6)
	.dwattr $C$DW$106, DW_AT_location[DW_OP_breg13 0]

$C$DW$107	.dwtag  DW_TAG_variable
	.dwattr $C$DW$107, DW_AT_name("data")
	.dwattr $C$DW$107, DW_AT_TI_symbol_name("data")
	.dwattr $C$DW$107, DW_AT_type(*$C$DW$T$6)
	.dwattr $C$DW$107, DW_AT_location[DW_OP_breg13 1]

	.dwpsn	file "../MPU9250/inv_mpu.c",line 610,column 10,is_stmt,isa 1
;----------------------------------------------------------------------
; 610 | for (ii = 0; ii < st.hw->num_reg; ii++) {                              
;----------------------------------------------------------------------
        MOVS      A1, #0                ; [DPU_V7M3_PIPE] |610| 
        STRB      A1, [SP, #0]          ; [DPU_V7M3_PIPE] |610| 
        B         ||$C$L75||            ; [DPU_V7M3_PIPE] |610| 
        ; BRANCH OCCURS {||$C$L75||}     ; [] |610| 
;* --------------------------------------------------------------------------*
||$C$L71||:    
	.dwpsn	file "../MPU9250/inv_mpu.c",line 611,column 9,is_stmt,isa 1
;----------------------------------------------------------------------
; 611 | if (ii == st.reg->fifo_r_w || ii == st.reg->mem_r_w)                   
; 612 |     continue;                                                          
;----------------------------------------------------------------------
        LDR       A1, $C$CON11          ; [DPU_V7M3_PIPE] |611| 
        LDR       A1, [A1, #0]          ; [DPU_V7M3_PIPE] |611| 
        LDRB      A2, [SP, #0]          ; [DPU_V7M3_PIPE] |611| 
        LDRB      A1, [A1, #13]         ; [DPU_V7M3_PIPE] |611| 
        CMP       A1, A2                ; [DPU_V7M3_PIPE] |611| 
        BEQ       ||$C$L74||            ; [DPU_V7M3_PIPE] |611| 
        ; BRANCHCC OCCURS {||$C$L74||}   ; [] |611| 
;* --------------------------------------------------------------------------*
        LDR       A1, $C$CON11          ; [DPU_V7M3_PIPE] |611| 
        LDR       A1, [A1, #0]          ; [DPU_V7M3_PIPE] |611| 
        LDRB      A2, [SP, #0]          ; [DPU_V7M3_PIPE] |611| 
        LDRB      A1, [A1, #24]         ; [DPU_V7M3_PIPE] |611| 
        CMP       A1, A2                ; [DPU_V7M3_PIPE] |611| 
        BNE       ||$C$L72||            ; [DPU_V7M3_PIPE] |611| 
        ; BRANCHCC OCCURS {||$C$L72||}   ; [] |611| 
;* --------------------------------------------------------------------------*
        B         ||$C$L74||            ; [DPU_V7M3_PIPE] |611| 
        ; BRANCH OCCURS {||$C$L74||}     ; [] |611| 
;* --------------------------------------------------------------------------*
;* --------------------------------------------------------------------------*
||$C$L72||:    
	.dwpsn	file "../MPU9250/inv_mpu.c",line 613,column 9,is_stmt,isa 1
;----------------------------------------------------------------------
; 613 | if (i2c_read(st.hw->addr, ii, 1, &data))                               
;----------------------------------------------------------------------
        LDRB      A1, [SP, #0]          ; [DPU_V7M3_PIPE] |613| 
        MOVS      A2, #1                ; [DPU_V7M3_PIPE] |613| 
        ADD       A3, SP, #1            ; [DPU_V7M3_PIPE] |613| 
$C$DW$108	.dwtag  DW_TAG_TI_branch
	.dwattr $C$DW$108, DW_AT_low_pc(0x00)
	.dwattr $C$DW$108, DW_AT_name("RD_MPU")
	.dwattr $C$DW$108, DW_AT_TI_call

        BL        RD_MPU                ; [DPU_V7M3_PIPE] |613| 
        ; CALL OCCURS {RD_MPU }          ; [] |613| 
        CBZ       A1, ||$C$L73||        ; [] 
        ; BRANCHCC OCCURS {||$C$L73||}   ; [] |613| 
;* --------------------------------------------------------------------------*
	.dwpsn	file "../MPU9250/inv_mpu.c",line 614,column 13,is_stmt,isa 1
;----------------------------------------------------------------------
; 614 | return -1;                                                             
;----------------------------------------------------------------------
        MOV       A1, #-1               ; [DPU_V7M3_PIPE] |614| 
        B         ||$C$L76||            ; [DPU_V7M3_PIPE] |614| 
        ; BRANCH OCCURS {||$C$L76||}     ; [] |614| 
;* --------------------------------------------------------------------------*
||$C$L73||:    
	.dwpsn	file "../MPU9250/inv_mpu.c",line 615,column 9,is_stmt,isa 1
;----------------------------------------------------------------------
; 615 | log_i("%#5x: %#5x\r\n", ii, data);                                     
;----------------------------------------------------------------------
;* --------------------------------------------------------------------------*
||$C$L74||:    
	.dwpsn	file "../MPU9250/inv_mpu.c",line 610,column 39,is_stmt,isa 1
        LDRB      A1, [SP, #0]          ; [DPU_V7M3_PIPE] |610| 
        ADDS      A1, A1, #1            ; [DPU_V7M3_PIPE] |610| 
        STRB      A1, [SP, #0]          ; [DPU_V7M3_PIPE] |610| 
;* --------------------------------------------------------------------------*
;*   BEGIN LOOP ||$C$L75||
;* --------------------------------------------------------------------------*
||$C$L75||:    
	.dwpsn	file "../MPU9250/inv_mpu.c",line 610,column 18,is_stmt,isa 1
        LDR       A1, $C$CON12          ; [DPU_V7M3_PIPE] |610| 
        LDR       A1, [A1, #0]          ; [DPU_V7M3_PIPE] |610| 
        LDRB      A2, [SP, #0]          ; [DPU_V7M3_PIPE] |610| 
        LDRB      A1, [A1, #4]          ; [DPU_V7M3_PIPE] |610| 
        CMP       A1, A2                ; [DPU_V7M3_PIPE] |610| 
        BGT       ||$C$L71||            ; [DPU_V7M3_PIPE] |610| 
        ; BRANCHCC OCCURS {||$C$L71||}   ; [] |610| 
;* --------------------------------------------------------------------------*
	.dwpsn	file "../MPU9250/inv_mpu.c",line 617,column 5,is_stmt,isa 1
;----------------------------------------------------------------------
; 617 | return 0;                                                              
;----------------------------------------------------------------------
        MOVS      A1, #0                ; [DPU_V7M3_PIPE] |617| 
;* --------------------------------------------------------------------------*
||$C$L76||:    
	.dwpsn	file "../MPU9250/inv_mpu.c",line 618,column 1,is_stmt,isa 1
$C$DW$109	.dwtag  DW_TAG_TI_branch
	.dwattr $C$DW$109, DW_AT_low_pc(0x00)
	.dwattr $C$DW$109, DW_AT_TI_return

        POP       {A4, PC}              ; [DPU_V7M3_PIPE] 
	.dwcfi	cfa_offset, 0
	.dwcfi	restore_reg, 3
        ; BRANCH OCCURS                  ; [] 
	.dwattr $C$DW$105, DW_AT_TI_end_file("../MPU9250/inv_mpu.c")
	.dwattr $C$DW$105, DW_AT_TI_end_line(0x26a)
	.dwattr $C$DW$105, DW_AT_TI_end_column(0x01)
	.dwendentry
	.dwendtag $C$DW$105

	.sect	".text:mpu_read_reg"
	.clink
	.thumbfunc mpu_read_reg
	.thumb
	.global	mpu_read_reg

$C$DW$110	.dwtag  DW_TAG_subprogram
	.dwattr $C$DW$110, DW_AT_name("mpu_read_reg")
	.dwattr $C$DW$110, DW_AT_low_pc(mpu_read_reg)
	.dwattr $C$DW$110, DW_AT_high_pc(0x00)
	.dwattr $C$DW$110, DW_AT_TI_symbol_name("mpu_read_reg")
	.dwattr $C$DW$110, DW_AT_external
	.dwattr $C$DW$110, DW_AT_type(*$C$DW$T$10)
	.dwattr $C$DW$110, DW_AT_TI_begin_file("../MPU9250/inv_mpu.c")
	.dwattr $C$DW$110, DW_AT_TI_begin_line(0x273)
	.dwattr $C$DW$110, DW_AT_TI_begin_column(0x05)
	.dwattr $C$DW$110, DW_AT_decl_file("../MPU9250/inv_mpu.c")
	.dwattr $C$DW$110, DW_AT_decl_line(0x273)
	.dwattr $C$DW$110, DW_AT_decl_column(0x05)
	.dwattr $C$DW$110, DW_AT_TI_max_frame_size(0x10)
	.dwpsn	file "../MPU9250/inv_mpu.c",line 628,column 1,is_stmt,address mpu_read_reg,isa 1

	.dwfde $C$DW$CIE, mpu_read_reg
$C$DW$111	.dwtag  DW_TAG_formal_parameter
	.dwattr $C$DW$111, DW_AT_name("reg")
	.dwattr $C$DW$111, DW_AT_TI_symbol_name("reg")
	.dwattr $C$DW$111, DW_AT_type(*$C$DW$T$10)
	.dwattr $C$DW$111, DW_AT_location[DW_OP_reg0]

$C$DW$112	.dwtag  DW_TAG_formal_parameter
	.dwattr $C$DW$112, DW_AT_name("data")
	.dwattr $C$DW$112, DW_AT_TI_symbol_name("data")
	.dwattr $C$DW$112, DW_AT_type(*$C$DW$T$123)
	.dwattr $C$DW$112, DW_AT_location[DW_OP_reg1]

;----------------------------------------------------------------------
; 627 | int mpu_read_reg(unsigned char reg, unsigned char *data)               
;----------------------------------------------------------------------

;*****************************************************************************
;* FUNCTION NAME: mpu_read_reg                                               *
;*                                                                           *
;*   Regs Modified     : A1,A2,A3,A4,V9,SP,LR,SR                             *
;*   Regs Used         : A1,A2,A3,A4,V9,SP,LR,SR                             *
;*   Local Frame Size  : 0 Args + 8 Auto + 4 Save = 12 byte                  *
;*****************************************************************************
mpu_read_reg:
;* --------------------------------------------------------------------------*
	.dwcfi	cfa_offset, 0
        PUSH      {A2, A3, A4, LR}      ; [DPU_V7M3_PIPE] 
	.dwcfi	cfa_offset, 16
	.dwcfi	save_reg_to_mem, 14, -4
	.dwcfi	save_reg_to_mem, 3, -8
	.dwcfi	save_reg_to_mem, 2, -12
	.dwcfi	save_reg_to_mem, 1, -16
$C$DW$113	.dwtag  DW_TAG_variable
	.dwattr $C$DW$113, DW_AT_name("data")
	.dwattr $C$DW$113, DW_AT_TI_symbol_name("data")
	.dwattr $C$DW$113, DW_AT_type(*$C$DW$T$123)
	.dwattr $C$DW$113, DW_AT_location[DW_OP_breg13 0]

$C$DW$114	.dwtag  DW_TAG_variable
	.dwattr $C$DW$114, DW_AT_name("reg")
	.dwattr $C$DW$114, DW_AT_TI_symbol_name("reg")
	.dwattr $C$DW$114, DW_AT_type(*$C$DW$T$6)
	.dwattr $C$DW$114, DW_AT_location[DW_OP_breg13 4]

        STR       A2, [SP, #0]          ; [DPU_V7M3_PIPE] |628| 
        STRB      A1, [SP, #4]          ; [DPU_V7M3_PIPE] |628| 
	.dwpsn	file "../MPU9250/inv_mpu.c",line 629,column 5,is_stmt,isa 1
;----------------------------------------------------------------------
; 629 | if (reg == st.reg->fifo_r_w || reg == st.reg->mem_r_w)                 
;----------------------------------------------------------------------
        LDR       A1, $C$CON13          ; [DPU_V7M3_PIPE] |629| 
        LDR       A1, [A1, #0]          ; [DPU_V7M3_PIPE] |629| 
        LDRB      A2, [SP, #4]          ; [DPU_V7M3_PIPE] |629| 
        LDRB      A1, [A1, #13]         ; [DPU_V7M3_PIPE] |629| 
        CMP       A1, A2                ; [DPU_V7M3_PIPE] |629| 
        BEQ       ||$C$L77||            ; [DPU_V7M3_PIPE] |629| 
        ; BRANCHCC OCCURS {||$C$L77||}   ; [] |629| 
;* --------------------------------------------------------------------------*
        LDR       A1, $C$CON13          ; [DPU_V7M3_PIPE] |629| 
        LDR       A1, [A1, #0]          ; [DPU_V7M3_PIPE] |629| 
        LDRB      A2, [SP, #4]          ; [DPU_V7M3_PIPE] |629| 
        LDRB      A1, [A1, #24]         ; [DPU_V7M3_PIPE] |629| 
        CMP       A1, A2                ; [DPU_V7M3_PIPE] |629| 
        BNE       ||$C$L78||            ; [DPU_V7M3_PIPE] |629| 
        ; BRANCHCC OCCURS {||$C$L78||}   ; [] |629| 
;* --------------------------------------------------------------------------*
||$C$L77||:    
	.dwpsn	file "../MPU9250/inv_mpu.c",line 630,column 9,is_stmt,isa 1
;----------------------------------------------------------------------
; 630 | return -1;                                                             
;----------------------------------------------------------------------
        MOV       A1, #-1               ; [DPU_V7M3_PIPE] |630| 
        B         ||$C$L80||            ; [DPU_V7M3_PIPE] |630| 
        ; BRANCH OCCURS {||$C$L80||}     ; [] |630| 
;* --------------------------------------------------------------------------*
||$C$L78||:    
	.dwpsn	file "../MPU9250/inv_mpu.c",line 631,column 5,is_stmt,isa 1
;----------------------------------------------------------------------
; 631 | if (reg >= st.hw->num_reg)                                             
;----------------------------------------------------------------------
        LDR       A1, $C$CON14          ; [DPU_V7M3_PIPE] |631| 
        LDR       A1, [A1, #0]          ; [DPU_V7M3_PIPE] |631| 
        LDRB      A2, [SP, #4]          ; [DPU_V7M3_PIPE] |631| 
        LDRB      A1, [A1, #4]          ; [DPU_V7M3_PIPE] |631| 
        CMP       A1, A2                ; [DPU_V7M3_PIPE] |631| 
        BGT       ||$C$L79||            ; [DPU_V7M3_PIPE] |631| 
        ; BRANCHCC OCCURS {||$C$L79||}   ; [] |631| 
;* --------------------------------------------------------------------------*
	.dwpsn	file "../MPU9250/inv_mpu.c",line 632,column 9,is_stmt,isa 1
;----------------------------------------------------------------------
; 632 | return -1;                                                             
;----------------------------------------------------------------------
        MOV       A1, #-1               ; [DPU_V7M3_PIPE] |632| 
        B         ||$C$L80||            ; [DPU_V7M3_PIPE] |632| 
        ; BRANCH OCCURS {||$C$L80||}     ; [] |632| 
;* --------------------------------------------------------------------------*
||$C$L79||:    
	.dwpsn	file "../MPU9250/inv_mpu.c",line 633,column 5,is_stmt,isa 1
;----------------------------------------------------------------------
; 633 | return i2c_read(st.hw->addr, reg, 1, data);                            
;----------------------------------------------------------------------
        LDRB      A1, [SP, #4]          ; [DPU_V7M3_PIPE] |633| 
        LDR       A3, [SP, #0]          ; [DPU_V7M3_PIPE] |633| 
        MOVS      A2, #1                ; [DPU_V7M3_PIPE] |633| 
$C$DW$115	.dwtag  DW_TAG_TI_branch
	.dwattr $C$DW$115, DW_AT_low_pc(0x00)
	.dwattr $C$DW$115, DW_AT_name("RD_MPU")
	.dwattr $C$DW$115, DW_AT_TI_call

        BL        RD_MPU                ; [DPU_V7M3_PIPE] |633| 
        ; CALL OCCURS {RD_MPU }          ; [] |633| 
;* --------------------------------------------------------------------------*
||$C$L80||:    
	.dwpsn	file "../MPU9250/inv_mpu.c",line 634,column 1,is_stmt,isa 1
$C$DW$116	.dwtag  DW_TAG_TI_branch
	.dwattr $C$DW$116, DW_AT_low_pc(0x00)
	.dwattr $C$DW$116, DW_AT_TI_return

        POP       {A2, A3, A4, PC}      ; [DPU_V7M3_PIPE] 
	.dwcfi	cfa_offset, 0
	.dwcfi	restore_reg, 3
	.dwcfi	restore_reg, 2
	.dwcfi	restore_reg, 1
        ; BRANCH OCCURS                  ; [] 
	.dwattr $C$DW$110, DW_AT_TI_end_file("../MPU9250/inv_mpu.c")
	.dwattr $C$DW$110, DW_AT_TI_end_line(0x27a)
	.dwattr $C$DW$110, DW_AT_TI_end_column(0x01)
	.dwendentry
	.dwendtag $C$DW$110

	.sect	".text:mpu_init"
	.clink
	.thumbfunc mpu_init
	.thumb
	.global	mpu_init

$C$DW$117	.dwtag  DW_TAG_subprogram
	.dwattr $C$DW$117, DW_AT_name("mpu_init")
	.dwattr $C$DW$117, DW_AT_low_pc(mpu_init)
	.dwattr $C$DW$117, DW_AT_high_pc(0x00)
	.dwattr $C$DW$117, DW_AT_TI_symbol_name("mpu_init")
	.dwattr $C$DW$117, DW_AT_external
	.dwattr $C$DW$117, DW_AT_type(*$C$DW$T$10)
	.dwattr $C$DW$117, DW_AT_TI_begin_file("../MPU9250/inv_mpu.c")
	.dwattr $C$DW$117, DW_AT_TI_begin_line(0x28f)
	.dwattr $C$DW$117, DW_AT_TI_begin_column(0x05)
	.dwattr $C$DW$117, DW_AT_decl_file("../MPU9250/inv_mpu.c")
	.dwattr $C$DW$117, DW_AT_decl_line(0x28f)
	.dwattr $C$DW$117, DW_AT_decl_column(0x05)
	.dwattr $C$DW$117, DW_AT_TI_max_frame_size(0x40)
	.dwpsn	file "../MPU9250/inv_mpu.c",line 656,column 1,is_stmt,address mpu_init,isa 1

	.dwfde $C$DW$CIE, mpu_init
$C$DW$118	.dwtag  DW_TAG_formal_parameter
	.dwattr $C$DW$118, DW_AT_name("int_param")
	.dwattr $C$DW$118, DW_AT_TI_symbol_name("int_param")
	.dwattr $C$DW$118, DW_AT_type(*$C$DW$T$231)
	.dwattr $C$DW$118, DW_AT_location[DW_OP_reg0]

;----------------------------------------------------------------------
; 655 | int mpu_init(struct int_param_s *int_param)                            
;----------------------------------------------------------------------

;*****************************************************************************
;* FUNCTION NAME: mpu_init                                                   *
;*                                                                           *
;*   Regs Modified     : A1,A2,A3,A4,V1,V9,SP,LR,SR                          *
;*   Regs Used         : A1,A2,A3,A4,V1,V9,SP,LR,SR                          *
;*   Local Frame Size  : 0 Args + 52 Auto + 8 Save = 60 byte                 *
;*****************************************************************************
mpu_init:
;* --------------------------------------------------------------------------*
	.dwcfi	cfa_offset, 0
        PUSH      {V1, LR}              ; [DPU_V7M3_PIPE] 
	.dwcfi	cfa_offset, 8
	.dwcfi	save_reg_to_mem, 14, -4
	.dwcfi	save_reg_to_mem, 4, -8
        SUB       SP, SP, #56           ; [DPU_V7M3_PIPE] 
	.dwcfi	cfa_offset, 64
$C$DW$119	.dwtag  DW_TAG_variable
	.dwattr $C$DW$119, DW_AT_name("gdiv")
	.dwattr $C$DW$119, DW_AT_TI_symbol_name("gdiv")
	.dwattr $C$DW$119, DW_AT_type(*$C$DW$T$367)
	.dwattr $C$DW$119, DW_AT_location[DW_OP_breg13 0]

$C$DW$120	.dwtag  DW_TAG_variable
	.dwattr $C$DW$120, DW_AT_name("adiv")
	.dwattr $C$DW$120, DW_AT_TI_symbol_name("adiv")
	.dwattr $C$DW$120, DW_AT_type(*$C$DW$T$367)
	.dwattr $C$DW$120, DW_AT_location[DW_OP_breg13 16]

$C$DW$121	.dwtag  DW_TAG_variable
	.dwattr $C$DW$121, DW_AT_name("int_param")
	.dwattr $C$DW$121, DW_AT_TI_symbol_name("int_param")
	.dwattr $C$DW$121, DW_AT_type(*$C$DW$T$231)
	.dwattr $C$DW$121, DW_AT_location[DW_OP_breg13 32]

$C$DW$122	.dwtag  DW_TAG_variable
	.dwattr $C$DW$122, DW_AT_name("data")
	.dwattr $C$DW$122, DW_AT_TI_symbol_name("data")
	.dwattr $C$DW$122, DW_AT_type(*$C$DW$T$177)
	.dwattr $C$DW$122, DW_AT_location[DW_OP_breg13 36]

$C$DW$123	.dwtag  DW_TAG_variable
	.dwattr $C$DW$123, DW_AT_name("tmp")
	.dwattr $C$DW$123, DW_AT_TI_symbol_name("tmp")
	.dwattr $C$DW$123, DW_AT_type(*$C$DW$T$177)
	.dwattr $C$DW$123, DW_AT_location[DW_OP_breg13 44]

;----------------------------------------------------------------------
; 656 | { // mpu general config                                                
; 657 | U08 data[6];                                                           
;----------------------------------------------------------------------
        STR       A1, [SP, #32]         ; [DPU_V7M3_PIPE] |656| 
	.dwpsn	file "../MPU9250/inv_mpu.c",line 658,column 3,is_stmt,isa 1
;----------------------------------------------------------------------
; 658 | data[0] = 0x80;                                                        
;----------------------------------------------------------------------
        MOVS      A1, #128              ; [DPU_V7M3_PIPE] |658| 
        STRB      A1, [SP, #36]         ; [DPU_V7M3_PIPE] |658| 
	.dwpsn	file "../MPU9250/inv_mpu.c",line 659,column 3,is_stmt,isa 1
;----------------------------------------------------------------------
; 659 | i2c_write(st.hw->addr, st.reg->pwr_mgmt_1, 1, &data[0]);   // Reset dev
;     | ice                                                                    
;----------------------------------------------------------------------
        LDR       A1, $C$CON15          ; [DPU_V7M3_PIPE] |659| 
        LDR       A1, [A1, #0]          ; [DPU_V7M3_PIPE] |659| 
        LDRB      A1, [A1, #21]         ; [DPU_V7M3_PIPE] |659| 
        MOVS      A2, #1                ; [DPU_V7M3_PIPE] |659| 
        ADD       A3, SP, #36           ; [DPU_V7M3_PIPE] |659| 
$C$DW$124	.dwtag  DW_TAG_TI_branch
	.dwattr $C$DW$124, DW_AT_low_pc(0x00)
	.dwattr $C$DW$124, DW_AT_name("WR_MPU")
	.dwattr $C$DW$124, DW_AT_TI_call

        BL        WR_MPU                ; [DPU_V7M3_PIPE] |659| 
        ; CALL OCCURS {WR_MPU }          ; [] |659| 
	.dwpsn	file "../MPU9250/inv_mpu.c",line 660,column 3,is_stmt,isa 1
;----------------------------------------------------------------------
; 660 | delay_ms(100);                                                         
;----------------------------------------------------------------------
        MOVS      A1, #100              ; [DPU_V7M3_PIPE] |660| 
$C$DW$125	.dwtag  DW_TAG_TI_branch
	.dwattr $C$DW$125, DW_AT_low_pc(0x00)
	.dwattr $C$DW$125, DW_AT_name("Delay_Ms")
	.dwattr $C$DW$125, DW_AT_TI_call

        BL        Delay_Ms              ; [DPU_V7M3_PIPE] |660| 
        ; CALL OCCURS {Delay_Ms }        ; [] |660| 
	.dwpsn	file "../MPU9250/inv_mpu.c",line 661,column 3,is_stmt,isa 1
;----------------------------------------------------------------------
; 661 | data[1] = 0x00;                                                        
;----------------------------------------------------------------------
        MOVS      A1, #0                ; [DPU_V7M3_PIPE] |661| 
        STRB      A1, [SP, #37]         ; [DPU_V7M3_PIPE] |661| 
	.dwpsn	file "../MPU9250/inv_mpu.c",line 662,column 3,is_stmt,isa 1
;----------------------------------------------------------------------
; 662 | i2c_write(st.hw->addr, st.reg->pwr_mgmt_1, 1, &data[1]);   // Wake up c
;     | hip                                                                    
;----------------------------------------------------------------------
        LDR       A1, $C$CON15          ; [DPU_V7M3_PIPE] |662| 
        LDR       A1, [A1, #0]          ; [DPU_V7M3_PIPE] |662| 
        LDRB      A1, [A1, #21]         ; [DPU_V7M3_PIPE] |662| 
        MOVS      A2, #1                ; [DPU_V7M3_PIPE] |662| 
        ADD       A3, SP, #37           ; [DPU_V7M3_PIPE] |662| 
$C$DW$126	.dwtag  DW_TAG_TI_branch
	.dwattr $C$DW$126, DW_AT_low_pc(0x00)
	.dwattr $C$DW$126, DW_AT_name("WR_MPU")
	.dwattr $C$DW$126, DW_AT_TI_call

        BL        WR_MPU                ; [DPU_V7M3_PIPE] |662| 
        ; CALL OCCURS {WR_MPU }          ; [] |662| 
	.dwpsn	file "../MPU9250/inv_mpu.c",line 663,column 3,is_stmt,isa 1
;----------------------------------------------------------------------
; 663 | data[2] = 0x01;                                                        
;----------------------------------------------------------------------
        MOVS      A1, #1                ; [DPU_V7M3_PIPE] |663| 
        STRB      A1, [SP, #38]         ; [DPU_V7M3_PIPE] |663| 
	.dwpsn	file "../MPU9250/inv_mpu.c",line 664,column 3,is_stmt,isa 1
;----------------------------------------------------------------------
; 664 | i2c_write(st.hw->addr, st.reg->int_enable, 1, &data[2]);   // Data read
;     | y int enable                                                           
;----------------------------------------------------------------------
        LDR       A1, $C$CON15          ; [DPU_V7M3_PIPE] |664| 
        LDR       A1, [A1, #0]          ; [DPU_V7M3_PIPE] |664| 
        LDRB      A1, [A1, #17]         ; [DPU_V7M3_PIPE] |664| 
        MOVS      A2, #1                ; [DPU_V7M3_PIPE] |664| 
        ADD       A3, SP, #38           ; [DPU_V7M3_PIPE] |664| 
$C$DW$127	.dwtag  DW_TAG_TI_branch
	.dwattr $C$DW$127, DW_AT_low_pc(0x00)
	.dwattr $C$DW$127, DW_AT_name("WR_MPU")
	.dwattr $C$DW$127, DW_AT_TI_call

        BL        WR_MPU                ; [DPU_V7M3_PIPE] |664| 
        ; CALL OCCURS {WR_MPU }          ; [] |664| 
	.dwpsn	file "../MPU9250/inv_mpu.c",line 665,column 3,is_stmt,isa 1
;----------------------------------------------------------------------
; 665 | data[3] = 0x10;                                                        
;----------------------------------------------------------------------
        MOVS      A1, #16               ; [DPU_V7M3_PIPE] |665| 
        STRB      A1, [SP, #39]         ; [DPU_V7M3_PIPE] |665| 
	.dwpsn	file "../MPU9250/inv_mpu.c",line 666,column 3,is_stmt,isa 1
;----------------------------------------------------------------------
; 666 | i2c_write(st.hw->addr, st.reg->int_pin_cfg, 1, &data[3]);  // Clear dat
;     | a ready flag with any read operation                                   
; 668 | // gyro, acc config                                                    
;----------------------------------------------------------------------
        LDR       A1, $C$CON15          ; [DPU_V7M3_PIPE] |666| 
        LDR       A1, [A1, #0]          ; [DPU_V7M3_PIPE] |666| 
        LDRB      A1, [A1, #23]         ; [DPU_V7M3_PIPE] |666| 
        MOVS      A2, #1                ; [DPU_V7M3_PIPE] |666| 
        ADD       A3, SP, #39           ; [DPU_V7M3_PIPE] |666| 
$C$DW$128	.dwtag  DW_TAG_TI_branch
	.dwattr $C$DW$128, DW_AT_low_pc(0x00)
	.dwattr $C$DW$128, DW_AT_name("WR_MPU")
	.dwattr $C$DW$128, DW_AT_TI_call

        BL        WR_MPU                ; [DPU_V7M3_PIPE] |666| 
        ; CALL OCCURS {WR_MPU }          ; [] |666| 
	.dwpsn	file "../MPU9250/inv_mpu.c",line 669,column 7,is_stmt,isa 1
;----------------------------------------------------------------------
; 669 | U08 tmp[6]={ 0x00, 0x08, 0x10, 0x18, 0x01, 0x40};                // Sca
;     | les and dlpf                                                           
;----------------------------------------------------------------------
        LDR       A2, $C$CON16          ; [DPU_V7M3_PIPE] |669| 
        LDR       A3, [A2, #0]          ; [DPU_V7M3_PIPE] |669| 
        ADD       A1, SP, #44           ; [DPU_V7M3_PIPE] |669| 
        STR       A3, [A1, #0]          ; [DPU_V7M3_PIPE] |669| 
        LDRH      A2, [A2, #4]          ; [DPU_V7M3_PIPE] |669| 
        STRH      A2, [A1, #4]          ; [DPU_V7M3_PIPE] |669| 
	.dwpsn	file "../MPU9250/inv_mpu.c",line 670,column 7,is_stmt,isa 1
;----------------------------------------------------------------------
; 670 | F32 gdiv[4]={ 250,500,1000,2000 };                                     
;----------------------------------------------------------------------
        LDR       A1, $C$CON17          ; [DPU_V7M3_PIPE] |670| 
        LDMIA     A1, {A4, A3, A2, A1}  ; [DPU_V7M3_PIPE] |670| 
        STMIA     SP, {A4, A3, A2, A1}  ; [DPU_V7M3_PIPE] |670| 
	.dwpsn	file "../MPU9250/inv_mpu.c",line 671,column 7,is_stmt,isa 1
;----------------------------------------------------------------------
; 671 | F32 adiv[4]={   2,  4,   8,  16 };                                     
;----------------------------------------------------------------------
        LDR       A2, $C$CON18          ; [DPU_V7M3_PIPE] |671| 
        LDMIA     A2, {V1, A4, A3, A2}  ; [DPU_V7M3_PIPE] |671| 
        ADD       A1, SP, #16           ; [DPU_V7M3_PIPE] |671| 
        STMIA     A1, {V1, A4, A3, A2}  ; [DPU_V7M3_PIPE] |671| 
	.dwpsn	file "../MPU9250/inv_mpu.c",line 673,column 3,is_stmt,isa 1
;----------------------------------------------------------------------
; 673 | i2c_write(st.hw->addr, st.reg->gyro_cfg, 1, &tmp[3]);      // FS 3 both
;     | , and gyro fchoice 11 (1B)                                             
;----------------------------------------------------------------------
        LDR       A1, $C$CON15          ; [DPU_V7M3_PIPE] |673| 
        LDR       A1, [A1, #0]          ; [DPU_V7M3_PIPE] |673| 
        LDRB      A1, [A1, #6]          ; [DPU_V7M3_PIPE] |673| 
        MOVS      A2, #1                ; [DPU_V7M3_PIPE] |673| 
        ADD       A3, SP, #47           ; [DPU_V7M3_PIPE] |673| 
$C$DW$129	.dwtag  DW_TAG_TI_branch
	.dwattr $C$DW$129, DW_AT_low_pc(0x00)
	.dwattr $C$DW$129, DW_AT_name("WR_MPU")
	.dwattr $C$DW$129, DW_AT_TI_call

        BL        WR_MPU                ; [DPU_V7M3_PIPE] |673| 
        ; CALL OCCURS {WR_MPU }          ; [] |673| 
	.dwpsn	file "../MPU9250/inv_mpu.c",line 674,column 3,is_stmt,isa 1
;----------------------------------------------------------------------
; 674 | i2c_write(st.hw->addr, st.reg->accel_cfg, 1, &tmp[3]);     // 2000deg/s
;     |  and 16g                                                               
;----------------------------------------------------------------------
        LDR       A1, $C$CON15          ; [DPU_V7M3_PIPE] |674| 
        LDR       A1, [A1, #0]          ; [DPU_V7M3_PIPE] |674| 
        LDRB      A1, [A1, #7]          ; [DPU_V7M3_PIPE] |674| 
        MOVS      A2, #1                ; [DPU_V7M3_PIPE] |674| 
        ADD       A3, SP, #47           ; [DPU_V7M3_PIPE] |674| 
$C$DW$130	.dwtag  DW_TAG_TI_branch
	.dwattr $C$DW$130, DW_AT_low_pc(0x00)
	.dwattr $C$DW$130, DW_AT_name("WR_MPU")
	.dwattr $C$DW$130, DW_AT_TI_call

        BL        WR_MPU                ; [DPU_V7M3_PIPE] |674| 
        ; CALL OCCURS {WR_MPU }          ; [] |674| 
;* --------------------------------------------------------------------------*
	.dwpsn	file "../MPU9250/inv_mpu.c",line 675,column 3,is_stmt,isa 1
;----------------------------------------------------------------------
; 675 | i2c_write(st.hw->addr, st.reg->accel_cfg2, 1, &tmp[5]);                
;----------------------------------------------------------------------
        LDR       A1, $C$CON15          ; [DPU_V7M3_PIPE] |675| 
        LDR       A1, [A1, #0]          ; [DPU_V7M3_PIPE] |675| 
        LDRB      A1, [A1, #8]          ; [DPU_V7M3_PIPE] |675| 
        ADD       A3, SP, #49           ; [DPU_V7M3_PIPE] |675| 
        MOVS      A2, #1                ; [DPU_V7M3_PIPE] |675| 
$C$DW$131	.dwtag  DW_TAG_TI_branch
	.dwattr $C$DW$131, DW_AT_low_pc(0x00)
	.dwattr $C$DW$131, DW_AT_name("WR_MPU")
	.dwattr $C$DW$131, DW_AT_TI_call

        BL        WR_MPU                ; [DPU_V7M3_PIPE] |675| 
        ; CALL OCCURS {WR_MPU }          ; [] |675| 
	.dwpsn	file "../MPU9250/inv_mpu.c",line 676,column 3,is_stmt,isa 1
;----------------------------------------------------------------------
; 676 | mpu.fsG=1.0f/(32768.0f/gdiv[GYR_FSR]);                                 
;----------------------------------------------------------------------
        LDR       A2, [SP, #12]         ; [DPU_V7M3_PIPE] |676| 
        LDR       A1, $C$FL1            ; [DPU_V7M3_PIPE] |676| 
$C$DW$132	.dwtag  DW_TAG_TI_branch
	.dwattr $C$DW$132, DW_AT_low_pc(0x00)
	.dwattr $C$DW$132, DW_AT_name("__aeabi_fdiv")
	.dwattr $C$DW$132, DW_AT_TI_call

        BL        __aeabi_fdiv          ; [DPU_V7M3_PIPE] |676| 
        ; CALL OCCURS {__aeabi_fdiv }    ; [] |676| 
        MOV       A2, A1                ; [DPU_V7M3_PIPE] |676| 
        LDR       A1, $C$FL2            ; [DPU_V7M3_PIPE] |676| 
$C$DW$133	.dwtag  DW_TAG_TI_branch
	.dwattr $C$DW$133, DW_AT_low_pc(0x00)
	.dwattr $C$DW$133, DW_AT_name("__aeabi_fdiv")
	.dwattr $C$DW$133, DW_AT_TI_call

        BL        __aeabi_fdiv          ; [DPU_V7M3_PIPE] |676| 
        ; CALL OCCURS {__aeabi_fdiv }    ; [] |676| 
        LDR       A2, $C$CON19          ; [DPU_V7M3_PIPE] |676| 
        STR       A1, [A2, #0]          ; [DPU_V7M3_PIPE] |676| 
	.dwpsn	file "../MPU9250/inv_mpu.c",line 677,column 3,is_stmt,isa 1
;----------------------------------------------------------------------
; 677 | mpu.fsA=1.0f/(32768.0f/adiv[ACC_FSR]);                                 
;----------------------------------------------------------------------
        LDR       A2, [SP, #28]         ; [DPU_V7M3_PIPE] |677| 
        LDR       A1, $C$FL1            ; [DPU_V7M3_PIPE] |677| 
$C$DW$134	.dwtag  DW_TAG_TI_branch
	.dwattr $C$DW$134, DW_AT_low_pc(0x00)
	.dwattr $C$DW$134, DW_AT_name("__aeabi_fdiv")
	.dwattr $C$DW$134, DW_AT_TI_call

        BL        __aeabi_fdiv          ; [DPU_V7M3_PIPE] |677| 
        ; CALL OCCURS {__aeabi_fdiv }    ; [] |677| 
        MOV       A2, A1                ; [DPU_V7M3_PIPE] |677| 
        LDR       A1, $C$FL2            ; [DPU_V7M3_PIPE] |677| 
$C$DW$135	.dwtag  DW_TAG_TI_branch
	.dwattr $C$DW$135, DW_AT_low_pc(0x00)
	.dwattr $C$DW$135, DW_AT_name("__aeabi_fdiv")
	.dwattr $C$DW$135, DW_AT_TI_call

        BL        __aeabi_fdiv          ; [DPU_V7M3_PIPE] |677| 
        ; CALL OCCURS {__aeabi_fdiv }    ; [] |677| 
        LDR       A2, $C$CON20          ; [DPU_V7M3_PIPE] |677| 
        STR       A1, [A2, #0]          ; [DPU_V7M3_PIPE] |677| 
	.dwpsn	file "../MPU9250/inv_mpu.c",line 679,column 3,is_stmt,isa 1
;----------------------------------------------------------------------
; 679 | i2c_write(st.hw->addr, st.reg->lpf, 1, &tmp[4]);           // dlpf     
; 680 | // Set gyro sample rate                                                
;----------------------------------------------------------------------
        LDR       A1, $C$CON15          ; [DPU_V7M3_PIPE] |679| 
        LDR       A1, [A1, #0]          ; [DPU_V7M3_PIPE] |679| 
        LDRB      A1, [A1, #2]          ; [DPU_V7M3_PIPE] |679| 
        ADD       A3, SP, #48           ; [DPU_V7M3_PIPE] |679| 
        MOVS      A2, #1                ; [DPU_V7M3_PIPE] |679| 
$C$DW$136	.dwtag  DW_TAG_TI_branch
	.dwattr $C$DW$136, DW_AT_low_pc(0x00)
	.dwattr $C$DW$136, DW_AT_name("WR_MPU")
	.dwattr $C$DW$136, DW_AT_TI_call

        BL        WR_MPU                ; [DPU_V7M3_PIPE] |679| 
        ; CALL OCCURS {WR_MPU }          ; [] |679| 
	.dwpsn	file "../MPU9250/inv_mpu.c",line 681,column 3,is_stmt,isa 1
;----------------------------------------------------------------------
; 681 | data[4] = 0x00;                                                        
;----------------------------------------------------------------------
        MOVS      A1, #0                ; [DPU_V7M3_PIPE] |681| 
        STRB      A1, [SP, #40]         ; [DPU_V7M3_PIPE] |681| 
	.dwpsn	file "../MPU9250/inv_mpu.c",line 682,column 3,is_stmt,isa 1
;----------------------------------------------------------------------
; 682 | i2c_write(st.hw->addr, st.reg->rate_div, 1, &data[4]);     // Gyro @8KH
;     | z                                                                      
;----------------------------------------------------------------------
        LDR       A1, $C$CON15          ; [DPU_V7M3_PIPE] |682| 
        LDR       A1, [A1, #0]          ; [DPU_V7M3_PIPE] |682| 
        LDRB      A1, [A1, #1]          ; [DPU_V7M3_PIPE] |682| 
        ADD       A3, SP, #40           ; [DPU_V7M3_PIPE] |682| 
        MOVS      A2, #1                ; [DPU_V7M3_PIPE] |682| 
$C$DW$137	.dwtag  DW_TAG_TI_branch
	.dwattr $C$DW$137, DW_AT_low_pc(0x00)
	.dwattr $C$DW$137, DW_AT_name("WR_MPU")
	.dwattr $C$DW$137, DW_AT_TI_call

        BL        WR_MPU                ; [DPU_V7M3_PIPE] |682| 
        ; CALL OCCURS {WR_MPU }          ; [] |682| 
	.dwpsn	file "../MPU9250/inv_mpu.c",line 683,column 3,is_stmt,isa 1
;----------------------------------------------------------------------
; 683 | return 0;                                                              
;----------------------------------------------------------------------
        MOVS      A1, #0                ; [DPU_V7M3_PIPE] |683| 
	.dwpsn	file "../MPU9250/inv_mpu.c",line 684,column 1,is_stmt,isa 1
        ADD       SP, SP, #56           ; [DPU_V7M3_PIPE] 
	.dwcfi	cfa_offset, 8
$C$DW$138	.dwtag  DW_TAG_TI_branch
	.dwattr $C$DW$138, DW_AT_low_pc(0x00)
	.dwattr $C$DW$138, DW_AT_TI_return

        POP       {V1, PC}              ; [DPU_V7M3_PIPE] 
	.dwcfi	cfa_offset, 0
	.dwcfi	restore_reg, 4
        ; BRANCH OCCURS                  ; [] 
	.dwattr $C$DW$117, DW_AT_TI_end_file("../MPU9250/inv_mpu.c")
	.dwattr $C$DW$117, DW_AT_TI_end_line(0x2ac)
	.dwattr $C$DW$117, DW_AT_TI_end_column(0x01)
	.dwendentry
	.dwendtag $C$DW$117

	.sect	".text:mpu_rd"
	.clink
	.thumbfunc mpu_rd
	.thumb
	.global	mpu_rd

$C$DW$139	.dwtag  DW_TAG_subprogram
	.dwattr $C$DW$139, DW_AT_name("mpu_rd")
	.dwattr $C$DW$139, DW_AT_low_pc(mpu_rd)
	.dwattr $C$DW$139, DW_AT_high_pc(0x00)
	.dwattr $C$DW$139, DW_AT_TI_symbol_name("mpu_rd")
	.dwattr $C$DW$139, DW_AT_external
	.dwattr $C$DW$139, DW_AT_TI_begin_file("../MPU9250/inv_mpu.c")
	.dwattr $C$DW$139, DW_AT_TI_begin_line(0x2b0)
	.dwattr $C$DW$139, DW_AT_TI_begin_column(0x06)
	.dwattr $C$DW$139, DW_AT_decl_file("../MPU9250/inv_mpu.c")
	.dwattr $C$DW$139, DW_AT_decl_line(0x2b0)
	.dwattr $C$DW$139, DW_AT_decl_column(0x06)
	.dwattr $C$DW$139, DW_AT_TI_max_frame_size(0x08)
	.dwpsn	file "../MPU9250/inv_mpu.c",line 689,column 1,is_stmt,address mpu_rd,isa 1

	.dwfde $C$DW$CIE, mpu_rd
;----------------------------------------------------------------------
; 688 | void mpu_rd()                                                          
;----------------------------------------------------------------------

;*****************************************************************************
;* FUNCTION NAME: mpu_rd                                                     *
;*                                                                           *
;*   Regs Modified     : A1,A2,A3,A4,V9,SP,LR,SR                             *
;*   Regs Used         : A1,A2,A3,A4,V9,SP,LR,SR                             *
;*   Local Frame Size  : 0 Args + 4 Auto + 4 Save = 8 byte                   *
;*****************************************************************************
mpu_rd:
;* --------------------------------------------------------------------------*
	.dwcfi	cfa_offset, 0
        PUSH      {A4, LR}              ; [DPU_V7M3_PIPE] 
	.dwcfi	cfa_offset, 8
	.dwcfi	save_reg_to_mem, 14, -4
	.dwcfi	save_reg_to_mem, 3, -8
$C$DW$140	.dwtag  DW_TAG_variable
	.dwattr $C$DW$140, DW_AT_name("tmp")
	.dwattr $C$DW$140, DW_AT_TI_symbol_name("tmp")
	.dwattr $C$DW$140, DW_AT_type(*$C$DW$T$176)
	.dwattr $C$DW$140, DW_AT_location[DW_OP_breg13 0]

	.dwpsn	file "../MPU9250/inv_mpu.c",line 689,column 11,is_stmt,isa 1
;----------------------------------------------------------------------
; 689 | { U08* tmp=(U08*)&mpu.tmp[0];                                          
;----------------------------------------------------------------------
        LDR       A1, $C$CON21          ; [DPU_V7M3_PIPE] |689| 
        STR       A1, [SP, #0]          ; [DPU_V7M3_PIPE] |689| 
	.dwpsn	file "../MPU9250/inv_mpu.c",line 690,column 3,is_stmt,isa 1
;----------------------------------------------------------------------
; 690 | i2c_read(st.hw->addr, st.reg->raw_accel, 16, tmp);                     
; 691 | //Accelerometer                                                        
;----------------------------------------------------------------------
        LDR       A1, $C$CON22          ; [DPU_V7M3_PIPE] |690| 
        LDR       A1, [A1, #0]          ; [DPU_V7M3_PIPE] |690| 
        LDR       A3, [SP, #0]          ; [DPU_V7M3_PIPE] |690| 
        LDRB      A1, [A1, #15]         ; [DPU_V7M3_PIPE] |690| 
        MOVS      A2, #16               ; [DPU_V7M3_PIPE] |690| 
$C$DW$141	.dwtag  DW_TAG_TI_branch
	.dwattr $C$DW$141, DW_AT_low_pc(0x00)
	.dwattr $C$DW$141, DW_AT_name("RD_MPU")
	.dwattr $C$DW$141, DW_AT_TI_call

        BL        RD_MPU                ; [DPU_V7M3_PIPE] |690| 
        ; CALL OCCURS {RD_MPU }          ; [] |690| 
	.dwpsn	file "../MPU9250/inv_mpu.c",line 692,column 3,is_stmt,isa 1
;----------------------------------------------------------------------
; 692 | mpu.raw[0] = (F32)(I16)((tmp[ 0]<<8) | tmp[ 1]);                       
;----------------------------------------------------------------------
        LDR       A2, [SP, #0]          ; [DPU_V7M3_PIPE] |692| 
        LDR       A1, [SP, #0]          ; [DPU_V7M3_PIPE] |692| 
        LDRB      A2, [A2, #0]          ; [DPU_V7M3_PIPE] |692| 
        LDRB      A1, [A1, #1]          ; [DPU_V7M3_PIPE] |692| 
        ORR       A1, A1, A2, LSL #8    ; [DPU_V7M3_PIPE] |692| 
        SXTH      A1, A1                ; [DPU_V7M3_PIPE] |692| 
$C$DW$142	.dwtag  DW_TAG_TI_branch
	.dwattr $C$DW$142, DW_AT_low_pc(0x00)
	.dwattr $C$DW$142, DW_AT_name("__aeabi_i2f")
	.dwattr $C$DW$142, DW_AT_TI_call

        BL        __aeabi_i2f           ; [DPU_V7M3_PIPE] |692| 
        ; CALL OCCURS {__aeabi_i2f }     ; [] |692| 
        LDR       A2, $C$CON23          ; [DPU_V7M3_PIPE] |692| 
        STR       A1, [A2, #0]          ; [DPU_V7M3_PIPE] |692| 
	.dwpsn	file "../MPU9250/inv_mpu.c",line 693,column 3,is_stmt,isa 1
;----------------------------------------------------------------------
; 693 | mpu.raw[1] = (F32)(I16)((tmp[ 2]<<8) | tmp[ 3]);                       
;----------------------------------------------------------------------
        LDR       A2, [SP, #0]          ; [DPU_V7M3_PIPE] |693| 
        LDR       A1, [SP, #0]          ; [DPU_V7M3_PIPE] |693| 
        LDRB      A2, [A2, #2]          ; [DPU_V7M3_PIPE] |693| 
        LDRB      A1, [A1, #3]          ; [DPU_V7M3_PIPE] |693| 
        ORR       A1, A1, A2, LSL #8    ; [DPU_V7M3_PIPE] |693| 
        SXTH      A1, A1                ; [DPU_V7M3_PIPE] |693| 
$C$DW$143	.dwtag  DW_TAG_TI_branch
	.dwattr $C$DW$143, DW_AT_low_pc(0x00)
	.dwattr $C$DW$143, DW_AT_name("__aeabi_i2f")
	.dwattr $C$DW$143, DW_AT_TI_call

        BL        __aeabi_i2f           ; [DPU_V7M3_PIPE] |693| 
        ; CALL OCCURS {__aeabi_i2f }     ; [] |693| 
        LDR       A2, $C$CON24          ; [DPU_V7M3_PIPE] |693| 
        STR       A1, [A2, #0]          ; [DPU_V7M3_PIPE] |693| 
	.dwpsn	file "../MPU9250/inv_mpu.c",line 694,column 3,is_stmt,isa 1
;----------------------------------------------------------------------
; 694 | mpu.raw[2] = (F32)(I16)((tmp[ 4]<<8) | tmp[ 5]);                       
;----------------------------------------------------------------------
        LDR       A2, [SP, #0]          ; [DPU_V7M3_PIPE] |694| 
        LDR       A1, [SP, #0]          ; [DPU_V7M3_PIPE] |694| 
        LDRB      A2, [A2, #4]          ; [DPU_V7M3_PIPE] |694| 
        LDRB      A1, [A1, #5]          ; [DPU_V7M3_PIPE] |694| 
        ORR       A1, A1, A2, LSL #8    ; [DPU_V7M3_PIPE] |694| 
        SXTH      A1, A1                ; [DPU_V7M3_PIPE] |694| 
$C$DW$144	.dwtag  DW_TAG_TI_branch
	.dwattr $C$DW$144, DW_AT_low_pc(0x00)
	.dwattr $C$DW$144, DW_AT_name("__aeabi_i2f")
	.dwattr $C$DW$144, DW_AT_TI_call

        BL        __aeabi_i2f           ; [DPU_V7M3_PIPE] |694| 
        ; CALL OCCURS {__aeabi_i2f }     ; [] |694| 
        LDR       A2, $C$CON25          ; [DPU_V7M3_PIPE] |694| 
        STR       A1, [A2, #0]          ; [DPU_V7M3_PIPE] |694| 
	.dwpsn	file "../MPU9250/inv_mpu.c",line 695,column 3,is_stmt,isa 1
;----------------------------------------------------------------------
; 695 | MPU_OFS(0); MPU_OFS(1); MPU_OFS(2);                              // Off
;     | set                                                                    
;----------------------------------------------------------------------
        LDR       A2, $C$CON26          ; [DPU_V7M3_PIPE] |695| 
        LDR       A1, $C$CON23          ; [DPU_V7M3_PIPE] |695| 
        LDR       A2, [A2, #0]          ; [DPU_V7M3_PIPE] |695| 
        LDR       A1, [A1, #0]          ; [DPU_V7M3_PIPE] |695| 
$C$DW$145	.dwtag  DW_TAG_TI_branch
	.dwattr $C$DW$145, DW_AT_low_pc(0x00)
	.dwattr $C$DW$145, DW_AT_name("__aeabi_fsub")
	.dwattr $C$DW$145, DW_AT_TI_call

        BL        __aeabi_fsub          ; [DPU_V7M3_PIPE] |695| 
        ; CALL OCCURS {__aeabi_fsub }    ; [] |695| 
        LDR       A2, $C$CON27          ; [DPU_V7M3_PIPE] |695| 
        STR       A1, [A2, #0]          ; [DPU_V7M3_PIPE] |695| 
	.dwpsn	file "../MPU9250/inv_mpu.c",line 695,column 15,is_stmt,isa 1
        LDR       A2, $C$CON28          ; [DPU_V7M3_PIPE] |695| 
        LDR       A1, $C$CON24          ; [DPU_V7M3_PIPE] |695| 
        LDR       A2, [A2, #0]          ; [DPU_V7M3_PIPE] |695| 
        LDR       A1, [A1, #0]          ; [DPU_V7M3_PIPE] |695| 
$C$DW$146	.dwtag  DW_TAG_TI_branch
	.dwattr $C$DW$146, DW_AT_low_pc(0x00)
	.dwattr $C$DW$146, DW_AT_name("__aeabi_fsub")
	.dwattr $C$DW$146, DW_AT_TI_call

        BL        __aeabi_fsub          ; [DPU_V7M3_PIPE] |695| 
        ; CALL OCCURS {__aeabi_fsub }    ; [] |695| 
        LDR       A2, $C$CON29          ; [DPU_V7M3_PIPE] |695| 
        STR       A1, [A2, #0]          ; [DPU_V7M3_PIPE] |695| 
	.dwpsn	file "../MPU9250/inv_mpu.c",line 695,column 27,is_stmt,isa 1
        LDR       A1, $C$CON25          ; [DPU_V7M3_PIPE] |695| 
;* --------------------------------------------------------------------------*
        LDR       A2, $C$CON30          ; [DPU_V7M3_PIPE] |695| 
        LDR       A1, [A1, #0]          ; [DPU_V7M3_PIPE] |695| 
        LDR       A2, [A2, #0]          ; [DPU_V7M3_PIPE] |695| 
$C$DW$147	.dwtag  DW_TAG_TI_branch
	.dwattr $C$DW$147, DW_AT_low_pc(0x00)
	.dwattr $C$DW$147, DW_AT_name("__aeabi_fsub")
	.dwattr $C$DW$147, DW_AT_TI_call

        BL        __aeabi_fsub          ; [DPU_V7M3_PIPE] |695| 
        ; CALL OCCURS {__aeabi_fsub }    ; [] |695| 
        LDR       A2, $C$CON31          ; [DPU_V7M3_PIPE] |695| 
        STR       A1, [A2, #0]          ; [DPU_V7M3_PIPE] |695| 
	.dwpsn	file "../MPU9250/inv_mpu.c",line 696,column 3,is_stmt,isa 1
;----------------------------------------------------------------------
; 696 | mpu.phy[0]=mpu.val[0]*mpu.fsA;                                   // Con
;     | vert to [g]                                                            
;----------------------------------------------------------------------
        LDR       A2, $C$CON32          ; [DPU_V7M3_PIPE] |696| 
        LDR       A1, $C$CON27          ; [DPU_V7M3_PIPE] |696| 
        LDR       A2, [A2, #0]          ; [DPU_V7M3_PIPE] |696| 
        LDR       A1, [A1, #0]          ; [DPU_V7M3_PIPE] |696| 
$C$DW$148	.dwtag  DW_TAG_TI_branch
	.dwattr $C$DW$148, DW_AT_low_pc(0x00)
	.dwattr $C$DW$148, DW_AT_name("__aeabi_fmul")
	.dwattr $C$DW$148, DW_AT_TI_call

        BL        __aeabi_fmul          ; [DPU_V7M3_PIPE] |696| 
        ; CALL OCCURS {__aeabi_fmul }    ; [] |696| 
        LDR       A2, $C$CON33          ; [DPU_V7M3_PIPE] |696| 
        STR       A1, [A2, #0]          ; [DPU_V7M3_PIPE] |696| 
	.dwpsn	file "../MPU9250/inv_mpu.c",line 697,column 3,is_stmt,isa 1
;----------------------------------------------------------------------
; 697 | mpu.phy[1]=mpu.val[1]*mpu.fsA;                                         
;----------------------------------------------------------------------
        LDR       A2, $C$CON32          ; [DPU_V7M3_PIPE] |697| 
        LDR       A1, $C$CON29          ; [DPU_V7M3_PIPE] |697| 
        LDR       A2, [A2, #0]          ; [DPU_V7M3_PIPE] |697| 
        LDR       A1, [A1, #0]          ; [DPU_V7M3_PIPE] |697| 
$C$DW$149	.dwtag  DW_TAG_TI_branch
	.dwattr $C$DW$149, DW_AT_low_pc(0x00)
	.dwattr $C$DW$149, DW_AT_name("__aeabi_fmul")
	.dwattr $C$DW$149, DW_AT_TI_call

        BL        __aeabi_fmul          ; [DPU_V7M3_PIPE] |697| 
        ; CALL OCCURS {__aeabi_fmul }    ; [] |697| 
        LDR       A2, $C$CON34          ; [DPU_V7M3_PIPE] |697| 
        STR       A1, [A2, #0]          ; [DPU_V7M3_PIPE] |697| 
	.dwpsn	file "../MPU9250/inv_mpu.c",line 698,column 3,is_stmt,isa 1
;----------------------------------------------------------------------
; 698 | mpu.phy[2]=mpu.val[2]*mpu.fsA;                                         
; 699 | //Gyroscope                                                            
;----------------------------------------------------------------------
        LDR       A2, $C$CON32          ; [DPU_V7M3_PIPE] |698| 
        LDR       A1, $C$CON31          ; [DPU_V7M3_PIPE] |698| 
        LDR       A2, [A2, #0]          ; [DPU_V7M3_PIPE] |698| 
        LDR       A1, [A1, #0]          ; [DPU_V7M3_PIPE] |698| 
$C$DW$150	.dwtag  DW_TAG_TI_branch
	.dwattr $C$DW$150, DW_AT_low_pc(0x00)
	.dwattr $C$DW$150, DW_AT_name("__aeabi_fmul")
	.dwattr $C$DW$150, DW_AT_TI_call

        BL        __aeabi_fmul          ; [DPU_V7M3_PIPE] |698| 
        ; CALL OCCURS {__aeabi_fmul }    ; [] |698| 
        LDR       A2, $C$CON35          ; [DPU_V7M3_PIPE] |698| 
        STR       A1, [A2, #0]          ; [DPU_V7M3_PIPE] |698| 
	.dwpsn	file "../MPU9250/inv_mpu.c",line 700,column 3,is_stmt,isa 1
;----------------------------------------------------------------------
; 700 | mpu.raw[3] = (F32)(I16)((tmp[ 8]<<8) | tmp[ 9]);                       
;----------------------------------------------------------------------
        LDR       A2, [SP, #0]          ; [DPU_V7M3_PIPE] |700| 
        LDR       A1, [SP, #0]          ; [DPU_V7M3_PIPE] |700| 
        LDRB      A2, [A2, #8]          ; [DPU_V7M3_PIPE] |700| 
        LDRB      A1, [A1, #9]          ; [DPU_V7M3_PIPE] |700| 
        ORR       A1, A1, A2, LSL #8    ; [DPU_V7M3_PIPE] |700| 
        SXTH      A1, A1                ; [DPU_V7M3_PIPE] |700| 
$C$DW$151	.dwtag  DW_TAG_TI_branch
	.dwattr $C$DW$151, DW_AT_low_pc(0x00)
	.dwattr $C$DW$151, DW_AT_name("__aeabi_i2f")
	.dwattr $C$DW$151, DW_AT_TI_call

        BL        __aeabi_i2f           ; [DPU_V7M3_PIPE] |700| 
        ; CALL OCCURS {__aeabi_i2f }     ; [] |700| 
        LDR       A2, $C$CON36          ; [DPU_V7M3_PIPE] |700| 
        STR       A1, [A2, #0]          ; [DPU_V7M3_PIPE] |700| 
	.dwpsn	file "../MPU9250/inv_mpu.c",line 701,column 3,is_stmt,isa 1
;----------------------------------------------------------------------
; 701 | mpu.raw[4] = (F32)(I16)((tmp[10]<<8) | tmp[11]);                       
;----------------------------------------------------------------------
        LDR       A2, [SP, #0]          ; [DPU_V7M3_PIPE] |701| 
        LDR       A1, [SP, #0]          ; [DPU_V7M3_PIPE] |701| 
        LDRB      A2, [A2, #10]         ; [DPU_V7M3_PIPE] |701| 
        LDRB      A1, [A1, #11]         ; [DPU_V7M3_PIPE] |701| 
        ORR       A1, A1, A2, LSL #8    ; [DPU_V7M3_PIPE] |701| 
        SXTH      A1, A1                ; [DPU_V7M3_PIPE] |701| 
$C$DW$152	.dwtag  DW_TAG_TI_branch
	.dwattr $C$DW$152, DW_AT_low_pc(0x00)
	.dwattr $C$DW$152, DW_AT_name("__aeabi_i2f")
	.dwattr $C$DW$152, DW_AT_TI_call

        BL        __aeabi_i2f           ; [DPU_V7M3_PIPE] |701| 
        ; CALL OCCURS {__aeabi_i2f }     ; [] |701| 
        LDR       A2, $C$CON37          ; [DPU_V7M3_PIPE] |701| 
        STR       A1, [A2, #0]          ; [DPU_V7M3_PIPE] |701| 
	.dwpsn	file "../MPU9250/inv_mpu.c",line 702,column 3,is_stmt,isa 1
;----------------------------------------------------------------------
; 702 | mpu.raw[5] = (F32)(I16)((tmp[12]<<8) | tmp[13]);                       
;----------------------------------------------------------------------
        LDR       A2, [SP, #0]          ; [DPU_V7M3_PIPE] |702| 
        LDR       A1, [SP, #0]          ; [DPU_V7M3_PIPE] |702| 
        LDRB      A2, [A2, #12]         ; [DPU_V7M3_PIPE] |702| 
        LDRB      A1, [A1, #13]         ; [DPU_V7M3_PIPE] |702| 
        ORR       A1, A1, A2, LSL #8    ; [DPU_V7M3_PIPE] |702| 
        SXTH      A1, A1                ; [DPU_V7M3_PIPE] |702| 
$C$DW$153	.dwtag  DW_TAG_TI_branch
	.dwattr $C$DW$153, DW_AT_low_pc(0x00)
	.dwattr $C$DW$153, DW_AT_name("__aeabi_i2f")
	.dwattr $C$DW$153, DW_AT_TI_call

        BL        __aeabi_i2f           ; [DPU_V7M3_PIPE] |702| 
        ; CALL OCCURS {__aeabi_i2f }     ; [] |702| 
        LDR       A2, $C$CON38          ; [DPU_V7M3_PIPE] |702| 
        STR       A1, [A2, #0]          ; [DPU_V7M3_PIPE] |702| 
	.dwpsn	file "../MPU9250/inv_mpu.c",line 703,column 3,is_stmt,isa 1
;----------------------------------------------------------------------
; 703 | MPU_OFS(3); MPU_OFS(4); MPU_OFS(5);                              // Off
;     | set                                                                    
;----------------------------------------------------------------------
        LDR       A2, $C$CON39          ; [DPU_V7M3_PIPE] |703| 
        LDR       A1, $C$CON36          ; [DPU_V7M3_PIPE] |703| 
        LDR       A2, [A2, #0]          ; [DPU_V7M3_PIPE] |703| 
        LDR       A1, [A1, #0]          ; [DPU_V7M3_PIPE] |703| 
$C$DW$154	.dwtag  DW_TAG_TI_branch
	.dwattr $C$DW$154, DW_AT_low_pc(0x00)
	.dwattr $C$DW$154, DW_AT_name("__aeabi_fsub")
	.dwattr $C$DW$154, DW_AT_TI_call

        BL        __aeabi_fsub          ; [DPU_V7M3_PIPE] |703| 
        ; CALL OCCURS {__aeabi_fsub }    ; [] |703| 
        LDR       A2, $C$CON40          ; [DPU_V7M3_PIPE] |703| 
        STR       A1, [A2, #0]          ; [DPU_V7M3_PIPE] |703| 
	.dwpsn	file "../MPU9250/inv_mpu.c",line 703,column 15,is_stmt,isa 1
        LDR       A1, $C$CON37          ; [DPU_V7M3_PIPE] |703| 
;* --------------------------------------------------------------------------*
        LDR       A2, $C$CON41          ; [DPU_V7M3_PIPE] |703| 
        LDR       A1, [A1, #0]          ; [DPU_V7M3_PIPE] |703| 
        LDR       A2, [A2, #0]          ; [DPU_V7M3_PIPE] |703| 
$C$DW$155	.dwtag  DW_TAG_TI_branch
	.dwattr $C$DW$155, DW_AT_low_pc(0x00)
	.dwattr $C$DW$155, DW_AT_name("__aeabi_fsub")
	.dwattr $C$DW$155, DW_AT_TI_call

        BL        __aeabi_fsub          ; [DPU_V7M3_PIPE] |703| 
        ; CALL OCCURS {__aeabi_fsub }    ; [] |703| 
        LDR       A2, $C$CON42          ; [DPU_V7M3_PIPE] |703| 
        STR       A1, [A2, #0]          ; [DPU_V7M3_PIPE] |703| 
	.dwpsn	file "../MPU9250/inv_mpu.c",line 703,column 27,is_stmt,isa 1
        LDR       A2, $C$CON43          ; [DPU_V7M3_PIPE] |703| 
        LDR       A1, $C$CON38          ; [DPU_V7M3_PIPE] |703| 
        LDR       A2, [A2, #0]          ; [DPU_V7M3_PIPE] |703| 
        LDR       A1, [A1, #0]          ; [DPU_V7M3_PIPE] |703| 
$C$DW$156	.dwtag  DW_TAG_TI_branch
	.dwattr $C$DW$156, DW_AT_low_pc(0x00)
	.dwattr $C$DW$156, DW_AT_name("__aeabi_fsub")
	.dwattr $C$DW$156, DW_AT_TI_call

        BL        __aeabi_fsub          ; [DPU_V7M3_PIPE] |703| 
        ; CALL OCCURS {__aeabi_fsub }    ; [] |703| 
        LDR       A2, $C$CON44          ; [DPU_V7M3_PIPE] |703| 
        STR       A1, [A2, #0]          ; [DPU_V7M3_PIPE] |703| 
	.dwpsn	file "../MPU9250/inv_mpu.c",line 704,column 3,is_stmt,isa 1
;----------------------------------------------------------------------
; 704 | mpu.phy[3] = mpu.val[3]*mpu.fsG;                                 // Con
;     | vert to [deg/s]                                                        
;----------------------------------------------------------------------
        LDR       A2, $C$CON45          ; [DPU_V7M3_PIPE] |704| 
        LDR       A1, $C$CON40          ; [DPU_V7M3_PIPE] |704| 
        LDR       A2, [A2, #0]          ; [DPU_V7M3_PIPE] |704| 
        LDR       A1, [A1, #0]          ; [DPU_V7M3_PIPE] |704| 
$C$DW$157	.dwtag  DW_TAG_TI_branch
	.dwattr $C$DW$157, DW_AT_low_pc(0x00)
	.dwattr $C$DW$157, DW_AT_name("__aeabi_fmul")
	.dwattr $C$DW$157, DW_AT_TI_call

        BL        __aeabi_fmul          ; [DPU_V7M3_PIPE] |704| 
        ; CALL OCCURS {__aeabi_fmul }    ; [] |704| 
        LDR       A2, $C$CON46          ; [DPU_V7M3_PIPE] |704| 
        STR       A1, [A2, #0]          ; [DPU_V7M3_PIPE] |704| 
	.dwpsn	file "../MPU9250/inv_mpu.c",line 705,column 3,is_stmt,isa 1
;----------------------------------------------------------------------
; 705 | mpu.phy[4] = mpu.val[4]*mpu.fsG;                                       
;----------------------------------------------------------------------
        LDR       A2, $C$CON45          ; [DPU_V7M3_PIPE] |705| 
        LDR       A1, $C$CON42          ; [DPU_V7M3_PIPE] |705| 
        LDR       A2, [A2, #0]          ; [DPU_V7M3_PIPE] |705| 
        LDR       A1, [A1, #0]          ; [DPU_V7M3_PIPE] |705| 
$C$DW$158	.dwtag  DW_TAG_TI_branch
	.dwattr $C$DW$158, DW_AT_low_pc(0x00)
	.dwattr $C$DW$158, DW_AT_name("__aeabi_fmul")
	.dwattr $C$DW$158, DW_AT_TI_call

        BL        __aeabi_fmul          ; [DPU_V7M3_PIPE] |705| 
        ; CALL OCCURS {__aeabi_fmul }    ; [] |705| 
        LDR       A2, $C$CON47          ; [DPU_V7M3_PIPE] |705| 
        STR       A1, [A2, #0]          ; [DPU_V7M3_PIPE] |705| 
	.dwpsn	file "../MPU9250/inv_mpu.c",line 706,column 3,is_stmt,isa 1
;----------------------------------------------------------------------
; 706 | mpu.phy[5] = mpu.val[5]*mpu.fsG;                                       
; 707 | //Temperature                                                          
;----------------------------------------------------------------------
        LDR       A2, $C$CON45          ; [DPU_V7M3_PIPE] |706| 
        LDR       A1, $C$CON44          ; [DPU_V7M3_PIPE] |706| 
        LDR       A2, [A2, #0]          ; [DPU_V7M3_PIPE] |706| 
        LDR       A1, [A1, #0]          ; [DPU_V7M3_PIPE] |706| 
$C$DW$159	.dwtag  DW_TAG_TI_branch
	.dwattr $C$DW$159, DW_AT_low_pc(0x00)
	.dwattr $C$DW$159, DW_AT_name("__aeabi_fmul")
	.dwattr $C$DW$159, DW_AT_TI_call

        BL        __aeabi_fmul          ; [DPU_V7M3_PIPE] |706| 
        ; CALL OCCURS {__aeabi_fmul }    ; [] |706| 
        LDR       A2, $C$CON48          ; [DPU_V7M3_PIPE] |706| 
        STR       A1, [A2, #0]          ; [DPU_V7M3_PIPE] |706| 
	.dwpsn	file "../MPU9250/inv_mpu.c",line 708,column 3,is_stmt,isa 1
;----------------------------------------------------------------------
; 708 | mpu.tem    = (F32)(I16)((tmp[ 6]<<8) | tmp[ 7])*INV_340+36.53f;  // [
;     | C]                                                                     
;----------------------------------------------------------------------
        LDR       A2, [SP, #0]          ; [DPU_V7M3_PIPE] |708| 
        LDR       A1, [SP, #0]          ; [DPU_V7M3_PIPE] |708| 
        LDRB      A2, [A2, #6]          ; [DPU_V7M3_PIPE] |708| 
        LDRB      A1, [A1, #7]          ; [DPU_V7M3_PIPE] |708| 
        ORR       A1, A1, A2, LSL #8    ; [DPU_V7M3_PIPE] |708| 
        SXTH      A1, A1                ; [DPU_V7M3_PIPE] |708| 
$C$DW$160	.dwtag  DW_TAG_TI_branch
	.dwattr $C$DW$160, DW_AT_low_pc(0x00)
	.dwattr $C$DW$160, DW_AT_name("__aeabi_i2f")
	.dwattr $C$DW$160, DW_AT_TI_call

        BL        __aeabi_i2f           ; [DPU_V7M3_PIPE] |708| 
        ; CALL OCCURS {__aeabi_i2f }     ; [] |708| 
        LDR       A2, $C$FL3            ; [DPU_V7M3_PIPE] |708| 
$C$DW$161	.dwtag  DW_TAG_TI_branch
	.dwattr $C$DW$161, DW_AT_low_pc(0x00)
	.dwattr $C$DW$161, DW_AT_name("__aeabi_fmul")
	.dwattr $C$DW$161, DW_AT_TI_call

        BL        __aeabi_fmul          ; [DPU_V7M3_PIPE] |708| 
        ; CALL OCCURS {__aeabi_fmul }    ; [] |708| 
        LDR       A2, $C$FL4            ; [DPU_V7M3_PIPE] |708| 
$C$DW$162	.dwtag  DW_TAG_TI_branch
	.dwattr $C$DW$162, DW_AT_low_pc(0x00)
	.dwattr $C$DW$162, DW_AT_name("__aeabi_fadd")
	.dwattr $C$DW$162, DW_AT_TI_call

        BL        __aeabi_fadd          ; [DPU_V7M3_PIPE] |708| 
        ; CALL OCCURS {__aeabi_fadd }    ; [] |708| 
        LDR       A2, $C$CON49          ; [DPU_V7M3_PIPE] |708| 
        STR       A1, [A2, #0]          ; [DPU_V7M3_PIPE] |708| 
	.dwpsn	file "../MPU9250/inv_mpu.c",line 709,column 3,is_stmt,isa 1
;----------------------------------------------------------------------
; 709 | ; }                                                                    
;----------------------------------------------------------------------
$C$DW$163	.dwtag  DW_TAG_TI_branch
	.dwattr $C$DW$163, DW_AT_low_pc(0x00)
	.dwattr $C$DW$163, DW_AT_TI_return

        POP       {A4, PC}              ; [DPU_V7M3_PIPE] 
	.dwcfi	cfa_offset, 0
	.dwcfi	restore_reg, 3
        ; BRANCH OCCURS                  ; [] 
	.dwattr $C$DW$139, DW_AT_TI_end_file("../MPU9250/inv_mpu.c")
	.dwattr $C$DW$139, DW_AT_TI_end_line(0x2c5)
	.dwattr $C$DW$139, DW_AT_TI_end_column(0x03)
	.dwendentry
	.dwendtag $C$DW$139

	.sect	".text:mpu_lp_accel_mode"
	.clink
	.thumbfunc mpu_lp_accel_mode
	.thumb
	.global	mpu_lp_accel_mode

$C$DW$164	.dwtag  DW_TAG_subprogram
	.dwattr $C$DW$164, DW_AT_name("mpu_lp_accel_mode")
	.dwattr $C$DW$164, DW_AT_low_pc(mpu_lp_accel_mode)
	.dwattr $C$DW$164, DW_AT_high_pc(0x00)
	.dwattr $C$DW$164, DW_AT_TI_symbol_name("mpu_lp_accel_mode")
	.dwattr $C$DW$164, DW_AT_external
	.dwattr $C$DW$164, DW_AT_type(*$C$DW$T$10)
	.dwattr $C$DW$164, DW_AT_TI_begin_file("../MPU9250/inv_mpu.c")
	.dwattr $C$DW$164, DW_AT_TI_begin_line(0x2d6)
	.dwattr $C$DW$164, DW_AT_TI_begin_column(0x05)
	.dwattr $C$DW$164, DW_AT_decl_file("../MPU9250/inv_mpu.c")
	.dwattr $C$DW$164, DW_AT_decl_line(0x2d6)
	.dwattr $C$DW$164, DW_AT_decl_column(0x05)
	.dwattr $C$DW$164, DW_AT_TI_max_frame_size(0x10)
	.dwpsn	file "../MPU9250/inv_mpu.c",line 727,column 1,is_stmt,address mpu_lp_accel_mode,isa 1

	.dwfde $C$DW$CIE, mpu_lp_accel_mode
$C$DW$165	.dwtag  DW_TAG_formal_parameter
	.dwattr $C$DW$165, DW_AT_name("rate")
	.dwattr $C$DW$165, DW_AT_TI_symbol_name("rate")
	.dwattr $C$DW$165, DW_AT_type(*$C$DW$T$10)
	.dwattr $C$DW$165, DW_AT_location[DW_OP_reg0]

;----------------------------------------------------------------------
; 726 | int mpu_lp_accel_mode(unsigned short rate)                             
;----------------------------------------------------------------------

;*****************************************************************************
;* FUNCTION NAME: mpu_lp_accel_mode                                          *
;*                                                                           *
;*   Regs Modified     : A1,A2,A3,A4,V9,SP,LR,SR                             *
;*   Regs Used         : A1,A2,A3,A4,V9,SP,LR,SR                             *
;*   Local Frame Size  : 0 Args + 8 Auto + 4 Save = 12 byte                  *
;*****************************************************************************
mpu_lp_accel_mode:
;* --------------------------------------------------------------------------*
	.dwcfi	cfa_offset, 0
        PUSH      {A2, A3, A4, LR}      ; [DPU_V7M3_PIPE] 
	.dwcfi	cfa_offset, 16
	.dwcfi	save_reg_to_mem, 14, -4
	.dwcfi	save_reg_to_mem, 3, -8
	.dwcfi	save_reg_to_mem, 2, -12
	.dwcfi	save_reg_to_mem, 1, -16
$C$DW$166	.dwtag  DW_TAG_variable
	.dwattr $C$DW$166, DW_AT_name("rate")
	.dwattr $C$DW$166, DW_AT_TI_symbol_name("rate")
	.dwattr $C$DW$166, DW_AT_type(*$C$DW$T$9)
	.dwattr $C$DW$166, DW_AT_location[DW_OP_breg13 0]

$C$DW$167	.dwtag  DW_TAG_variable
	.dwattr $C$DW$167, DW_AT_name("tmp")
	.dwattr $C$DW$167, DW_AT_TI_symbol_name("tmp")
	.dwattr $C$DW$167, DW_AT_type(*$C$DW$T$180)
	.dwattr $C$DW$167, DW_AT_location[DW_OP_breg13 2]

;----------------------------------------------------------------------
; 728 | unsigned char tmp[2];                                                  
;----------------------------------------------------------------------
        STRH      A1, [SP, #0]          ; [DPU_V7M3_PIPE] |727| 
	.dwpsn	file "../MPU9250/inv_mpu.c",line 730,column 5,is_stmt,isa 1
;----------------------------------------------------------------------
; 730 | if (rate > 40)                                                         
;----------------------------------------------------------------------
        LDRH      A1, [SP, #0]          ; [DPU_V7M3_PIPE] |730| 
        CMP       A1, #40               ; [DPU_V7M3_PIPE] |730| 
        BLE       ||$C$L81||            ; [DPU_V7M3_PIPE] |730| 
        ; BRANCHCC OCCURS {||$C$L81||}   ; [] |730| 
;* --------------------------------------------------------------------------*
	.dwpsn	file "../MPU9250/inv_mpu.c",line 731,column 9,is_stmt,isa 1
;----------------------------------------------------------------------
; 731 | return -1;                                                             
;----------------------------------------------------------------------
        MOV       A1, #-1               ; [DPU_V7M3_PIPE] |731| 
        B         ||$C$L96||            ; [DPU_V7M3_PIPE] |731| 
        ; BRANCH OCCURS {||$C$L96||}     ; [] |731| 
;* --------------------------------------------------------------------------*
||$C$L81||:    
	.dwpsn	file "../MPU9250/inv_mpu.c",line 733,column 5,is_stmt,isa 1
;----------------------------------------------------------------------
; 733 | if (!rate) {                                                           
;----------------------------------------------------------------------
        LDRH      A1, [SP, #0]          ; [DPU_V7M3_PIPE] |733| 
        CBNZ      A1, ||$C$L83||        ; [] 
        ; BRANCHCC OCCURS {||$C$L83||}   ; [] |733| 
;* --------------------------------------------------------------------------*
	.dwpsn	file "../MPU9250/inv_mpu.c",line 734,column 9,is_stmt,isa 1
;----------------------------------------------------------------------
; 734 | mpu_set_int_latched(0);                                                
;----------------------------------------------------------------------
        MOVS      A1, #0                ; [DPU_V7M3_PIPE] |734| 
$C$DW$168	.dwtag  DW_TAG_TI_branch
	.dwattr $C$DW$168, DW_AT_low_pc(0x00)
	.dwattr $C$DW$168, DW_AT_name("mpu_set_int_latched")
	.dwattr $C$DW$168, DW_AT_TI_call

        BL        mpu_set_int_latched   ; [DPU_V7M3_PIPE] |734| 
        ; CALL OCCURS {mpu_set_int_latched }  ; [] |734| 
	.dwpsn	file "../MPU9250/inv_mpu.c",line 735,column 9,is_stmt,isa 1
;----------------------------------------------------------------------
; 735 | tmp[0] = 0;                                                            
;----------------------------------------------------------------------
        MOVS      A1, #0                ; [DPU_V7M3_PIPE] |735| 
        STRB      A1, [SP, #2]          ; [DPU_V7M3_PIPE] |735| 
	.dwpsn	file "../MPU9250/inv_mpu.c",line 736,column 9,is_stmt,isa 1
;----------------------------------------------------------------------
; 736 | tmp[1] = BIT_STBY_XYZG;                                                
;----------------------------------------------------------------------
        MOVS      A1, #7                ; [DPU_V7M3_PIPE] |736| 
        STRB      A1, [SP, #3]          ; [DPU_V7M3_PIPE] |736| 
	.dwpsn	file "../MPU9250/inv_mpu.c",line 737,column 9,is_stmt,isa 1
;----------------------------------------------------------------------
; 737 | if (i2c_write(st.hw->addr, st.reg->pwr_mgmt_1, 2, tmp))                
;----------------------------------------------------------------------
        LDR       A1, $C$CON50          ; [DPU_V7M3_PIPE] |737| 
        LDR       A1, [A1, #0]          ; [DPU_V7M3_PIPE] |737| 
        LDRB      A1, [A1, #21]         ; [DPU_V7M3_PIPE] |737| 
        MOVS      A2, #2                ; [DPU_V7M3_PIPE] |737| 
        ADD       A3, SP, #2            ; [DPU_V7M3_PIPE] |737| 
$C$DW$169	.dwtag  DW_TAG_TI_branch
	.dwattr $C$DW$169, DW_AT_low_pc(0x00)
	.dwattr $C$DW$169, DW_AT_name("WR_MPU")
	.dwattr $C$DW$169, DW_AT_TI_call

        BL        WR_MPU                ; [DPU_V7M3_PIPE] |737| 
        ; CALL OCCURS {WR_MPU }          ; [] |737| 
        CBZ       A1, ||$C$L82||        ; [] 
        ; BRANCHCC OCCURS {||$C$L82||}   ; [] |737| 
;* --------------------------------------------------------------------------*
	.dwpsn	file "../MPU9250/inv_mpu.c",line 738,column 13,is_stmt,isa 1
;----------------------------------------------------------------------
; 738 | return -1;                                                             
;----------------------------------------------------------------------
        MOV       A1, #-1               ; [DPU_V7M3_PIPE] |738| 
        B         ||$C$L96||            ; [DPU_V7M3_PIPE] |738| 
        ; BRANCH OCCURS {||$C$L96||}     ; [] |738| 
;* --------------------------------------------------------------------------*
||$C$L82||:    
	.dwpsn	file "../MPU9250/inv_mpu.c",line 739,column 9,is_stmt,isa 1
;----------------------------------------------------------------------
; 739 | st.chip_cfg.lp_accel_mode = 0;                                         
;----------------------------------------------------------------------
        LDR       A2, $C$CON51          ; [DPU_V7M3_PIPE] |739| 
        MOVS      A1, #0                ; [DPU_V7M3_PIPE] |739| 
        STRB      A1, [A2, #0]          ; [DPU_V7M3_PIPE] |739| 
	.dwpsn	file "../MPU9250/inv_mpu.c",line 740,column 9,is_stmt,isa 1
;----------------------------------------------------------------------
; 740 | return 0;                                                              
;----------------------------------------------------------------------
        MOVS      A1, #0                ; [DPU_V7M3_PIPE] |740| 
        B         ||$C$L96||            ; [DPU_V7M3_PIPE] |740| 
        ; BRANCH OCCURS {||$C$L96||}     ; [] |740| 
;* --------------------------------------------------------------------------*
||$C$L83||:    
	.dwpsn	file "../MPU9250/inv_mpu.c",line 749,column 5,is_stmt,isa 1
;----------------------------------------------------------------------
; 749 | mpu_set_int_latched(1);                                                
; 750 | #if defined MPU6050                                                    
; 751 | tmp[0] = BIT_LPA_CYCLE;                                                
; 752 | if (rate == 1) {                                                       
; 753 |     tmp[1] = INV_LPA_1_25HZ;                                           
; 754 |     mpu_set_lpf(5);                                                    
; 755 | } else if (rate <= 5) {                                                
; 756 |     tmp[1] = INV_LPA_5HZ;                                              
; 757 |     mpu_set_lpf(5);                                                    
; 758 | } else if (rate <= 20) {                                               
; 759 |     tmp[1] = INV_LPA_20HZ;                                             
; 760 |     mpu_set_lpf(10);                                                   
; 761 | } else {                                                               
; 762 |     tmp[1] = INV_LPA_40HZ;                                             
; 763 |     mpu_set_lpf(20);                                                   
; 765 | tmp[1] = (tmp[1] << 6) | BIT_STBY_XYZG;                                
; 766 | if (i2c_write(st.hw->addr, st.reg->pwr_mgmt_1, 2, tmp))                
; 767 |     return -1;                                                         
; 768 | #elif defined MPU6500                                                  
;----------------------------------------------------------------------
        MOVS      A1, #1                ; [DPU_V7M3_PIPE] |749| 
$C$DW$170	.dwtag  DW_TAG_TI_branch
	.dwattr $C$DW$170, DW_AT_low_pc(0x00)
	.dwattr $C$DW$170, DW_AT_name("mpu_set_int_latched")
	.dwattr $C$DW$170, DW_AT_TI_call

        BL        mpu_set_int_latched   ; [DPU_V7M3_PIPE] |749| 
        ; CALL OCCURS {mpu_set_int_latched }  ; [] |749| 
	.dwpsn	file "../MPU9250/inv_mpu.c",line 770,column 5,is_stmt,isa 1
;----------------------------------------------------------------------
; 770 | if (rate == 1)                                                         
;----------------------------------------------------------------------
        LDRH      A1, [SP, #0]          ; [DPU_V7M3_PIPE] |770| 
        CMP       A1, #1                ; [DPU_V7M3_PIPE] |770| 
        BNE       ||$C$L84||            ; [DPU_V7M3_PIPE] |770| 
        ; BRANCHCC OCCURS {||$C$L84||}   ; [] |770| 
;* --------------------------------------------------------------------------*
	.dwpsn	file "../MPU9250/inv_mpu.c",line 771,column 9,is_stmt,isa 1
;----------------------------------------------------------------------
; 771 | tmp[0] = INV_LPA_1_25HZ;                                               
;----------------------------------------------------------------------
        MOVS      A1, #2                ; [DPU_V7M3_PIPE] |771| 
        STRB      A1, [SP, #2]          ; [DPU_V7M3_PIPE] |771| 
        B         ||$C$L93||            ; [DPU_V7M3_PIPE] 
        ; BRANCH OCCURS {||$C$L93||}     ; [] 
;* --------------------------------------------------------------------------*
||$C$L84||:    
	.dwpsn	file "../MPU9250/inv_mpu.c",line 772,column 10,is_stmt,isa 1
;----------------------------------------------------------------------
; 772 | else if (rate == 2)                                                    
;----------------------------------------------------------------------
        LDRH      A1, [SP, #0]          ; [DPU_V7M3_PIPE] |772| 
        CMP       A1, #2                ; [DPU_V7M3_PIPE] |772| 
        BNE       ||$C$L85||            ; [DPU_V7M3_PIPE] |772| 
        ; BRANCHCC OCCURS {||$C$L85||}   ; [] |772| 
;* --------------------------------------------------------------------------*
	.dwpsn	file "../MPU9250/inv_mpu.c",line 773,column 9,is_stmt,isa 1
;----------------------------------------------------------------------
; 773 | tmp[0] = INV_LPA_2_5HZ;                                                
;----------------------------------------------------------------------
        MOVS      A1, #3                ; [DPU_V7M3_PIPE] |773| 
        STRB      A1, [SP, #2]          ; [DPU_V7M3_PIPE] |773| 
        B         ||$C$L93||            ; [DPU_V7M3_PIPE] 
        ; BRANCH OCCURS {||$C$L93||}     ; [] 
;* --------------------------------------------------------------------------*
||$C$L85||:    
	.dwpsn	file "../MPU9250/inv_mpu.c",line 774,column 10,is_stmt,isa 1
;----------------------------------------------------------------------
; 774 | else if (rate <= 5)                                                    
;----------------------------------------------------------------------
        LDRH      A1, [SP, #0]          ; [DPU_V7M3_PIPE] |774| 
        CMP       A1, #5                ; [DPU_V7M3_PIPE] |774| 
        BGT       ||$C$L86||            ; [DPU_V7M3_PIPE] |774| 
        ; BRANCHCC OCCURS {||$C$L86||}   ; [] |774| 
;* --------------------------------------------------------------------------*
	.dwpsn	file "../MPU9250/inv_mpu.c",line 775,column 9,is_stmt,isa 1
;----------------------------------------------------------------------
; 775 | tmp[0] = INV_LPA_5HZ;                                                  
;----------------------------------------------------------------------
        MOVS      A1, #4                ; [DPU_V7M3_PIPE] |775| 
        STRB      A1, [SP, #2]          ; [DPU_V7M3_PIPE] |775| 
        B         ||$C$L93||            ; [DPU_V7M3_PIPE] 
        ; BRANCH OCCURS {||$C$L93||}     ; [] 
;* --------------------------------------------------------------------------*
||$C$L86||:    
	.dwpsn	file "../MPU9250/inv_mpu.c",line 776,column 10,is_stmt,isa 1
;----------------------------------------------------------------------
; 776 | else if (rate <= 10)                                                   
;----------------------------------------------------------------------
        LDRH      A1, [SP, #0]          ; [DPU_V7M3_PIPE] |776| 
        CMP       A1, #10               ; [DPU_V7M3_PIPE] |776| 
        BGT       ||$C$L87||            ; [DPU_V7M3_PIPE] |776| 
        ; BRANCHCC OCCURS {||$C$L87||}   ; [] |776| 
;* --------------------------------------------------------------------------*
	.dwpsn	file "../MPU9250/inv_mpu.c",line 777,column 9,is_stmt,isa 1
;----------------------------------------------------------------------
; 777 | tmp[0] = INV_LPA_10HZ;                                                 
;----------------------------------------------------------------------
        MOVS      A1, #5                ; [DPU_V7M3_PIPE] |777| 
        STRB      A1, [SP, #2]          ; [DPU_V7M3_PIPE] |777| 
        B         ||$C$L93||            ; [DPU_V7M3_PIPE] 
        ; BRANCH OCCURS {||$C$L93||}     ; [] 
;* --------------------------------------------------------------------------*
||$C$L87||:    
	.dwpsn	file "../MPU9250/inv_mpu.c",line 778,column 10,is_stmt,isa 1
;----------------------------------------------------------------------
; 778 | else if (rate <= 20)                                                   
;----------------------------------------------------------------------
        LDRH      A1, [SP, #0]          ; [DPU_V7M3_PIPE] |778| 
        CMP       A1, #20               ; [DPU_V7M3_PIPE] |778| 
        BGT       ||$C$L88||            ; [DPU_V7M3_PIPE] |778| 
        ; BRANCHCC OCCURS {||$C$L88||}   ; [] |778| 
;* --------------------------------------------------------------------------*
	.dwpsn	file "../MPU9250/inv_mpu.c",line 779,column 9,is_stmt,isa 1
;----------------------------------------------------------------------
; 779 | tmp[0] = INV_LPA_20HZ;                                                 
;----------------------------------------------------------------------
        MOVS      A1, #6                ; [DPU_V7M3_PIPE] |779| 
        STRB      A1, [SP, #2]          ; [DPU_V7M3_PIPE] |779| 
        B         ||$C$L93||            ; [DPU_V7M3_PIPE] 
        ; BRANCH OCCURS {||$C$L93||}     ; [] 
;* --------------------------------------------------------------------------*
||$C$L88||:    
	.dwpsn	file "../MPU9250/inv_mpu.c",line 780,column 10,is_stmt,isa 1
;----------------------------------------------------------------------
; 780 | else if (rate <= 40)                                                   
;----------------------------------------------------------------------
        LDRH      A1, [SP, #0]          ; [DPU_V7M3_PIPE] |780| 
        CMP       A1, #40               ; [DPU_V7M3_PIPE] |780| 
        BGT       ||$C$L89||            ; [DPU_V7M3_PIPE] |780| 
        ; BRANCHCC OCCURS {||$C$L89||}   ; [] |780| 
;* --------------------------------------------------------------------------*
	.dwpsn	file "../MPU9250/inv_mpu.c",line 781,column 9,is_stmt,isa 1
;----------------------------------------------------------------------
; 781 | tmp[0] = INV_LPA_40HZ;                                                 
;----------------------------------------------------------------------
        MOVS      A1, #7                ; [DPU_V7M3_PIPE] |781| 
        STRB      A1, [SP, #2]          ; [DPU_V7M3_PIPE] |781| 
        B         ||$C$L93||            ; [DPU_V7M3_PIPE] 
        ; BRANCH OCCURS {||$C$L93||}     ; [] 
;* --------------------------------------------------------------------------*
||$C$L89||:    
	.dwpsn	file "../MPU9250/inv_mpu.c",line 782,column 10,is_stmt,isa 1
;----------------------------------------------------------------------
; 782 | else if (rate <= 80)                                                   
;----------------------------------------------------------------------
        LDRH      A1, [SP, #0]          ; [DPU_V7M3_PIPE] |782| 
        CMP       A1, #80               ; [DPU_V7M3_PIPE] |782| 
        BGT       ||$C$L90||            ; [DPU_V7M3_PIPE] |782| 
        ; BRANCHCC OCCURS {||$C$L90||}   ; [] |782| 
;* --------------------------------------------------------------------------*
	.dwpsn	file "../MPU9250/inv_mpu.c",line 783,column 9,is_stmt,isa 1
;----------------------------------------------------------------------
; 783 | tmp[0] = INV_LPA_80HZ;                                                 
;----------------------------------------------------------------------
        MOVS      A1, #8                ; [DPU_V7M3_PIPE] |783| 
        STRB      A1, [SP, #2]          ; [DPU_V7M3_PIPE] |783| 
        B         ||$C$L93||            ; [DPU_V7M3_PIPE] 
        ; BRANCH OCCURS {||$C$L93||}     ; [] 
;* --------------------------------------------------------------------------*
||$C$L90||:    
	.dwpsn	file "../MPU9250/inv_mpu.c",line 784,column 10,is_stmt,isa 1
;----------------------------------------------------------------------
; 784 | else if (rate <= 160)                                                  
;----------------------------------------------------------------------
        LDRH      A1, [SP, #0]          ; [DPU_V7M3_PIPE] |784| 
        CMP       A1, #160              ; [DPU_V7M3_PIPE] |784| 
        BGT       ||$C$L91||            ; [DPU_V7M3_PIPE] |784| 
        ; BRANCHCC OCCURS {||$C$L91||}   ; [] |784| 
;* --------------------------------------------------------------------------*
	.dwpsn	file "../MPU9250/inv_mpu.c",line 785,column 9,is_stmt,isa 1
;----------------------------------------------------------------------
; 785 | tmp[0] = INV_LPA_160HZ;                                                
;----------------------------------------------------------------------
        MOVS      A1, #9                ; [DPU_V7M3_PIPE] |785| 
        STRB      A1, [SP, #2]          ; [DPU_V7M3_PIPE] |785| 
        B         ||$C$L93||            ; [DPU_V7M3_PIPE] 
        ; BRANCH OCCURS {||$C$L93||}     ; [] 
;* --------------------------------------------------------------------------*
||$C$L91||:    
	.dwpsn	file "../MPU9250/inv_mpu.c",line 786,column 10,is_stmt,isa 1
;----------------------------------------------------------------------
; 786 | else if (rate <= 320)                                                  
;----------------------------------------------------------------------
        LDRH      A1, [SP, #0]          ; [DPU_V7M3_PIPE] |786| 
        CMP       A1, #320              ; [DPU_V7M3_PIPE] |786| 
        BGT       ||$C$L92||            ; [DPU_V7M3_PIPE] |786| 
        ; BRANCHCC OCCURS {||$C$L92||}   ; [] |786| 
;* --------------------------------------------------------------------------*
	.dwpsn	file "../MPU9250/inv_mpu.c",line 787,column 9,is_stmt,isa 1
;----------------------------------------------------------------------
; 787 | tmp[0] = INV_LPA_320HZ;                                                
; 788 | else                                                                   
;----------------------------------------------------------------------
        MOVS      A1, #10               ; [DPU_V7M3_PIPE] |787| 
        STRB      A1, [SP, #2]          ; [DPU_V7M3_PIPE] |787| 
        B         ||$C$L93||            ; [DPU_V7M3_PIPE] 
        ; BRANCH OCCURS {||$C$L93||}     ; [] 
;* --------------------------------------------------------------------------*
||$C$L92||:    
	.dwpsn	file "../MPU9250/inv_mpu.c",line 789,column 9,is_stmt,isa 1
;----------------------------------------------------------------------
; 789 | tmp[0] = INV_LPA_640HZ;                                                
;----------------------------------------------------------------------
        MOVS      A1, #11               ; [DPU_V7M3_PIPE] |789| 
        STRB      A1, [SP, #2]          ; [DPU_V7M3_PIPE] |789| 
;* --------------------------------------------------------------------------*
||$C$L93||:    
	.dwpsn	file "../MPU9250/inv_mpu.c",line 790,column 5,is_stmt,isa 1
;----------------------------------------------------------------------
; 790 | if (i2c_write(st.hw->addr, st.reg->lp_accel_odr, 1, tmp))              
;----------------------------------------------------------------------
        LDR       A1, $C$CON50          ; [DPU_V7M3_PIPE] |790| 
        LDR       A1, [A1, #0]          ; [DPU_V7M3_PIPE] |790| 
        LDRB      A1, [A1, #9]          ; [DPU_V7M3_PIPE] |790| 
        MOVS      A2, #1                ; [DPU_V7M3_PIPE] |790| 
        ADD       A3, SP, #2            ; [DPU_V7M3_PIPE] |790| 
$C$DW$171	.dwtag  DW_TAG_TI_branch
	.dwattr $C$DW$171, DW_AT_low_pc(0x00)
	.dwattr $C$DW$171, DW_AT_name("WR_MPU")
	.dwattr $C$DW$171, DW_AT_TI_call

        BL        WR_MPU                ; [DPU_V7M3_PIPE] |790| 
        ; CALL OCCURS {WR_MPU }          ; [] |790| 
        CBZ       A1, ||$C$L94||        ; [] 
        ; BRANCHCC OCCURS {||$C$L94||}   ; [] |790| 
;* --------------------------------------------------------------------------*
	.dwpsn	file "../MPU9250/inv_mpu.c",line 791,column 9,is_stmt,isa 1
;----------------------------------------------------------------------
; 791 | return -1;                                                             
;----------------------------------------------------------------------
        MOV       A1, #-1               ; [DPU_V7M3_PIPE] |791| 
        B         ||$C$L96||            ; [DPU_V7M3_PIPE] |791| 
        ; BRANCH OCCURS {||$C$L96||}     ; [] |791| 
;* --------------------------------------------------------------------------*
||$C$L94||:    
	.dwpsn	file "../MPU9250/inv_mpu.c",line 792,column 5,is_stmt,isa 1
;----------------------------------------------------------------------
; 792 | tmp[0] = BIT_LPA_CYCLE;                                                
;----------------------------------------------------------------------
        MOVS      A1, #32               ; [DPU_V7M3_PIPE] |792| 
        STRB      A1, [SP, #2]          ; [DPU_V7M3_PIPE] |792| 
	.dwpsn	file "../MPU9250/inv_mpu.c",line 793,column 5,is_stmt,isa 1
;----------------------------------------------------------------------
; 793 | if (i2c_write(st.hw->addr, st.reg->pwr_mgmt_1, 1, tmp))                
;----------------------------------------------------------------------
        LDR       A1, $C$CON50          ; [DPU_V7M3_PIPE] |793| 
        LDR       A1, [A1, #0]          ; [DPU_V7M3_PIPE] |793| 
        LDRB      A1, [A1, #21]         ; [DPU_V7M3_PIPE] |793| 
        MOVS      A2, #1                ; [DPU_V7M3_PIPE] |793| 
        ADD       A3, SP, #2            ; [DPU_V7M3_PIPE] |793| 
$C$DW$172	.dwtag  DW_TAG_TI_branch
	.dwattr $C$DW$172, DW_AT_low_pc(0x00)
	.dwattr $C$DW$172, DW_AT_name("WR_MPU")
	.dwattr $C$DW$172, DW_AT_TI_call

        BL        WR_MPU                ; [DPU_V7M3_PIPE] |793| 
        ; CALL OCCURS {WR_MPU }          ; [] |793| 
        CBZ       A1, ||$C$L95||        ; [] 
        ; BRANCHCC OCCURS {||$C$L95||}   ; [] |793| 
;* --------------------------------------------------------------------------*
	.dwpsn	file "../MPU9250/inv_mpu.c",line 794,column 9,is_stmt,isa 1
;----------------------------------------------------------------------
; 794 | return -1;                                                             
; 795 | #endif                                                                 
;----------------------------------------------------------------------
        MOV       A1, #-1               ; [DPU_V7M3_PIPE] |794| 
        B         ||$C$L96||            ; [DPU_V7M3_PIPE] |794| 
        ; BRANCH OCCURS {||$C$L96||}     ; [] |794| 
;* --------------------------------------------------------------------------*
||$C$L95||:    
	.dwpsn	file "../MPU9250/inv_mpu.c",line 796,column 5,is_stmt,isa 1
;----------------------------------------------------------------------
; 796 | st.chip_cfg.sensors = INV_XYZ_ACCEL;                                   
;----------------------------------------------------------------------
        LDR       A2, $C$CON52          ; [DPU_V7M3_PIPE] |796| 
        MOVS      A1, #8                ; [DPU_V7M3_PIPE] |796| 
        STRB      A1, [A2, #0]          ; [DPU_V7M3_PIPE] |796| 
	.dwpsn	file "../MPU9250/inv_mpu.c",line 797,column 5,is_stmt,isa 1
;----------------------------------------------------------------------
; 797 | st.chip_cfg.clk_src = 0;                                               
;----------------------------------------------------------------------
        LDR       A2, $C$CON53          ; [DPU_V7M3_PIPE] |797| 
        MOVS      A1, #0                ; [DPU_V7M3_PIPE] |797| 
        STRB      A1, [A2, #0]          ; [DPU_V7M3_PIPE] |797| 
	.dwpsn	file "../MPU9250/inv_mpu.c",line 798,column 5,is_stmt,isa 1
;----------------------------------------------------------------------
; 798 | st.chip_cfg.lp_accel_mode = 1;                                         
;----------------------------------------------------------------------
        LDR       A2, $C$CON51          ; [DPU_V7M3_PIPE] |798| 
        MOVS      A1, #1                ; [DPU_V7M3_PIPE] |798| 
        STRB      A1, [A2, #0]          ; [DPU_V7M3_PIPE] |798| 
	.dwpsn	file "../MPU9250/inv_mpu.c",line 799,column 5,is_stmt,isa 1
;----------------------------------------------------------------------
; 799 | mpu_configure_fifo(0);                                                 
