TI ARM Assembler Unix v20.2.4 Fri Apr  2 00:57:47 2021

Copyright (c) 1996-2018 Texas Instruments Incorporated
inv_mpu.asm                                                          PAGE    1

       1                    ;******************************************************************************
       2                    ;* TI ARM G3 C/C++ Codegen                                          Unix v20.2.4.LTS *
       3                    ;* Date/Time created: Fri Apr  2 00:57:45 2021                                *
       4                    ;******************************************************************************
       5                            .compiler_opts --abi=eabi --arm_vmrs_si_workaround=off --code_state=16 --diag_wrap=off --embed
       6 00000000                   .thumb
       7                    
       8                    $C$DW$CU        .dwtag  DW_TAG_compile_unit
       9                            .dwattr $C$DW$CU, DW_AT_name("../MPU9250/inv_mpu.c")
      10                            .dwattr $C$DW$CU, DW_AT_producer("TI TI ARM G3 C/C++ Codegen Unix v20.2.4.LTS Copyright (c) 19
      11                            .dwattr $C$DW$CU, DW_AT_TI_version(0x01)
      12                            .dwattr $C$DW$CU, DW_AT_comp_dir("/home/merdak/KOLTEST/TIV10/Quad/Debug")
      13                            .global reg
      14 00000000                   .sect   ".const:reg"
      15                            .align  1
      16                            .elfsym reg,SYM_SIZE(42)
      17 00000000           reg:
      18 00000000 00000075          .bits           0x75,8
      19                                            ; reg.who_am_i @ 0
      20 00000000 00001975          .bits           0x19,8
      21                                            ; reg.rate_div @ 8
      22 00000000 001A1975          .bits           0x1a,8
      23                                            ; reg.lpf @ 16
      24 00000000 0C1A1975          .bits           0xc,8
      25                                            ; reg.prod_id @ 24
      26 00000004 0000006A          .bits           0x6a,8
      27                                            ; reg.user_ctrl @ 32
      28 00000004 0000236A          .bits           0x23,8
      29                                            ; reg.fifo_en @ 40
      30 00000004 001B236A          .bits           0x1b,8
      31                                            ; reg.gyro_cfg @ 48
      32 00000004 1C1B236A          .bits           0x1c,8
      33                                            ; reg.accel_cfg @ 56
      34 00000008 0000001D          .bits           0x1d,8
      35                                            ; reg.accel_cfg2 @ 64
      36 00000008 00001E1D          .bits           0x1e,8
      37                                            ; reg.lp_accel_odr @ 72
      38 00000008 001F1E1D          .bits           0x1f,8
      39                                            ; reg.motion_thr @ 80
      40 00000008 201F1E1D          .bits           0x20,8
      41                                            ; reg.motion_dur @ 88
      42 0000000c 00000072          .bits           0x72,8
      43                                            ; reg.fifo_count_h @ 96
      44 0000000c 00007472          .bits           0x74,8
      45                                            ; reg.fifo_r_w @ 104
      46 0000000c 00437472          .bits           0x43,8
      47                                            ; reg.raw_gyro @ 112
      48 0000000c 3B437472          .bits           0x3b,8
      49                                            ; reg.raw_accel @ 120
      50 00000010 00000041          .bits           0x41,8
      51                                            ; reg.temp @ 128
      52 00000010 00003841          .bits           0x38,8
      53                                            ; reg.int_enable @ 136
      54 00000010 00393841          .bits           0x39,8
      55                                            ; reg.dmp_int_status @ 144
TI ARM Assembler Unix v20.2.4 Fri Apr  2 00:57:47 2021

Copyright (c) 1996-2018 Texas Instruments Incorporated
inv_mpu.asm                                                          PAGE    2

      56 00000010 3A393841          .bits           0x3a,8
      57                                            ; reg.int_status @ 152
      58 00000014 00000069          .bits           0x69,8
      59                                            ; reg.accel_intel @ 160
      60 00000014 00006B69          .bits           0x6b,8
      61                                            ; reg.pwr_mgmt_1 @ 168
      62 00000014 006C6B69          .bits           0x6c,8
      63                                            ; reg.pwr_mgmt_2 @ 176
      64 00000014 376C6B69          .bits           0x37,8
      65                                            ; reg.int_pin_cfg @ 184
      66 00000018 0000006F          .bits           0x6f,8
      67                                            ; reg.mem_r_w @ 192
      68 00000018 0000776F          .bits           0x77,8
      69                                            ; reg.accel_offs @ 200
      70 00000018 0024776F          .bits           0x24,8
      71                                            ; reg.i2c_mst @ 208
      72 00000018 6D24776F          .bits           0x6d,8
      73                                            ; reg.bank_sel @ 216
      74 0000001c 0000006E          .bits           0x6e,8
      75                                            ; reg.mem_start_addr @ 224
      76 0000001c 0000706E          .bits           0x70,8
      77                                            ; reg.prgm_start_h @ 232
      78 0000001c 0025706E          .bits           0x25,8
      79                                            ; reg.s0_addr @ 240
      80 0000001c 2625706E          .bits           0x26,8
      81                                            ; reg.s0_reg @ 248
      82 00000020 00000027          .bits           0x27,8
      83                                            ; reg.s0_ctrl @ 256
      84 00000020 00002827          .bits           0x28,8
      85                                            ; reg.s1_addr @ 264
      86 00000020 00292827          .bits           0x29,8
      87                                            ; reg.s1_reg @ 272
      88 00000020 2A292827          .bits           0x2a,8
      89                                            ; reg.s1_ctrl @ 280
      90 00000024 00000034          .bits           0x34,8
      91                                            ; reg.s4_ctrl @ 288
      92 00000024 00006334          .bits           0x63,8
      93                                            ; reg.s0_do @ 296
      94 00000024 00646334          .bits           0x64,8
      95                                            ; reg.s1_do @ 304
      96 00000024 67646334          .bits           0x67,8
      97                                            ; reg.i2c_delay_ctrl @ 312
      98 00000028 00000049          .bits           0x49,8
      99                                            ; reg.raw_compass @ 320
     100 00000028 00000049          .bits           0,8
     101                    
     102                    
     103                    $C$DW$1 .dwtag  DW_TAG_variable
     104                            .dwattr $C$DW$1, DW_AT_name("reg")
     105                            .dwattr $C$DW$1, DW_AT_TI_symbol_name("reg")
     106                            .dwattr $C$DW$1, DW_AT_location[DW_OP_addr reg]
     107                            .dwattr $C$DW$1, DW_AT_type(*$C$DW$T$129)
     108                            .dwattr $C$DW$1, DW_AT_external
     109                            .dwattr $C$DW$1, DW_AT_decl_file("../MPU9250/inv_mpu.c")
     110                            .dwattr $C$DW$1, DW_AT_decl_line(0x1d9)
TI ARM Assembler Unix v20.2.4 Fri Apr  2 00:57:47 2021

Copyright (c) 1996-2018 Texas Instruments Incorporated
inv_mpu.asm                                                          PAGE    3

     111                            .dwattr $C$DW$1, DW_AT_decl_column(0x19)
     112                    
     113                            .global hw
     114 00000000                   .sect   ".const:hw"
     115                            .align  2
     116                            .elfsym hw,SYM_SIZE(14)
     117 00000000           hw:
     118 00000000 00000068          .bits           0x68,8
     119                                            ; hw.addr @ 0
     120 00000000 00000068          .bits           0,8
     121                    
     122 00000000 04000068          .bits           0x400,16
     123                                            ; hw.max_fifo @ 16
     124 00000004 00000080          .bits           0x80,8
     125                                            ; hw.num_reg @ 32
     126 00000004 00000080          .bits           0,8
     127                    
     128 00000004 01410080          .bits           0x141,16
     129                                            ; hw.temp_sens @ 48
     130 00000008 00000000          .bits           0,16
     131                                            ; hw.temp_offset @ 64
     132 00000008 01000000          .bits           0x100,16
     133                                            ; hw.bank_size @ 80
     134 0000000c 00001333          .bits           0x1333,16
     135                                            ; hw.compass_fsr @ 96
     136                    
     137                    $C$DW$2 .dwtag  DW_TAG_variable
     138                            .dwattr $C$DW$2, DW_AT_name("hw")
     139                            .dwattr $C$DW$2, DW_AT_TI_symbol_name("hw")
     140                            .dwattr $C$DW$2, DW_AT_location[DW_OP_addr hw]
     141                            .dwattr $C$DW$2, DW_AT_type(*$C$DW$T$131)
     142                            .dwattr $C$DW$2, DW_AT_external
     143                            .dwattr $C$DW$2, DW_AT_decl_file("../MPU9250/inv_mpu.c")
     144                            .dwattr $C$DW$2, DW_AT_decl_line(0x206)
     145                            .dwattr $C$DW$2, DW_AT_decl_column(0x13)
     146                    
     147                            .global test
     148 00000000                   .sect   ".const:test"
     149                            .align  4
     150                            .elfsym test,SYM_SIZE(48)
     151 00000000           test:
     152 00000000 00000083          .bits           0x83,32
     153                                            ; test.gyro_sens @ 0
     154 00000004 00004000          .bits           0x4000,32
     155                                            ; test.accel_sens @ 32
     156 00000008 00000000          .bits           0,8
     157                                            ; test.reg_rate_div @ 64
     158 00000008 00000200          .bits           0x2,8
     159                                            ; test.reg_lpf @ 72
     160 00000008 00000200          .bits           0,8
     161                                            ; test.reg_gyro_fsr @ 80
     162 00000008 00000200          .bits           0,8
     163                                            ; test.reg_accel_fsr @ 88
     164 0000000c 000000C8          .bits           0xc8,16
     165                                            ; test.wait_ms @ 96
TI ARM Assembler Unix v20.2.4 Fri Apr  2 00:57:47 2021

Copyright (c) 1996-2018 Texas Instruments Incorporated
inv_mpu.asm                                                          PAGE    4

     166 0000000c 00C800C8          .bits           0xc8,8
     167                                            ; test.packet_thresh @ 112
     168 0000000c 00C800C8          .bits           0,8
     169                    
     170 00000010 41A00000          .word   041a00000h      ; test.min_dps @ 128 (20)
     171 00000014 42700000          .word   042700000h      ; test.max_dps @ 160 (60)
     172 00000018 3F000000          .word   03f000000h      ; test.max_gyro_var @ 192 (0.5)
     173 0000001c 3E666666          .word   03e666666h      ; test.min_g @ 224 (0.22499999403953552246)
     174 00000020 3F2CCCCD          .word   03f2ccccdh      ; test.max_g @ 256 (0.67500001192092895508)
     175 00000024 3F000000          .word   03f000000h      ; test.max_accel_var @ 288 (0.5)
     176 00000028 3F000000          .word   03f000000h      ; test.max_g_offset @ 320 (0.5)
     177 0000002c 0000000A          .bits           0xa,16
     178                                            ; test.sample_wait_ms @ 352
     179 0000002c 0000000A          .bits           0,16
     180                    
     181                    
     182                    $C$DW$3 .dwtag  DW_TAG_variable
     183                            .dwattr $C$DW$3, DW_AT_name("test")
     184                            .dwattr $C$DW$3, DW_AT_TI_symbol_name("test")
     185                            .dwattr $C$DW$3, DW_AT_location[DW_OP_addr test]
     186                            .dwattr $C$DW$3, DW_AT_type(*$C$DW$T$133)
     187                            .dwattr $C$DW$3, DW_AT_external
     188                            .dwattr $C$DW$3, DW_AT_decl_file("../MPU9250/inv_mpu.c")
     189                            .dwattr $C$DW$3, DW_AT_decl_line(0x212)
     190                            .dwattr $C$DW$3, DW_AT_decl_column(0x15)
     191                    
     192                            .global st
     193 00000000                   .sect   ".data:st", RW
     194                            .align  4
     195                            .elfsym st,SYM_SIZE(56)
     196 00000000           st:
     197 00000000 00000000!         .bits   reg,32          ; st.reg @ 0
     198 00000004 00000000!         .bits   hw,32           ; st.hw @ 32
     199 00000008 00000000          .bits           0,8
     200                                            ; st.chip_cfg.gyro_fsr @ 64
     201 00000009                   .space  43
     202 00000034 00000000!         .bits   test,32         ; st.test @ 416
     203                    
     204                    $C$DW$4 .dwtag  DW_TAG_variable
     205                            .dwattr $C$DW$4, DW_AT_name("st")
     206                            .dwattr $C$DW$4, DW_AT_TI_symbol_name("st")
     207                            .dwattr $C$DW$4, DW_AT_location[DW_OP_addr st]
     208                            .dwattr $C$DW$4, DW_AT_type(*$C$DW$T$135)
     209                            .dwattr $C$DW$4, DW_AT_external
     210                            .dwattr $C$DW$4, DW_AT_decl_file("../MPU9250/inv_mpu.c")
     211                            .dwattr $C$DW$4, DW_AT_decl_line(0x225)
     212                            .dwattr $C$DW$4, DW_AT_decl_column(0x15)
     213                    
     214                            .global mpu
     215                            .common mpu,220,4
     216                    $C$DW$5 .dwtag  DW_TAG_variable
     217                            .dwattr $C$DW$5, DW_AT_name("mpu")
     218                            .dwattr $C$DW$5, DW_AT_TI_symbol_name("mpu")
     219                            .dwattr $C$DW$5, DW_AT_location[DW_OP_addr mpu]
     220                            .dwattr $C$DW$5, DW_AT_type(*$C$DW$T$139)
TI ARM Assembler Unix v20.2.4 Fri Apr  2 00:57:47 2021

Copyright (c) 1996-2018 Texas Instruments Incorporated
inv_mpu.asm                                                          PAGE    5

     221                            .dwattr $C$DW$5, DW_AT_external
     222                            .dwattr $C$DW$5, DW_AT_decl_file("../MPU9250/inv_mpu.c")
     223                            .dwattr $C$DW$5, DW_AT_decl_line(0x28a)
     224                            .dwattr $C$DW$5, DW_AT_decl_column(0x07)
     225                    
     226                            .global mpu_err
     227 00000000                   .data
     228                            .align  4
     229                            .elfsym mpu_err,SYM_SIZE(4)
     230 00000000           mpu_err:
     231 00000000 00000000          .bits           0,32
     232                                            ; mpu_err @ 0
     233                    
     234                    $C$DW$6 .dwtag  DW_TAG_variable
     235                            .dwattr $C$DW$6, DW_AT_name("mpu_err")
     236                            .dwattr $C$DW$6, DW_AT_TI_symbol_name("mpu_err")
     237                            .dwattr $C$DW$6, DW_AT_location[DW_OP_addr mpu_err]
     238                            .dwattr $C$DW$6, DW_AT_type(*$C$DW$T$10)
     239                            .dwattr $C$DW$6, DW_AT_external
     240                            .dwattr $C$DW$6, DW_AT_decl_file("../MPU9250/inv_mpu.c")
     241                            .dwattr $C$DW$6, DW_AT_decl_line(0x6e2)
     242                            .dwattr $C$DW$6, DW_AT_decl_column(0x05)
     243                    
     244 00000000                   .sect   ".const:mpu_6500_st_tb"
     245                            .align  2
     246                            .elfsym mpu_6500_st_tb,SYM_SIZE(512)
     247 00000000           mpu_6500_st_tb:
     248 00000000 00000A3C          .bits           0xa3c,16
     249                                            ; mpu_6500_st_tb[0] @ 0
     250 00000000 0A560A3C          .bits           0xa56,16
     251                                            ; mpu_6500_st_tb[1] @ 16
     252 00000004 00000A70          .bits           0xa70,16
     253                                            ; mpu_6500_st_tb[2] @ 32
     254 00000004 0A8B0A70          .bits           0xa8b,16
     255                                            ; mpu_6500_st_tb[3] @ 48
     256 00000008 00000AA6          .bits           0xaa6,16
     257                                            ; mpu_6500_st_tb[4] @ 64
     258 00000008 0AC10AA6          .bits           0xac1,16
     259                                            ; mpu_6500_st_tb[5] @ 80
     260 0000000c 00000ADD          .bits           0xadd,16
     261                                            ; mpu_6500_st_tb[6] @ 96
     262 0000000c 0AF80ADD          .bits           0xaf8,16
     263                                            ; mpu_6500_st_tb[7] @ 112
     264 00000010 00000B15          .bits           0xb15,16
     265                                            ; mpu_6500_st_tb[8] @ 128
     266 00000010 0B310B15          .bits           0xb31,16
     267                                            ; mpu_6500_st_tb[9] @ 144
     268 00000014 00000B4E          .bits           0xb4e,16
     269                                            ; mpu_6500_st_tb[10] @ 160
     270 00000014 0B6B0B4E          .bits           0xb6b,16
     271                                            ; mpu_6500_st_tb[11] @ 176
     272 00000018 00000B88          .bits           0xb88,16
     273                                            ; mpu_6500_st_tb[12] @ 192
     274 00000018 0BA50B88          .bits           0xba5,16
     275                                            ; mpu_6500_st_tb[13] @ 208
TI ARM Assembler Unix v20.2.4 Fri Apr  2 00:57:47 2021

Copyright (c) 1996-2018 Texas Instruments Incorporated
inv_mpu.asm                                                          PAGE    6

     276 0000001c 00000BC3          .bits           0xbc3,16
     277                                            ; mpu_6500_st_tb[14] @ 224
     278 0000001c 0BE10BC3          .bits           0xbe1,16
     279                                            ; mpu_6500_st_tb[15] @ 240
     280 00000020 00000C00          .bits           0xc00,16
     281                                            ; mpu_6500_st_tb[16] @ 256
     282 00000020 0C1E0C00          .bits           0xc1e,16
     283                                            ; mpu_6500_st_tb[17] @ 272
     284 00000024 00000C3D          .bits           0xc3d,16
     285                                            ; mpu_6500_st_tb[18] @ 288
     286 00000024 0C5D0C3D          .bits           0xc5d,16
     287                                            ; mpu_6500_st_tb[19] @ 304
     288 00000028 00000C7C          .bits           0xc7c,16
     289                                            ; mpu_6500_st_tb[20] @ 320
     290 00000028 0C9C0C7C          .bits           0xc9c,16
     291                                            ; mpu_6500_st_tb[21] @ 336
     292 0000002c 00000CBD          .bits           0xcbd,16
     293                                            ; mpu_6500_st_tb[22] @ 352
     294 0000002c 0CDD0CBD          .bits           0xcdd,16
     295                                            ; mpu_6500_st_tb[23] @ 368
     296 00000030 00000CFE          .bits           0xcfe,16
     297                                            ; mpu_6500_st_tb[24] @ 384
     298 00000030 0D1F0CFE          .bits           0xd1f,16
     299                                            ; mpu_6500_st_tb[25] @ 400
     300 00000034 00000D41          .bits           0xd41,16
     301                                            ; mpu_6500_st_tb[26] @ 416
     302 00000034 0D630D41          .bits           0xd63,16
     303                                            ; mpu_6500_st_tb[27] @ 432
     304 00000038 00000D85          .bits           0xd85,16
     305                                            ; mpu_6500_st_tb[28] @ 448
     306 00000038 0DA80D85          .bits           0xda8,16
     307                                            ; mpu_6500_st_tb[29] @ 464
     308 0000003c 00000DCB          .bits           0xdcb,16
     309                                            ; mpu_6500_st_tb[30] @ 480
     310 0000003c 0DEE0DCB          .bits           0xdee,16
     311                                            ; mpu_6500_st_tb[31] @ 496
     312 00000040 00000E12          .bits           0xe12,16
     313                                            ; mpu_6500_st_tb[32] @ 512
     314 00000040 0E360E12          .bits           0xe36,16
     315                                            ; mpu_6500_st_tb[33] @ 528
     316 00000044 00000E5A          .bits           0xe5a,16
     317                                            ; mpu_6500_st_tb[34] @ 544
     318 00000044 0E7F0E5A          .bits           0xe7f,16
     319                                            ; mpu_6500_st_tb[35] @ 560
     320 00000048 00000EA4          .bits           0xea4,16
     321                                            ; mpu_6500_st_tb[36] @ 576
     322 00000048 0ECA0EA4          .bits           0xeca,16
     323                                            ; mpu_6500_st_tb[37] @ 592
     324 0000004c 00000EEF          .bits           0xeef,16
     325                                            ; mpu_6500_st_tb[38] @ 608
     326 0000004c 0F160EEF          .bits           0xf16,16
     327                                            ; mpu_6500_st_tb[39] @ 624
     328 00000050 00000F3C          .bits           0xf3c,16
     329                                            ; mpu_6500_st_tb[40] @ 640
     330 00000050 0F630F3C          .bits           0xf63,16
TI ARM Assembler Unix v20.2.4 Fri Apr  2 00:57:47 2021

Copyright (c) 1996-2018 Texas Instruments Incorporated
inv_mpu.asm                                                          PAGE    7

     331                                            ; mpu_6500_st_tb[41] @ 656
     332 00000054 00000F8B          .bits           0xf8b,16
     333                                            ; mpu_6500_st_tb[42] @ 672
     334 00000054 0FB30F8B          .bits           0xfb3,16
     335                                            ; mpu_6500_st_tb[43] @ 688
     336 00000058 00000FDB          .bits           0xfdb,16
     337                                            ; mpu_6500_st_tb[44] @ 704
     338 00000058 10030FDB          .bits           0x1003,16
     339                                            ; mpu_6500_st_tb[45] @ 720
     340 0000005c 0000102C          .bits           0x102c,16
     341                                            ; mpu_6500_st_tb[46] @ 736
     342 0000005c 1056102C          .bits           0x1056,16
     343                                            ; mpu_6500_st_tb[47] @ 752
     344 00000060 00001080          .bits           0x1080,16
     345                                            ; mpu_6500_st_tb[48] @ 768
     346 00000060 10AA1080          .bits           0x10aa,16
     347                                            ; mpu_6500_st_tb[49] @ 784
     348 00000064 000010D4          .bits           0x10d4,16
     349                                            ; mpu_6500_st_tb[50] @ 800
     350 00000064 110010D4          .bits           0x1100,16
     351                                            ; mpu_6500_st_tb[51] @ 816
     352 00000068 0000112B          .bits           0x112b,16
     353                                            ; mpu_6500_st_tb[52] @ 832
     354 00000068 1157112B          .bits           0x1157,16
     355                                            ; mpu_6500_st_tb[53] @ 848
     356 0000006c 00001183          .bits           0x1183,16
     357                                            ; mpu_6500_st_tb[54] @ 864
     358 0000006c 11B01183          .bits           0x11b0,16
     359                                            ; mpu_6500_st_tb[55] @ 880
     360 00000070 000011DE          .bits           0x11de,16
     361                                            ; mpu_6500_st_tb[56] @ 896
     362 00000070 120B11DE          .bits           0x120b,16
     363                                            ; mpu_6500_st_tb[57] @ 912
     364 00000074 00001239          .bits           0x1239,16
     365                                            ; mpu_6500_st_tb[58] @ 928
     366 00000074 12681239          .bits           0x1268,16
     367                                            ; mpu_6500_st_tb[59] @ 944
     368 00000078 00001297          .bits           0x1297,16
     369                                            ; mpu_6500_st_tb[60] @ 960
     370 00000078 12C71297          .bits           0x12c7,16
     371                                            ; mpu_6500_st_tb[61] @ 976
     372 0000007c 000012F7          .bits           0x12f7,16
     373                                            ; mpu_6500_st_tb[62] @ 992
     374 0000007c 132712F7          .bits           0x1327,16
     375                                            ; mpu_6500_st_tb[63] @ 1008
     376 00000080 00001359          .bits           0x1359,16
     377                                            ; mpu_6500_st_tb[64] @ 1024
     378 00000080 138A1359          .bits           0x138a,16
     379                                            ; mpu_6500_st_tb[65] @ 1040
     380 00000084 000013BC          .bits           0x13bc,16
     381                                            ; mpu_6500_st_tb[66] @ 1056
     382 00000084 13EF13BC          .bits           0x13ef,16
     383                                            ; mpu_6500_st_tb[67] @ 1072
     384 00000088 00001422          .bits           0x1422,16
     385                                            ; mpu_6500_st_tb[68] @ 1088
TI ARM Assembler Unix v20.2.4 Fri Apr  2 00:57:47 2021

Copyright (c) 1996-2018 Texas Instruments Incorporated
inv_mpu.asm                                                          PAGE    8

     386 00000088 14551422          .bits           0x1455,16
     387                                            ; mpu_6500_st_tb[69] @ 1104
     388 0000008c 00001489          .bits           0x1489,16
     389                                            ; mpu_6500_st_tb[70] @ 1120
     390 0000008c 14BE1489          .bits           0x14be,16
     391                                            ; mpu_6500_st_tb[71] @ 1136
     392 00000090 000014F3          .bits           0x14f3,16
     393                                            ; mpu_6500_st_tb[72] @ 1152
     394 00000090 152914F3          .bits           0x1529,16
     395                                            ; mpu_6500_st_tb[73] @ 1168
     396 00000094 0000155F          .bits           0x155f,16
     397                                            ; mpu_6500_st_tb[74] @ 1184
     398 00000094 1595155F          .bits           0x1595,16
     399                                            ; mpu_6500_st_tb[75] @ 1200
     400 00000098 000015CD          .bits           0x15cd,16
     401                                            ; mpu_6500_st_tb[76] @ 1216
     402 00000098 160415CD          .bits           0x1604,16
     403                                            ; mpu_6500_st_tb[77] @ 1232
     404 0000009c 0000163D          .bits           0x163d,16
     405                                            ; mpu_6500_st_tb[78] @ 1248
     406 0000009c 1676163D          .bits           0x1676,16
     407                                            ; mpu_6500_st_tb[79] @ 1264
     408 000000a0 000016AF          .bits           0x16af,16
     409                                            ; mpu_6500_st_tb[80] @ 1280
     410 000000a0 16E916AF          .bits           0x16e9,16
     411                                            ; mpu_6500_st_tb[81] @ 1296
     412 000000a4 00001724          .bits           0x1724,16
     413                                            ; mpu_6500_st_tb[82] @ 1312
     414 000000a4 175F1724          .bits           0x175f,16
     415                                            ; mpu_6500_st_tb[83] @ 1328
     416 000000a8 0000179B          .bits           0x179b,16
     417                                            ; mpu_6500_st_tb[84] @ 1344
     418 000000a8 17D8179B          .bits           0x17d8,16
     419                                            ; mpu_6500_st_tb[85] @ 1360
     420 000000ac 00001815          .bits           0x1815,16
     421                                            ; mpu_6500_st_tb[86] @ 1376
     422 000000ac 18521815          .bits           0x1852,16
     423                                            ; mpu_6500_st_tb[87] @ 1392
     424 000000b0 00001891          .bits           0x1891,16
     425                                            ; mpu_6500_st_tb[88] @ 1408
     426 000000b0 18CF1891          .bits           0x18cf,16
     427                                            ; mpu_6500_st_tb[89] @ 1424
     428 000000b4 0000190F          .bits           0x190f,16
     429                                            ; mpu_6500_st_tb[90] @ 1440
     430 000000b4 194F190F          .bits           0x194f,16
     431                                            ; mpu_6500_st_tb[91] @ 1456
     432 000000b8 00001990          .bits           0x1990,16
     433                                            ; mpu_6500_st_tb[92] @ 1472
     434 000000b8 19D11990          .bits           0x19d1,16
     435                                            ; mpu_6500_st_tb[93] @ 1488
     436 000000bc 00001A13          .bits           0x1a13,16
     437                                            ; mpu_6500_st_tb[94] @ 1504
     438 000000bc 1A561A13          .bits           0x1a56,16
     439                                            ; mpu_6500_st_tb[95] @ 1520
     440 000000c0 00001A9A          .bits           0x1a9a,16
TI ARM Assembler Unix v20.2.4 Fri Apr  2 00:57:47 2021

Copyright (c) 1996-2018 Texas Instruments Incorporated
inv_mpu.asm                                                          PAGE    9

     441                                            ; mpu_6500_st_tb[96] @ 1536
     442 000000c0 1ADE1A9A          .bits           0x1ade,16
     443                                            ; mpu_6500_st_tb[97] @ 1552
     444 000000c4 00001B22          .bits           0x1b22,16
     445                                            ; mpu_6500_st_tb[98] @ 1568
     446 000000c4 1B681B22          .bits           0x1b68,16
     447                                            ; mpu_6500_st_tb[99] @ 1584
     448 000000c8 00001BAE          .bits           0x1bae,16
     449                                            ; mpu_6500_st_tb[100] @ 1600
     450 000000c8 1BF51BAE          .bits           0x1bf5,16
     451                                            ; mpu_6500_st_tb[101] @ 1616
     452 000000cc 00001C3D          .bits           0x1c3d,16
     453                                            ; mpu_6500_st_tb[102] @ 1632
     454 000000cc 1C851C3D          .bits           0x1c85,16
     455                                            ; mpu_6500_st_tb[103] @ 1648
     456 000000d0 00001CCE          .bits           0x1cce,16
     457                                            ; mpu_6500_st_tb[104] @ 1664
     458 000000d0 1D181CCE          .bits           0x1d18,16
     459                                            ; mpu_6500_st_tb[105] @ 1680
     460 000000d4 00001D62          .bits           0x1d62,16
     461                                            ; mpu_6500_st_tb[106] @ 1696
     462 000000d4 1DAD1D62          .bits           0x1dad,16
     463                                            ; mpu_6500_st_tb[107] @ 1712
     464 000000d8 00001DF9          .bits           0x1df9,16
     465                                            ; mpu_6500_st_tb[108] @ 1728
     466 000000d8 1E461DF9          .bits           0x1e46,16
     467                                            ; mpu_6500_st_tb[109] @ 1744
     468 000000dc 00001E94          .bits           0x1e94,16
     469                                            ; mpu_6500_st_tb[110] @ 1760
     470 000000dc 1EE21E94          .bits           0x1ee2,16
     471                                            ; mpu_6500_st_tb[111] @ 1776
     472 000000e0 00001F31          .bits           0x1f31,16
     473                                            ; mpu_6500_st_tb[112] @ 1792
     474 000000e0 1F811F31          .bits           0x1f81,16
     475                                            ; mpu_6500_st_tb[113] @ 1808
     476 000000e4 00001FD1          .bits           0x1fd1,16
     477                                            ; mpu_6500_st_tb[114] @ 1824
     478 000000e4 20231FD1          .bits           0x2023,16
     479                                            ; mpu_6500_st_tb[115] @ 1840
     480 000000e8 00002075          .bits           0x2075,16
     481                                            ; mpu_6500_st_tb[116] @ 1856
     482 000000e8 20C82075          .bits           0x20c8,16
     483                                            ; mpu_6500_st_tb[117] @ 1872
     484 000000ec 0000211C          .bits           0x211c,16
     485                                            ; mpu_6500_st_tb[118] @ 1888
     486 000000ec 2171211C          .bits           0x2171,16
     487                                            ; mpu_6500_st_tb[119] @ 1904
     488 000000f0 000021C7          .bits           0x21c7,16
     489                                            ; mpu_6500_st_tb[120] @ 1920
     490 000000f0 221D21C7          .bits           0x221d,16
     491                                            ; mpu_6500_st_tb[121] @ 1936
     492 000000f4 00002274          .bits           0x2274,16
     493                                            ; mpu_6500_st_tb[122] @ 1952
     494 000000f4 22CD2274          .bits           0x22cd,16
     495                                            ; mpu_6500_st_tb[123] @ 1968
TI ARM Assembler Unix v20.2.4 Fri Apr  2 00:57:47 2021

Copyright (c) 1996-2018 Texas Instruments Incorporated
inv_mpu.asm                                                          PAGE   10

     496 000000f8 00002326          .bits           0x2326,16
     497                                            ; mpu_6500_st_tb[124] @ 1984
     498 000000f8 23802326          .bits           0x2380,16
     499                                            ; mpu_6500_st_tb[125] @ 2000
     500 000000fc 000023DA          .bits           0x23da,16
     501                                            ; mpu_6500_st_tb[126] @ 2016
     502 000000fc 243623DA          .bits           0x2436,16
     503                                            ; mpu_6500_st_tb[127] @ 2032
     504 00000100 00002493          .bits           0x2493,16
     505                                            ; mpu_6500_st_tb[128] @ 2048
     506 00000100 24F12493          .bits           0x24f1,16
     507                                            ; mpu_6500_st_tb[129] @ 2064
     508 00000104 0000254F          .bits           0x254f,16
     509                                            ; mpu_6500_st_tb[130] @ 2080
     510 00000104 25AF254F          .bits           0x25af,16
     511                                            ; mpu_6500_st_tb[131] @ 2096
     512 00000108 0000260F          .bits           0x260f,16
     513                                            ; mpu_6500_st_tb[132] @ 2112
     514 00000108 2671260F          .bits           0x2671,16
     515                                            ; mpu_6500_st_tb[133] @ 2128
     516 0000010c 000026D3          .bits           0x26d3,16
     517                                            ; mpu_6500_st_tb[134] @ 2144
     518 0000010c 273626D3          .bits           0x2736,16
     519                                            ; mpu_6500_st_tb[135] @ 2160
     520 00000110 0000279B          .bits           0x279b,16
     521                                            ; mpu_6500_st_tb[136] @ 2176
     522 00000110 2800279B          .bits           0x2800,16
     523                                            ; mpu_6500_st_tb[137] @ 2192
     524 00000114 00002867          .bits           0x2867,16
     525                                            ; mpu_6500_st_tb[138] @ 2208
     526 00000114 28CE2867          .bits           0x28ce,16
     527                                            ; mpu_6500_st_tb[139] @ 2224
     528 00000118 00002936          .bits           0x2936,16
     529                                            ; mpu_6500_st_tb[140] @ 2240
     530 00000118 29A02936          .bits           0x29a0,16
     531                                            ; mpu_6500_st_tb[141] @ 2256
     532 0000011c 00002A0B          .bits           0x2a0b,16
     533                                            ; mpu_6500_st_tb[142] @ 2272
     534 0000011c 2A762A0B          .bits           0x2a76,16
     535                                            ; mpu_6500_st_tb[143] @ 2288
     536 00000120 00002AE3          .bits           0x2ae3,16
     537                                            ; mpu_6500_st_tb[144] @ 2304
     538 00000120 2B512AE3          .bits           0x2b51,16
     539                                            ; mpu_6500_st_tb[145] @ 2320
     540 00000124 00002BC0          .bits           0x2bc0,16
     541                                            ; mpu_6500_st_tb[146] @ 2336
     542 00000124 2C302BC0          .bits           0x2c30,16
     543                                            ; mpu_6500_st_tb[147] @ 2352
     544 00000128 00002CA1          .bits           0x2ca1,16
     545                                            ; mpu_6500_st_tb[148] @ 2368
     546 00000128 2D132CA1          .bits           0x2d13,16
     547                                            ; mpu_6500_st_tb[149] @ 2384
     548 0000012c 00002D86          .bits           0x2d86,16
     549                                            ; mpu_6500_st_tb[150] @ 2400
     550 0000012c 2DFB2D86          .bits           0x2dfb,16
TI ARM Assembler Unix v20.2.4 Fri Apr  2 00:57:47 2021

Copyright (c) 1996-2018 Texas Instruments Incorporated
inv_mpu.asm                                                          PAGE   11

     551                                            ; mpu_6500_st_tb[151] @ 2416
     552 00000130 00002E71          .bits           0x2e71,16
     553                                            ; mpu_6500_st_tb[152] @ 2432
     554 00000130 2EE82E71          .bits           0x2ee8,16
     555                                            ; mpu_6500_st_tb[153] @ 2448
     556 00000134 00002F60          .bits           0x2f60,16
     557                                            ; mpu_6500_st_tb[154] @ 2464
     558 00000134 2FD92F60          .bits           0x2fd9,16
     559                                            ; mpu_6500_st_tb[155] @ 2480
     560 00000138 00003053          .bits           0x3053,16
     561                                            ; mpu_6500_st_tb[156] @ 2496
     562 00000138 30CF3053          .bits           0x30cf,16
     563                                            ; mpu_6500_st_tb[157] @ 2512
     564 0000013c 0000314C          .bits           0x314c,16
     565                                            ; mpu_6500_st_tb[158] @ 2528
     566 0000013c 31CA314C          .bits           0x31ca,16
     567                                            ; mpu_6500_st_tb[159] @ 2544
     568 00000140 0000324A          .bits           0x324a,16
     569                                            ; mpu_6500_st_tb[160] @ 2560
     570 00000140 32CA324A          .bits           0x32ca,16
     571                                            ; mpu_6500_st_tb[161] @ 2576
     572 00000144 0000334C          .bits           0x334c,16
     573                                            ; mpu_6500_st_tb[162] @ 2592
     574 00000144 33D0334C          .bits           0x33d0,16
     575                                            ; mpu_6500_st_tb[163] @ 2608
     576 00000148 00003454          .bits           0x3454,16
     577                                            ; mpu_6500_st_tb[164] @ 2624
     578 00000148 34DA3454          .bits           0x34da,16
     579                                            ; mpu_6500_st_tb[165] @ 2640
     580 0000014c 00003562          .bits           0x3562,16
     581                                            ; mpu_6500_st_tb[166] @ 2656
     582 0000014c 35EA3562          .bits           0x35ea,16
     583                                            ; mpu_6500_st_tb[167] @ 2672
     584 00000150 00003674          .bits           0x3674,16
     585                                            ; mpu_6500_st_tb[168] @ 2688
     586 00000150 37003674          .bits           0x3700,16
     587                                            ; mpu_6500_st_tb[169] @ 2704
     588 00000154 0000378D          .bits           0x378d,16
     589                                            ; mpu_6500_st_tb[170] @ 2720
     590 00000154 381B378D          .bits           0x381b,16
     591                                            ; mpu_6500_st_tb[171] @ 2736
     592 00000158 000038AA          .bits           0x38aa,16
     593                                            ; mpu_6500_st_tb[172] @ 2752
     594 00000158 393C38AA          .bits           0x393c,16
     595                                            ; mpu_6500_st_tb[173] @ 2768
     596 0000015c 000039CE          .bits           0x39ce,16
     597                                            ; mpu_6500_st_tb[174] @ 2784
     598 0000015c 3A6239CE          .bits           0x3a62,16
     599                                            ; mpu_6500_st_tb[175] @ 2800
     600 00000160 00003AF8          .bits           0x3af8,16
     601                                            ; mpu_6500_st_tb[176] @ 2816
     602 00000160 3B8F3AF8          .bits           0x3b8f,16
     603                                            ; mpu_6500_st_tb[177] @ 2832
     604 00000164 00003C27          .bits           0x3c27,16
     605                                            ; mpu_6500_st_tb[178] @ 2848
TI ARM Assembler Unix v20.2.4 Fri Apr  2 00:57:47 2021

Copyright (c) 1996-2018 Texas Instruments Incorporated
inv_mpu.asm                                                          PAGE   12

     606 00000164 3CC13C27          .bits           0x3cc1,16
     607                                            ; mpu_6500_st_tb[179] @ 2864
     608 00000168 00003D5D          .bits           0x3d5d,16
     609                                            ; mpu_6500_st_tb[180] @ 2880
     610 00000168 3DFA3D5D          .bits           0x3dfa,16
     611                                            ; mpu_6500_st_tb[181] @ 2896
     612 0000016c 00003E98          .bits           0x3e98,16
     613                                            ; mpu_6500_st_tb[182] @ 2912
     614 0000016c 3F383E98          .bits           0x3f38,16
     615                                            ; mpu_6500_st_tb[183] @ 2928
     616 00000170 00003FDA          .bits           0x3fda,16
     617                                            ; mpu_6500_st_tb[184] @ 2944
     618 00000170 407E3FDA          .bits           0x407e,16
     619                                            ; mpu_6500_st_tb[185] @ 2960
     620 00000174 00004123          .bits           0x4123,16
     621                                            ; mpu_6500_st_tb[186] @ 2976
     622 00000174 41CA4123          .bits           0x41ca,16
     623                                            ; mpu_6500_st_tb[187] @ 2992
     624 00000178 00004272          .bits           0x4272,16
     625                                            ; mpu_6500_st_tb[188] @ 3008
     626 00000178 431C4272          .bits           0x431c,16
     627                                            ; mpu_6500_st_tb[189] @ 3024
     628 0000017c 000043C8          .bits           0x43c8,16
     629                                            ; mpu_6500_st_tb[190] @ 3040
     630 0000017c 447643C8          .bits           0x4476,16
     631                                            ; mpu_6500_st_tb[191] @ 3056
     632 00000180 00004525          .bits           0x4525,16
     633                                            ; mpu_6500_st_tb[192] @ 3072
     634 00000180 45D64525          .bits           0x45d6,16
     635                                            ; mpu_6500_st_tb[193] @ 3088
     636 00000184 00004689          .bits           0x4689,16
     637                                            ; mpu_6500_st_tb[194] @ 3104
     638 00000184 473D4689          .bits           0x473d,16
     639                                            ; mpu_6500_st_tb[195] @ 3120
     640 00000188 000047F4          .bits           0x47f4,16
     641                                            ; mpu_6500_st_tb[196] @ 3136
     642 00000188 48AC47F4          .bits           0x48ac,16
     643                                            ; mpu_6500_st_tb[197] @ 3152
     644 0000018c 00004966          .bits           0x4966,16
     645                                            ; mpu_6500_st_tb[198] @ 3168
     646 0000018c 4A224966          .bits           0x4a22,16
     647                                            ; mpu_6500_st_tb[199] @ 3184
     648 00000190 00004ADF          .bits           0x4adf,16
     649                                            ; mpu_6500_st_tb[200] @ 3200
     650 00000190 4B9F4ADF          .bits           0x4b9f,16
     651                                            ; mpu_6500_st_tb[201] @ 3216
     652 00000194 00004C61          .bits           0x4c61,16
     653                                            ; mpu_6500_st_tb[202] @ 3232
     654 00000194 4D244C61          .bits           0x4d24,16
     655                                            ; mpu_6500_st_tb[203] @ 3248
     656 00000198 00004DEA          .bits           0x4dea,16
     657                                            ; mpu_6500_st_tb[204] @ 3264
     658 00000198 4EB14DEA          .bits           0x4eb1,16
     659                                            ; mpu_6500_st_tb[205] @ 3280
     660 0000019c 00004F7B          .bits           0x4f7b,16
TI ARM Assembler Unix v20.2.4 Fri Apr  2 00:57:47 2021

Copyright (c) 1996-2018 Texas Instruments Incorporated
inv_mpu.asm                                                          PAGE   13

     661                                            ; mpu_6500_st_tb[206] @ 3296
     662 0000019c 50464F7B          .bits           0x5046,16
     663                                            ; mpu_6500_st_tb[207] @ 3312
     664 000001a0 00005114          .bits           0x5114,16
     665                                            ; mpu_6500_st_tb[208] @ 3328
     666 000001a0 51E35114          .bits           0x51e3,16
     667                                            ; mpu_6500_st_tb[209] @ 3344
     668 000001a4 000052B5          .bits           0x52b5,16
     669                                            ; mpu_6500_st_tb[210] @ 3360
     670 000001a4 538952B5          .bits           0x5389,16
     671                                            ; mpu_6500_st_tb[211] @ 3376
     672 000001a8 0000545E          .bits           0x545e,16
     673                                            ; mpu_6500_st_tb[212] @ 3392
     674 000001a8 5536545E          .bits           0x5536,16
     675                                            ; mpu_6500_st_tb[213] @ 3408
     676 000001ac 00005611          .bits           0x5611,16
     677                                            ; mpu_6500_st_tb[214] @ 3424
     678 000001ac 56ED5611          .bits           0x56ed,16
     679                                            ; mpu_6500_st_tb[215] @ 3440
     680 000001b0 000057CB          .bits           0x57cb,16
     681                                            ; mpu_6500_st_tb[216] @ 3456
     682 000001b0 58AC57CB          .bits           0x58ac,16
     683                                            ; mpu_6500_st_tb[217] @ 3472
     684 000001b4 0000598F          .bits           0x598f,16
     685                                            ; mpu_6500_st_tb[218] @ 3488
     686 000001b4 5A74598F          .bits           0x5a74,16
     687                                            ; mpu_6500_st_tb[219] @ 3504
     688 000001b8 00005B5C          .bits           0x5b5c,16
     689                                            ; mpu_6500_st_tb[220] @ 3520
     690 000001b8 5C465B5C          .bits           0x5c46,16
     691                                            ; mpu_6500_st_tb[221] @ 3536
     692 000001bc 00005D32          .bits           0x5d32,16
     693                                            ; mpu_6500_st_tb[222] @ 3552
     694 000001bc 5E215D32          .bits           0x5e21,16
     695                                            ; mpu_6500_st_tb[223] @ 3568
     696 000001c0 00005F12          .bits           0x5f12,16
     697                                            ; mpu_6500_st_tb[224] @ 3584
     698 000001c0 60055F12          .bits           0x6005,16
     699                                            ; mpu_6500_st_tb[225] @ 3600
     700 000001c4 000060FB          .bits           0x60fb,16
     701                                            ; mpu_6500_st_tb[226] @ 3616
     702 000001c4 61F360FB          .bits           0x61f3,16
     703                                            ; mpu_6500_st_tb[227] @ 3632
     704 000001c8 000062EE          .bits           0x62ee,16
     705                                            ; mpu_6500_st_tb[228] @ 3648
     706 000001c8 63EB62EE          .bits           0x63eb,16
     707                                            ; mpu_6500_st_tb[229] @ 3664
     708 000001cc 000064EB          .bits           0x64eb,16
     709                                            ; mpu_6500_st_tb[230] @ 3680
     710 000001cc 65ED64EB          .bits           0x65ed,16
     711                                            ; mpu_6500_st_tb[231] @ 3696
     712 000001d0 000066F2          .bits           0x66f2,16
     713                                            ; mpu_6500_st_tb[232] @ 3712
     714 000001d0 67FA66F2          .bits           0x67fa,16
     715                                            ; mpu_6500_st_tb[233] @ 3728
TI ARM Assembler Unix v20.2.4 Fri Apr  2 00:57:47 2021

Copyright (c) 1996-2018 Texas Instruments Incorporated
inv_mpu.asm                                                          PAGE   14

     716 000001d4 00006904          .bits           0x6904,16
     717                                            ; mpu_6500_st_tb[234] @ 3744
     718 000001d4 6A116904          .bits           0x6a11,16
     719                                            ; mpu_6500_st_tb[235] @ 3760
     720 000001d8 00006B20          .bits           0x6b20,16
     721                                            ; mpu_6500_st_tb[236] @ 3776
     722 000001d8 6C336B20          .bits           0x6c33,16
     723                                            ; mpu_6500_st_tb[237] @ 3792
     724 000001dc 00006D48          .bits           0x6d48,16
     725                                            ; mpu_6500_st_tb[238] @ 3808
     726 000001dc 6E5F6D48          .bits           0x6e5f,16
     727                                            ; mpu_6500_st_tb[239] @ 3824
     728 000001e0 00006F7A          .bits           0x6f7a,16
     729                                            ; mpu_6500_st_tb[240] @ 3840
     730 000001e0 70976F7A          .bits           0x7097,16
     731                                            ; mpu_6500_st_tb[241] @ 3856
     732 000001e4 000071B8          .bits           0x71b8,16
     733                                            ; mpu_6500_st_tb[242] @ 3872
     734 000001e4 72DB71B8          .bits           0x72db,16
     735                                            ; mpu_6500_st_tb[243] @ 3888
     736 000001e8 00007401          .bits           0x7401,16
     737                                            ; mpu_6500_st_tb[244] @ 3904
     738 000001e8 752A7401          .bits           0x752a,16
     739                                            ; mpu_6500_st_tb[245] @ 3920
     740 000001ec 00007656          .bits           0x7656,16
     741                                            ; mpu_6500_st_tb[246] @ 3936
     742 000001ec 77857656          .bits           0x7785,16
     743                                            ; mpu_6500_st_tb[247] @ 3952
     744 000001f0 000078B7          .bits           0x78b7,16
     745                                            ; mpu_6500_st_tb[248] @ 3968
     746 000001f0 79EC78B7          .bits           0x79ec,16
     747                                            ; mpu_6500_st_tb[249] @ 3984
     748 000001f4 00007B24          .bits           0x7b24,16
     749                                            ; mpu_6500_st_tb[250] @ 4000
     750 000001f4 7C5F7B24          .bits           0x7c5f,16
     751                                            ; mpu_6500_st_tb[251] @ 4016
     752 000001f8 00007D9D          .bits           0x7d9d,16
     753                                            ; mpu_6500_st_tb[252] @ 4032
     754 000001f8 7EDF7D9D          .bits           0x7edf,16
     755                                            ; mpu_6500_st_tb[253] @ 4048
     756 000001fc 00008024          .bits           0x8024,16
     757                                            ; mpu_6500_st_tb[254] @ 4064
     758 000001fc 816C8024          .bits           0x816c,16
     759                                            ; mpu_6500_st_tb[255] @ 4080
     760                    
     761                    $C$DW$7 .dwtag  DW_TAG_variable
     762                            .dwattr $C$DW$7, DW_AT_name("mpu_6500_st_tb")
     763                            .dwattr $C$DW$7, DW_AT_TI_symbol_name("mpu_6500_st_tb")
     764                            .dwattr $C$DW$7, DW_AT_type(*$C$DW$T$207)
     765                            .dwattr $C$DW$7, DW_AT_location[DW_OP_addr mpu_6500_st_tb]
     766                            .dwattr $C$DW$7, DW_AT_decl_file("../MPU9250/inv_mpu.c")
     767                            .dwattr $C$DW$7, DW_AT_decl_line(0x855)
     768                            .dwattr $C$DW$7, DW_AT_decl_column(0x1d)
     769                    
     770                    
TI ARM Assembler Unix v20.2.4 Fri Apr  2 00:57:47 2021

Copyright (c) 1996-2018 Texas Instruments Incorporated
inv_mpu.asm                                                          PAGE   15

     771                    $C$DW$8 .dwtag  DW_TAG_subprogram
     772                            .dwattr $C$DW$8, DW_AT_name("WR_MPU")
     773                            .dwattr $C$DW$8, DW_AT_TI_symbol_name("WR_MPU")
     774                            .dwattr $C$DW$8, DW_AT_type(*$C$DW$T$191)
     775                            .dwattr $C$DW$8, DW_AT_declaration
     776                            .dwattr $C$DW$8, DW_AT_external
     777                            .dwattr $C$DW$8, DW_AT_decl_file("/home/merdak/KOLTEST/TIV10/Quad/App/flight.h")
     778                            .dwattr $C$DW$8, DW_AT_decl_line(0x18)
     779                            .dwattr $C$DW$8, DW_AT_decl_column(0x0d)
     780                    $C$DW$9 .dwtag  DW_TAG_formal_parameter
     781                            .dwattr $C$DW$9, DW_AT_type(*$C$DW$T$22)
     782                    
     783                    $C$DW$10        .dwtag  DW_TAG_formal_parameter
     784                            .dwattr $C$DW$10, DW_AT_type(*$C$DW$T$22)
     785                    
     786                    $C$DW$11        .dwtag  DW_TAG_formal_parameter
     787                            .dwattr $C$DW$11, DW_AT_type(*$C$DW$T$176)
     788                    
     789                            .dwendtag $C$DW$8
     790                    
     791                    
     792                    $C$DW$12        .dwtag  DW_TAG_subprogram
     793                            .dwattr $C$DW$12, DW_AT_name("RD_MPU")
     794                            .dwattr $C$DW$12, DW_AT_TI_symbol_name("RD_MPU")
     795                            .dwattr $C$DW$12, DW_AT_type(*$C$DW$T$191)
     796                            .dwattr $C$DW$12, DW_AT_declaration
     797                            .dwattr $C$DW$12, DW_AT_external
     798                            .dwattr $C$DW$12, DW_AT_decl_file("/home/merdak/KOLTEST/TIV10/Quad/App/flight.h")
     799                            .dwattr $C$DW$12, DW_AT_decl_line(0x19)
     800                            .dwattr $C$DW$12, DW_AT_decl_column(0x0d)
     801                    $C$DW$13        .dwtag  DW_TAG_formal_parameter
     802                            .dwattr $C$DW$13, DW_AT_type(*$C$DW$T$22)
     803                    
     804                    $C$DW$14        .dwtag  DW_TAG_formal_parameter
     805                            .dwattr $C$DW$14, DW_AT_type(*$C$DW$T$22)
     806                    
     807                    $C$DW$15        .dwtag  DW_TAG_formal_parameter
     808                            .dwattr $C$DW$15, DW_AT_type(*$C$DW$T$176)
     809                    
     810                            .dwendtag $C$DW$12
     811                    
     812                    
     813                    $C$DW$16        .dwtag  DW_TAG_subprogram
     814                            .dwattr $C$DW$16, DW_AT_name("Delay_Ms")
     815                            .dwattr $C$DW$16, DW_AT_TI_symbol_name("Delay_Ms")
     816                            .dwattr $C$DW$16, DW_AT_declaration
     817                            .dwattr $C$DW$16, DW_AT_external
     818                            .dwattr $C$DW$16, DW_AT_decl_file("/home/merdak/KOLTEST/TIV10/Quad/App/flight.h")
     819                            .dwattr $C$DW$16, DW_AT_decl_line(0x21)
     820                            .dwattr $C$DW$16, DW_AT_decl_column(0x0d)
     821                    $C$DW$17        .dwtag  DW_TAG_formal_parameter
     822                            .dwattr $C$DW$17, DW_AT_type(*$C$DW$T$159)
     823                    
     824                            .dwendtag $C$DW$16
     825                    
TI ARM Assembler Unix v20.2.4 Fri Apr  2 00:57:47 2021

Copyright (c) 1996-2018 Texas Instruments Incorporated
inv_mpu.asm                                                          PAGE   16

     826 00000000                   .sect   ".const:.string:$P$T0$1"
     827                            .align  1
     828                            .elfsym ||$P$T0$1||,SYM_SIZE(8)
     829 00000000           ||$P$T0$1||:
     830 00000000 00000000          .bits           0,8
     831                                            ; $P$T0$1[0] @ 0
     832 00000000 00000800          .bits           0x8,8
     833                                            ; $P$T0$1[1] @ 8
     834 00000000 00100800          .bits           0x10,8
     835                                            ; $P$T0$1[2] @ 16
     836 00000000 18100800          .bits           0x18,8
     837                                            ; $P$T0$1[3] @ 24
     838 00000004 00000001          .bits           0x1,8
     839                                            ; $P$T0$1[4] @ 32
     840 00000004 00004001          .bits           0x40,8
     841                                            ; $P$T0$1[5] @ 40
     842                    
     843                    $C$DW$18        .dwtag  DW_TAG_variable
     844                            .dwattr $C$DW$18, DW_AT_name("$P$T0$1")
     845                            .dwattr $C$DW$18, DW_AT_TI_symbol_name("$P$T0$1")
     846                            .dwattr $C$DW$18, DW_AT_type(*$C$DW$T$175)
     847                            .dwattr $C$DW$18, DW_AT_location[DW_OP_addr ||$P$T0$1||]
     848                            .dwattr $C$DW$18, DW_AT_decl_file("../MPU9250/inv_mpu.c")
     849                            .dwattr $C$DW$18, DW_AT_decl_line(0x29d)
     850                            .dwattr $C$DW$18, DW_AT_decl_column(0x07)
     851                    
     852 00000000                   .sect   ".const:$P$T1$2"
     853                            .align  4
     854                            .elfsym ||$P$T1$2||,SYM_SIZE(16)
     855 00000000           ||$P$T1$2||:
     856 00000000 437A0000          .word   0437a0000h      ; $P$T1$2[0] @ 0 (250)
     857 00000004 43FA0000          .word   043fa0000h      ; $P$T1$2[1] @ 32 (500)
     858 00000008 447A0000          .word   0447a0000h      ; $P$T1$2[2] @ 64 (1000)
     859 0000000c 44FA0000          .word   044fa0000h      ; $P$T1$2[3] @ 96 (2000)
     860                    
     861                    $C$DW$19        .dwtag  DW_TAG_variable
     862                            .dwattr $C$DW$19, DW_AT_name("$P$T1$2")
     863                            .dwattr $C$DW$19, DW_AT_TI_symbol_name("$P$T1$2")
     864                            .dwattr $C$DW$19, DW_AT_type(*$C$DW$T$364)
     865                            .dwattr $C$DW$19, DW_AT_location[DW_OP_addr ||$P$T1$2||]
     866                            .dwattr $C$DW$19, DW_AT_decl_file("../MPU9250/inv_mpu.c")
     867                            .dwattr $C$DW$19, DW_AT_decl_line(0x29e)
     868                            .dwattr $C$DW$19, DW_AT_decl_column(0x07)
     869                    
     870 00000000                   .sect   ".const:$P$T2$3"
     871                            .align  4
     872                            .elfsym ||$P$T2$3||,SYM_SIZE(16)
     873 00000000           ||$P$T2$3||:
     874 00000000 40000000          .word   040000000h      ; $P$T2$3[0] @ 0 (2)
     875 00000004 40800000          .word   040800000h      ; $P$T2$3[1] @ 32 (4)
     876 00000008 41000000          .word   041000000h      ; $P$T2$3[2] @ 64 (8)
     877 0000000c 41800000          .word   041800000h      ; $P$T2$3[3] @ 96 (16)
     878                    
     879                    $C$DW$20        .dwtag  DW_TAG_variable
     880                            .dwattr $C$DW$20, DW_AT_name("$P$T2$3")
TI ARM Assembler Unix v20.2.4 Fri Apr  2 00:57:47 2021

Copyright (c) 1996-2018 Texas Instruments Incorporated
inv_mpu.asm                                                          PAGE   17

     881                            .dwattr $C$DW$20, DW_AT_TI_symbol_name("$P$T2$3")
     882                            .dwattr $C$DW$20, DW_AT_type(*$C$DW$T$364)
     883                            .dwattr $C$DW$20, DW_AT_location[DW_OP_addr ||$P$T2$3||]
     884                            .dwattr $C$DW$20, DW_AT_decl_file("../MPU9250/inv_mpu.c")
     885                            .dwattr $C$DW$20, DW_AT_decl_line(0x29f)
     886                            .dwattr $C$DW$20, DW_AT_decl_column(0x07)
     887                    
     888                    
     889                    $C$DW$21        .dwtag  DW_TAG_subprogram
     890                            .dwattr $C$DW$21, DW_AT_name("memset")
     891                            .dwattr $C$DW$21, DW_AT_TI_symbol_name("memset")
     892                            .dwattr $C$DW$21, DW_AT_type(*$C$DW$T$3)
     893                            .dwattr $C$DW$21, DW_AT_declaration
     894                            .dwattr $C$DW$21, DW_AT_external
     895                            .dwendtag $C$DW$21
     896                    
     897                    
     898                    $C$DW$22        .dwtag  DW_TAG_subprogram
     899                            .dwattr $C$DW$22, DW_AT_name("memcmp")
     900                            .dwattr $C$DW$22, DW_AT_TI_symbol_name("memcmp")
     901                            .dwattr $C$DW$22, DW_AT_type(*$C$DW$T$10)
     902                            .dwattr $C$DW$22, DW_AT_declaration
     903                            .dwattr $C$DW$22, DW_AT_external
     904                            .dwattr $C$DW$22, DW_AT_decl_file("/home/merdak/Apps/ti/ccs1020/ccs/tools/compiler/ti-cgt-arm_
     905                            .dwattr $C$DW$22, DW_AT_decl_line(0x7d)
     906                            .dwattr $C$DW$22, DW_AT_decl_column(0x14)
     907                    $C$DW$23        .dwtag  DW_TAG_formal_parameter
     908                            .dwattr $C$DW$23, DW_AT_type(*$C$DW$T$158)
     909                    
     910                    $C$DW$24        .dwtag  DW_TAG_formal_parameter
     911                            .dwattr $C$DW$24, DW_AT_type(*$C$DW$T$158)
     912                    
     913                    $C$DW$25        .dwtag  DW_TAG_formal_parameter
     914                            .dwattr $C$DW$25, DW_AT_type(*$C$DW$T$220)
     915                    
     916                            .dwendtag $C$DW$22
     917                    
     918                    ;       /home/merdak/Apps/ti/ccs1020/ccs/tools/compiler/ti-cgt-arm_20.2.4.LTS/bin/armacpia -@/tmp/TI1B
     919 00000000                   .sect   ".text:__isfinite"
     920                            .clink
     921                            .thumbfunc __isfinite
     922 00000000                   .thumb
     923                            .global __isfinite
     924                    
     925                    $C$DW$26        .dwtag  DW_TAG_subprogram
     926                            .dwattr $C$DW$26, DW_AT_name("__isfinite")
     927                            .dwattr $C$DW$26, DW_AT_low_pc(__isfinite)
     928                            .dwattr $C$DW$26, DW_AT_high_pc(0x00)
     929                            .dwattr $C$DW$26, DW_AT_TI_symbol_name("__isfinite")
     930                            .dwattr $C$DW$26, DW_AT_external
     931                            .dwattr $C$DW$26, DW_AT_type(*$C$DW$T$10)
     932                            .dwattr $C$DW$26, DW_AT_TI_begin_file("/home/merdak/Apps/ti/ccs1020/ccs/tools/compiler/ti-cgt-
     933                            .dwattr $C$DW$26, DW_AT_TI_begin_line(0x14e)
     934                            .dwattr $C$DW$26, DW_AT_TI_begin_column(0x25)
     935                            .dwattr $C$DW$26, DW_AT_decl_file("/home/merdak/Apps/ti/ccs1020/ccs/tools/compiler/ti-cgt-arm_
TI ARM Assembler Unix v20.2.4 Fri Apr  2 00:57:47 2021

Copyright (c) 1996-2018 Texas Instruments Incorporated
inv_mpu.asm                                                          PAGE   18

     936                            .dwattr $C$DW$26, DW_AT_decl_line(0x14e)
     937                            .dwattr $C$DW$26, DW_AT_decl_column(0x25)
     938                            .dwattr $C$DW$26, DW_AT_TI_max_frame_size(0x10)
     939                            .dwpsn  file "/home/merdak/Apps/ti/ccs1020/ccs/tools/compiler/ti-cgt-arm_20.2.4.LTS/include/_d
     940                    
     941                            .dwfde $C$DW$CIE, __isfinite
     942                    $C$DW$27        .dwtag  DW_TAG_formal_parameter
     943                            .dwattr $C$DW$27, DW_AT_name("d")
     944                            .dwattr $C$DW$27, DW_AT_TI_symbol_name("d")
     945                            .dwattr $C$DW$27, DW_AT_type(*$C$DW$T$17)
     946                            .dwattr $C$DW$27, DW_AT_location[DW_OP_reg0]
     947                    
     948                    ;----------------------------------------------------------------------
     949                    ; 334 | _CODE_ACCESS _INLINE_DEFINITION int __isfinite(double d)               
     950                    ;----------------------------------------------------------------------
     951                    
     952                    ;*****************************************************************************
     953                    ;* FUNCTION NAME: __isfinite                                                 *
     954                    ;*                                                                           *
     955                    ;*   Regs Modified     : A1,A2,A3,A4,V4,SP,SR                                *
     956                    ;*   Regs Used         : A1,A2,A3,A4,V4,SP,LR,SR                             *
     957                    ;*   Local Frame Size  : 0 Args + 8 Auto + 8 Save = 16 byte                  *
     958                    ;*****************************************************************************
     959 00000000           __isfinite:
     960                    ;* --------------------------------------------------------------------------*
     961                            .dwcfi  cfa_offset, 0
     962 00000000 B58C              PUSH      {A3, A4, V4, LR}      ; [DPU_V7M3_PIPE]  ; [ORIG 16-BIT INS]
     963                            .dwcfi  cfa_offset, 16
     964                            .dwcfi  save_reg_to_mem, 14, -4
     965                            .dwcfi  save_reg_to_mem, 7, -8
     966                            .dwcfi  save_reg_to_mem, 3, -12
     967                            .dwcfi  save_reg_to_mem, 2, -16
     968                    $C$DW$28        .dwtag  DW_TAG_variable
     969                            .dwattr $C$DW$28, DW_AT_name("d")
     970                            .dwattr $C$DW$28, DW_AT_TI_symbol_name("d")
     971                            .dwattr $C$DW$28, DW_AT_type(*$C$DW$T$17)
     972                            .dwattr $C$DW$28, DW_AT_location[DW_OP_breg13 0]
     973                    
     974                    ;----------------------------------------------------------------------
     975                    ; 335 | { return __DOUBLE_BIASED_EXP_IS_MAX(d) == 0; }                         
     976                    ;----------------------------------------------------------------------
     977 00000002 0003E88D          STMIA     SP, {A1,A2}           ; [DPU_V7M3_PIPE] |335|  ; [KEEP 32-BIT INS]
     978                            .dwpsn  file "/home/merdak/Apps/ti/ccs1020/ccs/tools/compiler/ti-cgt-arm_20.2.4.LTS/include/_d
     979 00000006 0006E89D          LDMIA     SP, {A2,A3}           ; [DPU_V7M3_PIPE] |335|  ; [KEEP 32-BIT INS]
     980 0000000a 2000              MOVS      A1, #0                ; [DPU_V7M3_PIPE] |335|  ; [ORIG 16-BIT INS]
     981 0000000c 2700              MOVS      V4, #0                ; [DPU_V7M3_PIPE] |335|  ; [ORIG 16-BIT INS]
     982 0000000e 4611              MOV       A2, A3                ; [DPU_V7M3_PIPE] |335|  ; [ORIG 16-BIT INS]
     983 00000010 000A              LSLS      A3, A2, #0            ; [DPU_V7M3_PIPE] |335|  ; [ORIG 16-BIT INS]
     984 00000012 2100              MOVS      A2, #0                ; [DPU_V7M3_PIPE] |335|  ; [ORIG 16-BIT INS]
     985 00000014 4311              ORRS      A2, A2, A3            ; [DPU_V7M3_PIPE] |335|  ; [ORIG 16-BIT INS]
     986 00000016 0C0A              LSRS      A3, A2, #16           ; [DPU_V7M3_PIPE] |335|  ; [ORIG 16-BIT INS]
     987 00000018 71F0F647          MOV       A2, #32752            ; [DPU_V7M3_PIPE] |335|  ; [KEEP 32-BIT INS]
     988 0000001c 4011              ANDS      A2, A2, A3            ; [DPU_V7M3_PIPE] |335|  ; [ORIG 16-BIT INS]
     989 0000001e 72F0F647          MOV       A3, #32752            ; [DPU_V7M3_PIPE] |335|  ; [KEEP 32-BIT INS]
     990 00000022 428A              CMP       A3, A2                ; [DPU_V7M3_PIPE] |335|  ; [ORIG 16-BIT INS]
TI ARM Assembler Unix v20.2.4 Fri Apr  2 00:57:47 2021

Copyright (c) 1996-2018 Texas Instruments Incorporated
inv_mpu.asm                                                          PAGE   19

     991 00000024 D100              BNE       ||$C$L1||             ; [DPU_V7M3_PIPE] |335|  ; [ORIG 16-BIT INS]
     992                            ; BRANCHCC OCCURS {||$C$L1||}    ; [] |335| 
     993                    ;* --------------------------------------------------------------------------*
     994 00000026 2701              MOVS      V4, #1                ; [DPU_V7M3_PIPE] |335|  ; [ORIG 16-BIT INS]
     995                    ;* --------------------------------------------------------------------------*
     996 00000028           ||$C$L1||:    
     997 00000028 B907              CBNZ      V4, ||$C$L2||         ; []  ; [ORIG 16-BIT INS]
     998                            ; BRANCHCC OCCURS {||$C$L2||}    ; [] |335| 
     999                    ;* --------------------------------------------------------------------------*
    1000 0000002a 2001              MOVS      A1, #1                ; [DPU_V7M3_PIPE] |335|  ; [ORIG 16-BIT INS]
    1001                    ;* --------------------------------------------------------------------------*
    1002 0000002c           ||$C$L2||:    
    1003                            .dwpsn  file "/home/merdak/Apps/ti/ccs1020/ccs/tools/compiler/ti-cgt-arm_20.2.4.LTS/include/_d
    1004                    $C$DW$29        .dwtag  DW_TAG_TI_branch
    1005                            .dwattr $C$DW$29, DW_AT_low_pc(0x00)
    1006                            .dwattr $C$DW$29, DW_AT_TI_return
    1007                    
    1008 0000002c BD8C              POP       {A3, A4, V4, PC}      ; [DPU_V7M3_PIPE]  ; [ORIG 16-BIT INS]
    1009                            .dwcfi  cfa_offset, 0
    1010                            .dwcfi  restore_reg, 7
    1011                            .dwcfi  restore_reg, 3
    1012                            .dwcfi  restore_reg, 2
    1013                            ; BRANCH OCCURS                  ; [] 
    1014                            .dwattr $C$DW$26, DW_AT_TI_end_file("/home/merdak/Apps/ti/ccs1020/ccs/tools/compiler/ti-cgt-ar
    1015                            .dwattr $C$DW$26, DW_AT_TI_end_line(0x14f)
    1016                            .dwattr $C$DW$26, DW_AT_TI_end_column(0x2e)
    1017                            .dwendentry
    1018                            .dwendtag $C$DW$26
    1019                    
    1020 00000000                   .sect   ".text:__isfinitef"
    1021                            .clink
    1022                            .thumbfunc __isfinitef
    1023 00000000                   .thumb
    1024                            .global __isfinitef
    1025                    
    1026                    $C$DW$30        .dwtag  DW_TAG_subprogram
    1027                            .dwattr $C$DW$30, DW_AT_name("__isfinitef")
    1028                            .dwattr $C$DW$30, DW_AT_low_pc(__isfinitef)
    1029                            .dwattr $C$DW$30, DW_AT_high_pc(0x00)
    1030                            .dwattr $C$DW$30, DW_AT_TI_symbol_name("__isfinitef")
    1031                            .dwattr $C$DW$30, DW_AT_external
    1032                            .dwattr $C$DW$30, DW_AT_type(*$C$DW$T$10)
    1033                            .dwattr $C$DW$30, DW_AT_TI_begin_file("/home/merdak/Apps/ti/ccs1020/ccs/tools/compiler/ti-cgt-
    1034                            .dwattr $C$DW$30, DW_AT_TI_begin_line(0x150)
    1035                            .dwattr $C$DW$30, DW_AT_TI_begin_column(0x25)
    1036                            .dwattr $C$DW$30, DW_AT_decl_file("/home/merdak/Apps/ti/ccs1020/ccs/tools/compiler/ti-cgt-arm_
    1037                            .dwattr $C$DW$30, DW_AT_decl_line(0x150)
    1038                            .dwattr $C$DW$30, DW_AT_decl_column(0x25)
    1039                            .dwattr $C$DW$30, DW_AT_TI_max_frame_size(0x08)
    1040                            .dwpsn  file "/home/merdak/Apps/ti/ccs1020/ccs/tools/compiler/ti-cgt-arm_20.2.4.LTS/include/_d
    1041                    
    1042                            .dwfde $C$DW$CIE, __isfinitef
    1043                    $C$DW$31        .dwtag  DW_TAG_formal_parameter
    1044                            .dwattr $C$DW$31, DW_AT_name("f")
    1045                            .dwattr $C$DW$31, DW_AT_TI_symbol_name("f")
TI ARM Assembler Unix v20.2.4 Fri Apr  2 00:57:47 2021

Copyright (c) 1996-2018 Texas Instruments Incorporated
inv_mpu.asm                                                          PAGE   20

    1046                            .dwattr $C$DW$31, DW_AT_type(*$C$DW$T$16)
    1047                            .dwattr $C$DW$31, DW_AT_location[DW_OP_reg0]
    1048                    
    1049                    ;----------------------------------------------------------------------
    1050                    ; 336 | _CODE_ACCESS _INLINE_DEFINITION int __isfinitef(float f)               
    1051                    ;----------------------------------------------------------------------
    1052                    
    1053                    ;*****************************************************************************
    1054                    ;* FUNCTION NAME: __isfinitef                                                *
    1055                    ;*                                                                           *
    1056                    ;*   Regs Modified     : A1,A2,A3,SP,SR                                      *
    1057                    ;*   Regs Used         : A1,A2,A3,SP,LR,SR                                   *
    1058                    ;*   Local Frame Size  : 0 Args + 4 Auto + 0 Save = 4 byte                   *
    1059                    ;*****************************************************************************
    1060 00000000           __isfinitef:
    1061                    ;* --------------------------------------------------------------------------*
    1062                            .dwcfi  cfa_offset, 0
    1063 00000000 0D08F1AD          SUB       SP, SP, #8            ; [DPU_V7M3_PIPE]  ; [KEEP 32-BIT INS]
    1064                            .dwcfi  cfa_offset, 8
    1065                    $C$DW$32        .dwtag  DW_TAG_variable
    1066                            .dwattr $C$DW$32, DW_AT_name("f")
    1067                            .dwattr $C$DW$32, DW_AT_TI_symbol_name("f")
    1068                            .dwattr $C$DW$32, DW_AT_type(*$C$DW$T$16)
    1069                            .dwattr $C$DW$32, DW_AT_location[DW_OP_breg13 0]
    1070                    
    1071                    ;----------------------------------------------------------------------
    1072                    ; 337 | { return __FLOAT_BIASED_EXP_IS_MAX(f) == 0; }                          
    1073                    ;----------------------------------------------------------------------
    1074 00000004 9000              STR       A1, [SP, #0]          ; [DPU_V7M3_PIPE] |337|  ; [ORIG 16-BIT INS]
    1075                            .dwpsn  file "/home/merdak/Apps/ti/ccs1020/ccs/tools/compiler/ti-cgt-arm_20.2.4.LTS/include/_d
    1076 00000006 9800              LDR       A1, [SP, #0]          ; [DPU_V7M3_PIPE] |337|  ; [ORIG 16-BIT INS]
    1077 00000008 2100              MOVS      A2, #0                ; [DPU_V7M3_PIPE] |337|  ; [ORIG 16-BIT INS]
    1078 0000000a 0C00              LSRS      A1, A1, #16           ; [DPU_V7M3_PIPE] |337|  ; [ORIG 16-BIT INS]
    1079 0000000c 42FFF400          AND       A3, A1, #32640        ; [DPU_V7M3_PIPE] |337|  ; [KEEP 32-BIT INS]
    1080 00000010 4FFFF5B2          CMP       A3, #32640            ; [DPU_V7M3_PIPE] |337|  ; [KEEP 32-BIT INS]
    1081 00000014 0000F04F          MOV       A1, #0                ; [DPU_V7M3_PIPE] |337|  ; [KEEP 32-BIT INS]
    1082 00000018 D100              BNE       ||$C$L3||             ; [DPU_V7M3_PIPE] |337|  ; [ORIG 16-BIT INS]
    1083                            ; BRANCHCC OCCURS {||$C$L3||}    ; [] |337| 
    1084                    ;* --------------------------------------------------------------------------*
    1085 0000001a 2101              MOVS      A2, #1                ; [DPU_V7M3_PIPE] |337|  ; [ORIG 16-BIT INS]
    1086                    ;* --------------------------------------------------------------------------*
    1087 0000001c           ||$C$L3||:    
    1088 0000001c B901              CBNZ      A2, ||$C$L4||         ; []  ; [ORIG 16-BIT INS]
    1089                            ; BRANCHCC OCCURS {||$C$L4||}    ; [] |337| 
    1090                    ;* --------------------------------------------------------------------------*
    1091 0000001e 2001              MOVS      A1, #1                ; [DPU_V7M3_PIPE] |337|  ; [ORIG 16-BIT INS]
    1092                    ;* --------------------------------------------------------------------------*
    1093 00000020           ||$C$L4||:    
    1094                            .dwpsn  file "/home/merdak/Apps/ti/ccs1020/ccs/tools/compiler/ti-cgt-arm_20.2.4.LTS/include/_d
    1095 00000020 B002              ADD       SP, SP, #8            ; [DPU_V7M3_PIPE]  ; [ORIG 16-BIT INS]
    1096                            .dwcfi  cfa_offset, 0
    1097                    $C$DW$33        .dwtag  DW_TAG_TI_branch
    1098                            .dwattr $C$DW$33, DW_AT_low_pc(0x00)
    1099                            .dwattr $C$DW$33, DW_AT_TI_return
    1100                    
TI ARM Assembler Unix v20.2.4 Fri Apr  2 00:57:47 2021

Copyright (c) 1996-2018 Texas Instruments Incorporated
inv_mpu.asm                                                          PAGE   21

    1101 00000022 4770              BX        LR                    ; [DPU_V7M3_PIPE]  ; [ORIG 16-BIT INS]
    1102                            ; BRANCH OCCURS                  ; [] 
    1103                            .dwattr $C$DW$30, DW_AT_TI_end_file("/home/merdak/Apps/ti/ccs1020/ccs/tools/compiler/ti-cgt-ar
    1104                            .dwattr $C$DW$30, DW_AT_TI_end_line(0x151)
    1105                            .dwattr $C$DW$30, DW_AT_TI_end_column(0x2d)
    1106                            .dwendentry
    1107                            .dwendtag $C$DW$30
    1108                    
    1109 00000000                   .sect   ".text:__isfinitel"
    1110                            .clink
    1111                            .thumbfunc __isfinitel
    1112 00000000                   .thumb
    1113                            .global __isfinitel
    1114                    
    1115                    $C$DW$34        .dwtag  DW_TAG_subprogram
    1116                            .dwattr $C$DW$34, DW_AT_name("__isfinitel")
    1117                            .dwattr $C$DW$34, DW_AT_low_pc(__isfinitel)
    1118                            .dwattr $C$DW$34, DW_AT_high_pc(0x00)
    1119                            .dwattr $C$DW$34, DW_AT_TI_symbol_name("__isfinitel")
    1120                            .dwattr $C$DW$34, DW_AT_external
    1121                            .dwattr $C$DW$34, DW_AT_type(*$C$DW$T$10)
    1122                            .dwattr $C$DW$34, DW_AT_TI_begin_file("/home/merdak/Apps/ti/ccs1020/ccs/tools/compiler/ti-cgt-
    1123                            .dwattr $C$DW$34, DW_AT_TI_begin_line(0x152)
    1124                            .dwattr $C$DW$34, DW_AT_TI_begin_column(0x25)
    1125                            .dwattr $C$DW$34, DW_AT_decl_file("/home/merdak/Apps/ti/ccs1020/ccs/tools/compiler/ti-cgt-arm_
    1126                            .dwattr $C$DW$34, DW_AT_decl_line(0x152)
    1127                            .dwattr $C$DW$34, DW_AT_decl_column(0x25)
    1128                            .dwattr $C$DW$34, DW_AT_TI_max_frame_size(0x10)
    1129                            .dwpsn  file "/home/merdak/Apps/ti/ccs1020/ccs/tools/compiler/ti-cgt-arm_20.2.4.LTS/include/_d
    1130                    
    1131                            .dwfde $C$DW$CIE, __isfinitel
    1132                    $C$DW$35        .dwtag  DW_TAG_formal_parameter
    1133                            .dwattr $C$DW$35, DW_AT_name("e")
    1134                            .dwattr $C$DW$35, DW_AT_TI_symbol_name("e")
    1135                            .dwattr $C$DW$35, DW_AT_type(*$C$DW$T$18)
    1136                            .dwattr $C$DW$35, DW_AT_location[DW_OP_reg0]
    1137                    
    1138                    ;----------------------------------------------------------------------
    1139                    ; 338 | _CODE_ACCESS _INLINE_DEFINITION int __isfinitel(long double e)         
    1140                    ;----------------------------------------------------------------------
    1141                    
    1142                    ;*****************************************************************************
    1143                    ;* FUNCTION NAME: __isfinitel                                                *
    1144                    ;*                                                                           *
    1145                    ;*   Regs Modified     : A1,A2,A3,A4,V4,SP,SR                                *
    1146                    ;*   Regs Used         : A1,A2,A3,A4,V4,SP,LR,SR                             *
    1147                    ;*   Local Frame Size  : 0 Args + 8 Auto + 8 Save = 16 byte                  *
    1148                    ;*****************************************************************************
    1149 00000000           __isfinitel:
    1150                    ;* --------------------------------------------------------------------------*
    1151                            .dwcfi  cfa_offset, 0
    1152 00000000 B58C              PUSH      {A3, A4, V4, LR}      ; [DPU_V7M3_PIPE]  ; [ORIG 16-BIT INS]
    1153                            .dwcfi  cfa_offset, 16
    1154                            .dwcfi  save_reg_to_mem, 14, -4
    1155                            .dwcfi  save_reg_to_mem, 7, -8
TI ARM Assembler Unix v20.2.4 Fri Apr  2 00:57:47 2021

Copyright (c) 1996-2018 Texas Instruments Incorporated
inv_mpu.asm                                                          PAGE   22

    1156                            .dwcfi  save_reg_to_mem, 3, -12
    1157                            .dwcfi  save_reg_to_mem, 2, -16
    1158                    $C$DW$36        .dwtag  DW_TAG_variable
    1159                            .dwattr $C$DW$36, DW_AT_name("e")
    1160                            .dwattr $C$DW$36, DW_AT_TI_symbol_name("e")
    1161                            .dwattr $C$DW$36, DW_AT_type(*$C$DW$T$18)
    1162                            .dwattr $C$DW$36, DW_AT_location[DW_OP_breg13 0]
    1163                    
    1164                    ;----------------------------------------------------------------------
    1165                    ; 339 | { return __LDOUBLE_BIASED_EXP_IS_MAX(e) == 0; }                        
    1166                    ;----------------------------------------------------------------------
    1167 00000002 0003E88D          STMIA     SP, {A1,A2}           ; [DPU_V7M3_PIPE] |339|  ; [KEEP 32-BIT INS]
    1168                            .dwpsn  file "/home/merdak/Apps/ti/ccs1020/ccs/tools/compiler/ti-cgt-arm_20.2.4.LTS/include/_d
    1169 00000006 0006E89D          LDMIA     SP, {A2,A3}           ; [DPU_V7M3_PIPE] |339|  ; [KEEP 32-BIT INS]
    1170 0000000a 2000              MOVS      A1, #0                ; [DPU_V7M3_PIPE] |339|  ; [ORIG 16-BIT INS]
    1171 0000000c 2700              MOVS      V4, #0                ; [DPU_V7M3_PIPE] |339|  ; [ORIG 16-BIT INS]
    1172 0000000e 4611              MOV       A2, A3                ; [DPU_V7M3_PIPE] |339|  ; [ORIG 16-BIT INS]
    1173 00000010 000A              LSLS      A3, A2, #0            ; [DPU_V7M3_PIPE] |339|  ; [ORIG 16-BIT INS]
    1174 00000012 2100              MOVS      A2, #0                ; [DPU_V7M3_PIPE] |339|  ; [ORIG 16-BIT INS]
    1175 00000014 4311              ORRS      A2, A2, A3            ; [DPU_V7M3_PIPE] |339|  ; [ORIG 16-BIT INS]
    1176 00000016 0C0A              LSRS      A3, A2, #16           ; [DPU_V7M3_PIPE] |339|  ; [ORIG 16-BIT INS]
    1177 00000018 71F0F647          MOV       A2, #32752            ; [DPU_V7M3_PIPE] |339|  ; [KEEP 32-BIT INS]
    1178 0000001c 4011              ANDS      A2, A2, A3            ; [DPU_V7M3_PIPE] |339|  ; [ORIG 16-BIT INS]
    1179 0000001e 72F0F647          MOV       A3, #32752            ; [DPU_V7M3_PIPE] |339|  ; [KEEP 32-BIT INS]
    1180 00000022 428A              CMP       A3, A2                ; [DPU_V7M3_PIPE] |339|  ; [ORIG 16-BIT INS]
    1181 00000024 D100              BNE       ||$C$L5||             ; [DPU_V7M3_PIPE] |339|  ; [ORIG 16-BIT INS]
    1182                            ; BRANCHCC OCCURS {||$C$L5||}    ; [] |339| 
    1183                    ;* --------------------------------------------------------------------------*
    1184 00000026 2701              MOVS      V4, #1                ; [DPU_V7M3_PIPE] |339|  ; [ORIG 16-BIT INS]
    1185                    ;* --------------------------------------------------------------------------*
    1186 00000028           ||$C$L5||:    
    1187 00000028 B907              CBNZ      V4, ||$C$L6||         ; []  ; [ORIG 16-BIT INS]
    1188                            ; BRANCHCC OCCURS {||$C$L6||}    ; [] |339| 
    1189                    ;* --------------------------------------------------------------------------*
    1190 0000002a 2001              MOVS      A1, #1                ; [DPU_V7M3_PIPE] |339|  ; [ORIG 16-BIT INS]
    1191                    ;* --------------------------------------------------------------------------*
    1192 0000002c           ||$C$L6||:    
    1193                            .dwpsn  file "/home/merdak/Apps/ti/ccs1020/ccs/tools/compiler/ti-cgt-arm_20.2.4.LTS/include/_d
    1194                    $C$DW$37        .dwtag  DW_TAG_TI_branch
    1195                            .dwattr $C$DW$37, DW_AT_low_pc(0x00)
    1196                            .dwattr $C$DW$37, DW_AT_TI_return
    1197                    
    1198 0000002c BD8C              POP       {A3, A4, V4, PC}      ; [DPU_V7M3_PIPE]  ; [ORIG 16-BIT INS]
    1199                            .dwcfi  cfa_offset, 0
    1200                            .dwcfi  restore_reg, 7
    1201                            .dwcfi  restore_reg, 3
    1202                            .dwcfi  restore_reg, 2
    1203                            ; BRANCH OCCURS                  ; [] 
    1204                            .dwattr $C$DW$34, DW_AT_TI_end_file("/home/merdak/Apps/ti/ccs1020/ccs/tools/compiler/ti-cgt-ar
    1205                            .dwattr $C$DW$34, DW_AT_TI_end_line(0x153)
    1206                            .dwattr $C$DW$34, DW_AT_TI_end_column(0x2f)
    1207                            .dwendentry
    1208                            .dwendtag $C$DW$34
    1209                    
    1210 00000000                   .sect   ".text:__isnan"
TI ARM Assembler Unix v20.2.4 Fri Apr  2 00:57:47 2021

Copyright (c) 1996-2018 Texas Instruments Incorporated
inv_mpu.asm                                                          PAGE   23

    1211                            .clink
    1212                            .thumbfunc __isnan
    1213 00000000                   .thumb
    1214                            .global __isnan
    1215                    
    1216                    $C$DW$38        .dwtag  DW_TAG_subprogram
    1217                            .dwattr $C$DW$38, DW_AT_name("__isnan")
    1218                            .dwattr $C$DW$38, DW_AT_low_pc(__isnan)
    1219                            .dwattr $C$DW$38, DW_AT_high_pc(0x00)
    1220                            .dwattr $C$DW$38, DW_AT_TI_symbol_name("__isnan")
    1221                            .dwattr $C$DW$38, DW_AT_external
    1222                            .dwattr $C$DW$38, DW_AT_type(*$C$DW$T$10)
    1223                            .dwattr $C$DW$38, DW_AT_TI_begin_file("/home/merdak/Apps/ti/ccs1020/ccs/tools/compiler/ti-cgt-
    1224                            .dwattr $C$DW$38, DW_AT_TI_begin_line(0x155)
    1225                            .dwattr $C$DW$38, DW_AT_TI_begin_column(0x25)
    1226                            .dwattr $C$DW$38, DW_AT_decl_file("/home/merdak/Apps/ti/ccs1020/ccs/tools/compiler/ti-cgt-arm_
    1227                            .dwattr $C$DW$38, DW_AT_decl_line(0x155)
    1228                            .dwattr $C$DW$38, DW_AT_decl_column(0x25)
    1229                            .dwattr $C$DW$38, DW_AT_TI_max_frame_size(0x20)
    1230                            .dwpsn  file "/home/merdak/Apps/ti/ccs1020/ccs/tools/compiler/ti-cgt-arm_20.2.4.LTS/include/_d
    1231                    
    1232                            .dwfde $C$DW$CIE, __isnan
    1233                    $C$DW$39        .dwtag  DW_TAG_formal_parameter
    1234                            .dwattr $C$DW$39, DW_AT_name("d")
    1235                            .dwattr $C$DW$39, DW_AT_TI_symbol_name("d")
    1236                            .dwattr $C$DW$39, DW_AT_type(*$C$DW$T$17)
    1237                            .dwattr $C$DW$39, DW_AT_location[DW_OP_reg0]
    1238                    
    1239                    ;----------------------------------------------------------------------
    1240                    ; 341 | _CODE_ACCESS _INLINE_DEFINITION int __isnan(double d)                  
    1241                    ;----------------------------------------------------------------------
    1242                    
    1243                    ;*****************************************************************************
    1244                    ;* FUNCTION NAME: __isnan                                                    *
    1245                    ;*                                                                           *
    1246                    ;*   Regs Modified     : A1,A2,A3,A4,V1,V2,V3,V4,SP,SR                       *
    1247                    ;*   Regs Used         : A1,A2,A3,A4,V1,V2,V3,V4,SP,LR,SR                    *
    1248                    ;*   Local Frame Size  : 0 Args + 8 Auto + 20 Save = 28 byte                 *
    1249                    ;*****************************************************************************
    1250 00000000           __isnan:
    1251                    ;* --------------------------------------------------------------------------*
    1252                            .dwcfi  cfa_offset, 0
    1253 00000000 B5FE              PUSH      {A2, A3, A4, V1, V2, V3, V4, LR} ; [DPU_V7M3_PIPE]  ; [ORIG 16-BIT INS]
    1254                            .dwcfi  cfa_offset, 32
    1255                            .dwcfi  save_reg_to_mem, 14, -4
    1256                            .dwcfi  save_reg_to_mem, 7, -8
    1257                            .dwcfi  save_reg_to_mem, 6, -12
    1258                            .dwcfi  save_reg_to_mem, 5, -16
    1259                            .dwcfi  save_reg_to_mem, 4, -20
    1260                            .dwcfi  save_reg_to_mem, 3, -24
    1261                            .dwcfi  save_reg_to_mem, 2, -28
    1262                            .dwcfi  save_reg_to_mem, 1, -32
    1263                    $C$DW$40        .dwtag  DW_TAG_variable
    1264                            .dwattr $C$DW$40, DW_AT_name("d")
    1265                            .dwattr $C$DW$40, DW_AT_TI_symbol_name("d")
TI ARM Assembler Unix v20.2.4 Fri Apr  2 00:57:47 2021

Copyright (c) 1996-2018 Texas Instruments Incorporated
inv_mpu.asm                                                          PAGE   24

    1266                            .dwattr $C$DW$40, DW_AT_type(*$C$DW$T$17)
    1267                            .dwattr $C$DW$40, DW_AT_location[DW_OP_breg13 0]
    1268                    
    1269                    ;----------------------------------------------------------------------
    1270                    ; 342 | { return __DOUBLE_BIASED_EXP_IS_MAX(d) &&                              
    1271                    ;----------------------------------------------------------------------
    1272 00000002 0003E88D          STMIA     SP, {A1,A2}           ; [DPU_V7M3_PIPE] |342|  ; [KEEP 32-BIT INS]
    1273                            .dwpsn  file "/home/merdak/Apps/ti/ccs1020/ccs/tools/compiler/ti-cgt-arm_20.2.4.LTS/include/_d
    1274 00000006 0006E89D          LDMIA     SP, {A2,A3}           ; [DPU_V7M3_PIPE] |342|  ; [KEEP 32-BIT INS]
    1275 0000000a 2000              MOVS      A1, #0                ; [DPU_V7M3_PIPE] |342|  ; [ORIG 16-BIT INS]
    1276 0000000c 4611              MOV       A2, A3                ; [DPU_V7M3_PIPE] |342|  ; [ORIG 16-BIT INS]
    1277 0000000e 000A              LSLS      A3, A2, #0            ; [DPU_V7M3_PIPE] |342|  ; [ORIG 16-BIT INS]
    1278 00000010 2100              MOVS      A2, #0                ; [DPU_V7M3_PIPE] |342|  ; [ORIG 16-BIT INS]
    1279 00000012 4311              ORRS      A2, A2, A3            ; [DPU_V7M3_PIPE] |342|  ; [ORIG 16-BIT INS]
    1280 00000014 0C0A              LSRS      A3, A2, #16           ; [DPU_V7M3_PIPE] |342|  ; [ORIG 16-BIT INS]
    1281 00000016 71F0F647          MOV       A2, #32752            ; [DPU_V7M3_PIPE] |342|  ; [KEEP 32-BIT INS]
    1282 0000001a 4011              ANDS      A2, A2, A3            ; [DPU_V7M3_PIPE] |342|  ; [ORIG 16-BIT INS]
    1283 0000001c 72F0F647          MOV       A3, #32752            ; [DPU_V7M3_PIPE] |342|  ; [KEEP 32-BIT INS]
    1284 00000020 428A              CMP       A3, A2                ; [DPU_V7M3_PIPE] |342|  ; [ORIG 16-BIT INS]
    1285 00000022 D115              BNE       ||$C$L9||             ; [DPU_V7M3_PIPE] |342|  ; [ORIG 16-BIT INS]
    1286                            ; BRANCHCC OCCURS {||$C$L9||}    ; [] |342| 
    1287                    ;* --------------------------------------------------------------------------*
    1288 00000024 0006E89D          LDMIA     SP, {A2,A3}           ; [DPU_V7M3_PIPE] |342|  ; [KEEP 32-BIT INS]
    1289 00000028 4E0A              LDR       V3, $C$CON1           ; [DPU_V7M3_PIPE] |342|  ; [ORIG 16-BIT INS]
    1290 0000002a 4611              MOV       A2, A3                ; [DPU_V7M3_PIPE] |342|  ; [ORIG 16-BIT INS]
    1291 0000002c 000CE89D          LDMIA     SP, {A3,A4}           ; [DPU_V7M3_PIPE] |342|  ; [KEEP 32-BIT INS]
    1292 00000030 2500              MOVS      V2, #0                ; [DPU_V7M3_PIPE] |342|  ; [ORIG 16-BIT INS]
    1293 00000032 000C              LSLS      V1, A2, #0            ; [DPU_V7M3_PIPE] |342|  ; [ORIG 16-BIT INS]
    1294 00000034 2700              MOVS      V4, #0                ; [DPU_V7M3_PIPE] |342|  ; [ORIG 16-BIT INS]
    1295 00000036 2100              MOVS      A2, #0                ; [DPU_V7M3_PIPE] |342|  ; [ORIG 16-BIT INS]
    1296 00000038 33FFF04F          MOV       A4, #-1               ; [DPU_V7M3_PIPE] |342|  ; [KEEP 32-BIT INS]
    1297 0000003c 432A              ORRS      A3, A3, V2            ; [DPU_V7M3_PIPE] |342|  ; [ORIG 16-BIT INS]
    1298 0000003e 4321              ORRS      A2, A2, V1            ; [DPU_V7M3_PIPE] |342|  ; [ORIG 16-BIT INS]
    1299 00000040 4013              ANDS      A4, A4, A3            ; [DPU_V7M3_PIPE] |342|  ; [ORIG 16-BIT INS]
    1300 00000042 400E              ANDS      V3, V3, A2            ; [DPU_V7M3_PIPE] |342|  ; [ORIG 16-BIT INS]
    1301 00000044 D100              BNE       ||$C$L7||             ; [DPU_V7M3_PIPE] |342|  ; [ORIG 16-BIT INS]
    1302                            ; BRANCHCC OCCURS {||$C$L7||}    ; [] |342| 
    1303                    ;* --------------------------------------------------------------------------*
    1304 00000046 2B00              CMP       A4, #0                ; [DPU_V7M3_PIPE] |342|  ; [ORIG 16-BIT INS]
    1305                    ;* --------------------------------------------------------------------------*
    1306 00000048           ||$C$L7||:    
    1307 00000048 D100              BNE       ||$C$L8||             ; [DPU_V7M3_PIPE] |342|  ; [ORIG 16-BIT INS]
    1308                            ; BRANCHCC OCCURS {||$C$L8||}    ; [] |342| 
    1309                    ;* --------------------------------------------------------------------------*
    1310 0000004a 2701              MOVS      V4, #1                ; [DPU_V7M3_PIPE] |342|  ; [ORIG 16-BIT INS]
    1311                    ;* --------------------------------------------------------------------------*
    1312 0000004c           ||$C$L8||:    
    1313 0000004c B907              CBNZ      V4, ||$C$L9||         ; []  ; [ORIG 16-BIT INS]
    1314                            ; BRANCHCC OCCURS {||$C$L9||}    ; [] |342| 
    1315                    ;* --------------------------------------------------------------------------*
    1316 0000004e 2001              MOVS      A1, #1                ; [DPU_V7M3_PIPE] |342|  ; [ORIG 16-BIT INS]
    1317                    ;* --------------------------------------------------------------------------*
    1318 00000050           ||$C$L9||:    
    1319                            .dwpsn  file "/home/merdak/Apps/ti/ccs1020/ccs/tools/compiler/ti-cgt-arm_20.2.4.LTS/include/_d
    1320                    ;----------------------------------------------------------------------
TI ARM Assembler Unix v20.2.4 Fri Apr  2 00:57:47 2021

Copyright (c) 1996-2018 Texas Instruments Incorporated
inv_mpu.asm                                                          PAGE   25

    1321                    ; 343 | (__DOUBLE_FRAC_PART_IS_ZERO(d) == 0); }                                
    1322                    ;----------------------------------------------------------------------
    1323                    $C$DW$41        .dwtag  DW_TAG_TI_branch
    1324                            .dwattr $C$DW$41, DW_AT_low_pc(0x00)
    1325                            .dwattr $C$DW$41, DW_AT_TI_return
    1326                    
    1327 00000050 BDFE              POP       {A2, A3, A4, V1, V2, V3, V4, PC} ; [DPU_V7M3_PIPE]  ; [ORIG 16-BIT INS]
    1328                            .dwcfi  cfa_offset, 0
    1329                            .dwcfi  restore_reg, 7
    1330                            .dwcfi  restore_reg, 6
    1331                            .dwcfi  restore_reg, 5
    1332                            .dwcfi  restore_reg, 4
    1333                            .dwcfi  restore_reg, 3
    1334                            .dwcfi  restore_reg, 2
    1335                            .dwcfi  restore_reg, 1
    1336                            ; BRANCH OCCURS                  ; [] 
    1337                            .dwattr $C$DW$38, DW_AT_TI_end_file("/home/merdak/Apps/ti/ccs1020/ccs/tools/compiler/ti-cgt-ar
    1338                            .dwattr $C$DW$38, DW_AT_TI_end_line(0x157)
    1339                            .dwattr $C$DW$38, DW_AT_TI_end_column(0x2f)
    1340                            .dwendentry
    1341                            .dwendtag $C$DW$38
    1342                    
    1343 00000000                   .sect   ".text:__isnanf"
    1344                            .clink
    1345                            .thumbfunc __isnanf
    1346 00000000                   .thumb
    1347                            .global __isnanf
    1348                    
    1349                    $C$DW$42        .dwtag  DW_TAG_subprogram
    1350                            .dwattr $C$DW$42, DW_AT_name("__isnanf")
    1351                            .dwattr $C$DW$42, DW_AT_low_pc(__isnanf)
    1352                            .dwattr $C$DW$42, DW_AT_high_pc(0x00)
    1353                            .dwattr $C$DW$42, DW_AT_TI_symbol_name("__isnanf")
    1354                            .dwattr $C$DW$42, DW_AT_external
    1355                            .dwattr $C$DW$42, DW_AT_type(*$C$DW$T$10)
    1356                            .dwattr $C$DW$42, DW_AT_TI_begin_file("/home/merdak/Apps/ti/ccs1020/ccs/tools/compiler/ti-cgt-
    1357                            .dwattr $C$DW$42, DW_AT_TI_begin_line(0x158)
    1358                            .dwattr $C$DW$42, DW_AT_TI_begin_column(0x25)
    1359                            .dwattr $C$DW$42, DW_AT_decl_file("/home/merdak/Apps/ti/ccs1020/ccs/tools/compiler/ti-cgt-arm_
    1360                            .dwattr $C$DW$42, DW_AT_decl_line(0x158)
    1361                            .dwattr $C$DW$42, DW_AT_decl_column(0x25)
    1362                            .dwattr $C$DW$42, DW_AT_TI_max_frame_size(0x08)
    1363                            .dwpsn  file "/home/merdak/Apps/ti/ccs1020/ccs/tools/compiler/ti-cgt-arm_20.2.4.LTS/include/_d
    1364                    
    1365                            .dwfde $C$DW$CIE, __isnanf
    1366                    $C$DW$43        .dwtag  DW_TAG_formal_parameter
    1367                            .dwattr $C$DW$43, DW_AT_name("f")
    1368                            .dwattr $C$DW$43, DW_AT_TI_symbol_name("f")
    1369                            .dwattr $C$DW$43, DW_AT_type(*$C$DW$T$16)
    1370                            .dwattr $C$DW$43, DW_AT_location[DW_OP_reg0]
    1371                    
    1372                    ;----------------------------------------------------------------------
    1373                    ; 344 | _CODE_ACCESS _INLINE_DEFINITION int __isnanf(float f)                  
    1374                    ;----------------------------------------------------------------------
    1375                    
TI ARM Assembler Unix v20.2.4 Fri Apr  2 00:57:47 2021

Copyright (c) 1996-2018 Texas Instruments Incorporated
inv_mpu.asm                                                          PAGE   26

    1376                    ;*****************************************************************************
    1377                    ;* FUNCTION NAME: __isnanf                                                   *
    1378                    ;*                                                                           *
    1379                    ;*   Regs Modified     : A1,A2,A3,SP,SR                                      *
    1380                    ;*   Regs Used         : A1,A2,A3,SP,LR,SR                                   *
    1381                    ;*   Local Frame Size  : 0 Args + 4 Auto + 0 Save = 4 byte                   *
    1382                    ;*****************************************************************************
    1383 00000000           __isnanf:
    1384                    ;* --------------------------------------------------------------------------*
    1385                            .dwcfi  cfa_offset, 0
    1386 00000000 0D08F1AD          SUB       SP, SP, #8            ; [DPU_V7M3_PIPE]  ; [KEEP 32-BIT INS]
    1387                            .dwcfi  cfa_offset, 8
    1388                    $C$DW$44        .dwtag  DW_TAG_variable
    1389                            .dwattr $C$DW$44, DW_AT_name("f")
    1390                            .dwattr $C$DW$44, DW_AT_TI_symbol_name("f")
    1391                            .dwattr $C$DW$44, DW_AT_type(*$C$DW$T$16)
    1392                            .dwattr $C$DW$44, DW_AT_location[DW_OP_breg13 0]
    1393                    
    1394                    ;----------------------------------------------------------------------
    1395                    ; 345 | { return __FLOAT_BIASED_EXP_IS_MAX(f) &&                               
    1396                    ;----------------------------------------------------------------------
    1397 00000004 9000              STR       A1, [SP, #0]          ; [DPU_V7M3_PIPE] |345|  ; [ORIG 16-BIT INS]
    1398                            .dwpsn  file "/home/merdak/Apps/ti/ccs1020/ccs/tools/compiler/ti-cgt-arm_20.2.4.LTS/include/_d
    1399 00000006 9800              LDR       A1, [SP, #0]          ; [DPU_V7M3_PIPE] |345|  ; [ORIG 16-BIT INS]
    1400 00000008 2200              MOVS      A3, #0                ; [DPU_V7M3_PIPE] |345|  ; [ORIG 16-BIT INS]
    1401 0000000a 0C00              LSRS      A1, A1, #16           ; [DPU_V7M3_PIPE] |345|  ; [ORIG 16-BIT INS]
    1402 0000000c 40FFF400          AND       A1, A1, #32640        ; [DPU_V7M3_PIPE] |345|  ; [KEEP 32-BIT INS]
    1403 00000010 4FFFF5B0          CMP       A1, #32640            ; [DPU_V7M3_PIPE] |345|  ; [KEEP 32-BIT INS]
    1404 00000014 D108              BNE       ||$C$L11||            ; [DPU_V7M3_PIPE] |345|  ; [ORIG 16-BIT INS]
    1405                            ; BRANCHCC OCCURS {||$C$L11||}   ; [] |345| 
    1406                    ;* --------------------------------------------------------------------------*
    1407 00000016 9800              LDR       A1, [SP, #0]          ; [DPU_V7M3_PIPE] |345|  ; [ORIG 16-BIT INS]
    1408 00000018 4601              MOV       A2, A1                ; [DPU_V7M3_PIPE] |345|  ; [ORIG 16-BIT INS]
    1409 0000001a 51DFF36F          BFC       A2, #23, #9           ; [DPU_V7M3_PIPE] |345|  ; [KEEP 32-BIT INS]
    1410 0000001e 2000              MOVS      A1, #0                ; [DPU_V7M3_PIPE] |345|  ; [ORIG 16-BIT INS]
    1411 00000020 B901              CBNZ      A2, ||$C$L10||        ; []  ; [ORIG 16-BIT INS]
    1412                            ; BRANCHCC OCCURS {||$C$L10||}   ; [] |345| 
    1413                    ;* --------------------------------------------------------------------------*
    1414 00000022 2001              MOVS      A1, #1                ; [DPU_V7M3_PIPE] |345|  ; [ORIG 16-BIT INS]
    1415                    ;* --------------------------------------------------------------------------*
    1416 00000024           ||$C$L10||:    
    1417 00000024 B900              CBNZ      A1, ||$C$L11||        ; []  ; [ORIG 16-BIT INS]
    1418                            ; BRANCHCC OCCURS {||$C$L11||}   ; [] |345| 
    1419                    ;* --------------------------------------------------------------------------*
    1420 00000026 2201              MOVS      A3, #1                ; [DPU_V7M3_PIPE] |345|  ; [ORIG 16-BIT INS]
    1421                    ;* --------------------------------------------------------------------------*
    1422 00000028           ||$C$L11||:    
    1423 00000028 4610              MOV       A1, A3                ; [DPU_V7M3_PIPE] |345|  ; [ORIG 16-BIT INS]
    1424                            .dwpsn  file "/home/merdak/Apps/ti/ccs1020/ccs/tools/compiler/ti-cgt-arm_20.2.4.LTS/include/_d
    1425                    ;----------------------------------------------------------------------
    1426                    ; 346 | (__FLOAT_FRAC_PART_IS_ZERO(f) == 0); }                                 
    1427                    ;----------------------------------------------------------------------
    1428 0000002a B002              ADD       SP, SP, #8            ; [DPU_V7M3_PIPE]  ; [ORIG 16-BIT INS]
    1429                            .dwcfi  cfa_offset, 0
    1430                    $C$DW$45        .dwtag  DW_TAG_TI_branch
TI ARM Assembler Unix v20.2.4 Fri Apr  2 00:57:47 2021

Copyright (c) 1996-2018 Texas Instruments Incorporated
inv_mpu.asm                                                          PAGE   27

    1431                            .dwattr $C$DW$45, DW_AT_low_pc(0x00)
    1432                            .dwattr $C$DW$45, DW_AT_TI_return
    1433                    
    1434 0000002c 4770              BX        LR                    ; [DPU_V7M3_PIPE]  ; [ORIG 16-BIT INS]
    1435                            ; BRANCH OCCURS                  ; [] 
    1436                            .dwattr $C$DW$42, DW_AT_TI_end_file("/home/merdak/Apps/ti/ccs1020/ccs/tools/compiler/ti-cgt-ar
    1437                            .dwattr $C$DW$42, DW_AT_TI_end_line(0x15a)
    1438                            .dwattr $C$DW$42, DW_AT_TI_end_column(0x2e)
    1439                            .dwendentry
    1440                            .dwendtag $C$DW$42
    1441                    
    1442 00000000                   .sect   ".text:__isnanl"
    1443                            .clink
    1444                            .thumbfunc __isnanl
    1445 00000000                   .thumb
    1446                            .global __isnanl
    1447                    
    1448                    $C$DW$46        .dwtag  DW_TAG_subprogram
    1449                            .dwattr $C$DW$46, DW_AT_name("__isnanl")
    1450                            .dwattr $C$DW$46, DW_AT_low_pc(__isnanl)
    1451                            .dwattr $C$DW$46, DW_AT_high_pc(0x00)
    1452                            .dwattr $C$DW$46, DW_AT_TI_symbol_name("__isnanl")
    1453                            .dwattr $C$DW$46, DW_AT_external
    1454                            .dwattr $C$DW$46, DW_AT_type(*$C$DW$T$10)
    1455                            .dwattr $C$DW$46, DW_AT_TI_begin_file("/home/merdak/Apps/ti/ccs1020/ccs/tools/compiler/ti-cgt-
    1456                            .dwattr $C$DW$46, DW_AT_TI_begin_line(0x15b)
    1457                            .dwattr $C$DW$46, DW_AT_TI_begin_column(0x25)
    1458                            .dwattr $C$DW$46, DW_AT_decl_file("/home/merdak/Apps/ti/ccs1020/ccs/tools/compiler/ti-cgt-arm_
    1459                            .dwattr $C$DW$46, DW_AT_decl_line(0x15b)
    1460                            .dwattr $C$DW$46, DW_AT_decl_column(0x25)
    1461                            .dwattr $C$DW$46, DW_AT_TI_max_frame_size(0x20)
    1462                            .dwpsn  file "/home/merdak/Apps/ti/ccs1020/ccs/tools/compiler/ti-cgt-arm_20.2.4.LTS/include/_d
    1463                    
    1464                            .dwfde $C$DW$CIE, __isnanl
    1465                    $C$DW$47        .dwtag  DW_TAG_formal_parameter
    1466                            .dwattr $C$DW$47, DW_AT_name("e")
    1467                            .dwattr $C$DW$47, DW_AT_TI_symbol_name("e")
    1468                            .dwattr $C$DW$47, DW_AT_type(*$C$DW$T$18)
    1469                            .dwattr $C$DW$47, DW_AT_location[DW_OP_reg0]
    1470                    
    1471                    ;----------------------------------------------------------------------
    1472                    ; 347 | _CODE_ACCESS _INLINE_DEFINITION int __isnanl(long double e)            
    1473                    ;----------------------------------------------------------------------
    1474                    
    1475                    ;*****************************************************************************
    1476                    ;* FUNCTION NAME: __isnanl                                                   *
    1477                    ;*                                                                           *
    1478                    ;*   Regs Modified     : A1,A2,A3,A4,V1,V2,V3,V4,SP,SR                       *
    1479                    ;*   Regs Used         : A1,A2,A3,A4,V1,V2,V3,V4,SP,LR,SR                    *
    1480                    ;*   Local Frame Size  : 0 Args + 8 Auto + 20 Save = 28 byte                 *
    1481                    ;*****************************************************************************
    1482 00000000           __isnanl:
    1483                    ;* --------------------------------------------------------------------------*
    1484                            .dwcfi  cfa_offset, 0
    1485 00000000 B5FE              PUSH      {A2, A3, A4, V1, V2, V3, V4, LR} ; [DPU_V7M3_PIPE]  ; [ORIG 16-BIT INS]
TI ARM Assembler Unix v20.2.4 Fri Apr  2 00:57:47 2021

Copyright (c) 1996-2018 Texas Instruments Incorporated
inv_mpu.asm                                                          PAGE   28

    1486                            .dwcfi  cfa_offset, 32
    1487                            .dwcfi  save_reg_to_mem, 14, -4
    1488                            .dwcfi  save_reg_to_mem, 7, -8
    1489                            .dwcfi  save_reg_to_mem, 6, -12
    1490                            .dwcfi  save_reg_to_mem, 5, -16
    1491                            .dwcfi  save_reg_to_mem, 4, -20
    1492                            .dwcfi  save_reg_to_mem, 3, -24
    1493                            .dwcfi  save_reg_to_mem, 2, -28
    1494                            .dwcfi  save_reg_to_mem, 1, -32
    1495                    $C$DW$48        .dwtag  DW_TAG_variable
    1496                            .dwattr $C$DW$48, DW_AT_name("e")
    1497                            .dwattr $C$DW$48, DW_AT_TI_symbol_name("e")
    1498                            .dwattr $C$DW$48, DW_AT_type(*$C$DW$T$18)
    1499                            .dwattr $C$DW$48, DW_AT_location[DW_OP_breg13 0]
    1500                    
    1501                    ;----------------------------------------------------------------------
    1502                    ; 348 | { return __LDOUBLE_BIASED_EXP_IS_MAX(e) &&                             
    1503                    ;----------------------------------------------------------------------
    1504 00000002 0003E88D          STMIA     SP, {A1,A2}           ; [DPU_V7M3_PIPE] |348|  ; [KEEP 32-BIT INS]
    1505                            .dwpsn  file "/home/merdak/Apps/ti/ccs1020/ccs/tools/compiler/ti-cgt-arm_20.2.4.LTS/include/_d
    1506 00000006 0006E89D          LDMIA     SP, {A2,A3}           ; [DPU_V7M3_PIPE] |348|  ; [KEEP 32-BIT INS]
    1507 0000000a 2000              MOVS      A1, #0                ; [DPU_V7M3_PIPE] |348|  ; [ORIG 16-BIT INS]
    1508 0000000c 4611              MOV       A2, A3                ; [DPU_V7M3_PIPE] |348|  ; [ORIG 16-BIT INS]
    1509 0000000e 000A              LSLS      A3, A2, #0            ; [DPU_V7M3_PIPE] |348|  ; [ORIG 16-BIT INS]
    1510 00000010 2100              MOVS      A2, #0                ; [DPU_V7M3_PIPE] |348|  ; [ORIG 16-BIT INS]
    1511 00000012 4311              ORRS      A2, A2, A3            ; [DPU_V7M3_PIPE] |348|  ; [ORIG 16-BIT INS]
    1512 00000014 0C0A              LSRS      A3, A2, #16           ; [DPU_V7M3_PIPE] |348|  ; [ORIG 16-BIT INS]
    1513 00000016 71F0F647          MOV       A2, #32752            ; [DPU_V7M3_PIPE] |348|  ; [KEEP 32-BIT INS]
    1514 0000001a 4011              ANDS      A2, A2, A3            ; [DPU_V7M3_PIPE] |348|  ; [ORIG 16-BIT INS]
    1515 0000001c 72F0F647          MOV       A3, #32752            ; [DPU_V7M3_PIPE] |348|  ; [KEEP 32-BIT INS]
    1516 00000020 428A              CMP       A3, A2                ; [DPU_V7M3_PIPE] |348|  ; [ORIG 16-BIT INS]
    1517 00000022 D115              BNE       ||$C$L14||            ; [DPU_V7M3_PIPE] |348|  ; [ORIG 16-BIT INS]
    1518                            ; BRANCHCC OCCURS {||$C$L14||}   ; [] |348| 
    1519                    ;* --------------------------------------------------------------------------*
    1520 00000024 0006E89D          LDMIA     SP, {A2,A3}           ; [DPU_V7M3_PIPE] |348|  ; [KEEP 32-BIT INS]
    1521 00000028 4E0A              LDR       V3, $C$CON2           ; [DPU_V7M3_PIPE] |348|  ; [ORIG 16-BIT INS]
    1522 0000002a 4611              MOV       A2, A3                ; [DPU_V7M3_PIPE] |348|  ; [ORIG 16-BIT INS]
    1523 0000002c 000CE89D          LDMIA     SP, {A3,A4}           ; [DPU_V7M3_PIPE] |348|  ; [KEEP 32-BIT INS]
    1524 00000030 2500              MOVS      V2, #0                ; [DPU_V7M3_PIPE] |348|  ; [ORIG 16-BIT INS]
    1525 00000032 000C              LSLS      V1, A2, #0            ; [DPU_V7M3_PIPE] |348|  ; [ORIG 16-BIT INS]
    1526 00000034 2700              MOVS      V4, #0                ; [DPU_V7M3_PIPE] |348|  ; [ORIG 16-BIT INS]
    1527 00000036 2100              MOVS      A2, #0                ; [DPU_V7M3_PIPE] |348|  ; [ORIG 16-BIT INS]
    1528 00000038 33FFF04F          MOV       A4, #-1               ; [DPU_V7M3_PIPE] |348|  ; [KEEP 32-BIT INS]
    1529 0000003c 432A              ORRS      A3, A3, V2            ; [DPU_V7M3_PIPE] |348|  ; [ORIG 16-BIT INS]
    1530 0000003e 4321              ORRS      A2, A2, V1            ; [DPU_V7M3_PIPE] |348|  ; [ORIG 16-BIT INS]
    1531 00000040 4013              ANDS      A4, A4, A3            ; [DPU_V7M3_PIPE] |348|  ; [ORIG 16-BIT INS]
    1532 00000042 400E              ANDS      V3, V3, A2            ; [DPU_V7M3_PIPE] |348|  ; [ORIG 16-BIT INS]
    1533 00000044 D100              BNE       ||$C$L12||            ; [DPU_V7M3_PIPE] |348|  ; [ORIG 16-BIT INS]
    1534                            ; BRANCHCC OCCURS {||$C$L12||}   ; [] |348| 
    1535                    ;* --------------------------------------------------------------------------*
    1536 00000046 2B00              CMP       A4, #0                ; [DPU_V7M3_PIPE] |348|  ; [ORIG 16-BIT INS]
    1537                    ;* --------------------------------------------------------------------------*
    1538 00000048           ||$C$L12||:    
    1539 00000048 D100              BNE       ||$C$L13||            ; [DPU_V7M3_PIPE] |348|  ; [ORIG 16-BIT INS]
    1540                            ; BRANCHCC OCCURS {||$C$L13||}   ; [] |348| 
TI ARM Assembler Unix v20.2.4 Fri Apr  2 00:57:47 2021

Copyright (c) 1996-2018 Texas Instruments Incorporated
inv_mpu.asm                                                          PAGE   29

    1541                    ;* --------------------------------------------------------------------------*
    1542 0000004a 2701              MOVS      V4, #1                ; [DPU_V7M3_PIPE] |348|  ; [ORIG 16-BIT INS]
    1543                    ;* --------------------------------------------------------------------------*
    1544 0000004c           ||$C$L13||:    
    1545 0000004c B907              CBNZ      V4, ||$C$L14||        ; []  ; [ORIG 16-BIT INS]
    1546                            ; BRANCHCC OCCURS {||$C$L14||}   ; [] |348| 
    1547                    ;* --------------------------------------------------------------------------*
    1548 0000004e 2001              MOVS      A1, #1                ; [DPU_V7M3_PIPE] |348|  ; [ORIG 16-BIT INS]
    1549                    ;* --------------------------------------------------------------------------*
    1550 00000050           ||$C$L14||:    
    1551                            .dwpsn  file "/home/merdak/Apps/ti/ccs1020/ccs/tools/compiler/ti-cgt-arm_20.2.4.LTS/include/_d
    1552                    ;----------------------------------------------------------------------
    1553                    ; 349 | (__LDOUBLE_FRAC_PART_IS_ZERO(e) == 0); }                               
    1554                    ;----------------------------------------------------------------------
    1555                    $C$DW$49        .dwtag  DW_TAG_TI_branch
    1556                            .dwattr $C$DW$49, DW_AT_low_pc(0x00)
    1557                            .dwattr $C$DW$49, DW_AT_TI_return
    1558                    
    1559 00000050 BDFE              POP       {A2, A3, A4, V1, V2, V3, V4, PC} ; [DPU_V7M3_PIPE]  ; [ORIG 16-BIT INS]
    1560                            .dwcfi  cfa_offset, 0
    1561                            .dwcfi  restore_reg, 7
    1562                            .dwcfi  restore_reg, 6
    1563                            .dwcfi  restore_reg, 5
    1564                            .dwcfi  restore_reg, 4
    1565                            .dwcfi  restore_reg, 3
    1566                            .dwcfi  restore_reg, 2
    1567                            .dwcfi  restore_reg, 1
    1568                            ; BRANCH OCCURS                  ; [] 
    1569                            .dwattr $C$DW$46, DW_AT_TI_end_file("/home/merdak/Apps/ti/ccs1020/ccs/tools/compiler/ti-cgt-ar
    1570                            .dwattr $C$DW$46, DW_AT_TI_end_line(0x15d)
    1571                            .dwattr $C$DW$46, DW_AT_TI_end_column(0x30)
    1572                            .dwendentry
    1573                            .dwendtag $C$DW$46
    1574                    
    1575 00000000                   .sect   ".text:__isnormal"
    1576                            .clink
    1577                            .thumbfunc __isnormal
    1578 00000000                   .thumb
    1579                            .global __isnormal
    1580                    
    1581                    $C$DW$50        .dwtag  DW_TAG_subprogram
    1582                            .dwattr $C$DW$50, DW_AT_name("__isnormal")
    1583                            .dwattr $C$DW$50, DW_AT_low_pc(__isnormal)
    1584                            .dwattr $C$DW$50, DW_AT_high_pc(0x00)
    1585                            .dwattr $C$DW$50, DW_AT_TI_symbol_name("__isnormal")
    1586                            .dwattr $C$DW$50, DW_AT_external
    1587                            .dwattr $C$DW$50, DW_AT_type(*$C$DW$T$10)
    1588                            .dwattr $C$DW$50, DW_AT_TI_begin_file("/home/merdak/Apps/ti/ccs1020/ccs/tools/compiler/ti-cgt-
    1589                            .dwattr $C$DW$50, DW_AT_TI_begin_line(0x15f)
    1590                            .dwattr $C$DW$50, DW_AT_TI_begin_column(0x25)
    1591                            .dwattr $C$DW$50, DW_AT_decl_file("/home/merdak/Apps/ti/ccs1020/ccs/tools/compiler/ti-cgt-arm_
    1592                            .dwattr $C$DW$50, DW_AT_decl_line(0x15f)
    1593                            .dwattr $C$DW$50, DW_AT_decl_column(0x25)
    1594                            .dwattr $C$DW$50, DW_AT_TI_max_frame_size(0x18)
    1595                            .dwpsn  file "/home/merdak/Apps/ti/ccs1020/ccs/tools/compiler/ti-cgt-arm_20.2.4.LTS/include/_d
TI ARM Assembler Unix v20.2.4 Fri Apr  2 00:57:47 2021

Copyright (c) 1996-2018 Texas Instruments Incorporated
inv_mpu.asm                                                          PAGE   30

    1596                    
    1597                            .dwfde $C$DW$CIE, __isnormal
    1598                    $C$DW$51        .dwtag  DW_TAG_formal_parameter
    1599                            .dwattr $C$DW$51, DW_AT_name("d")
    1600                            .dwattr $C$DW$51, DW_AT_TI_symbol_name("d")
    1601                            .dwattr $C$DW$51, DW_AT_type(*$C$DW$T$17)
    1602                            .dwattr $C$DW$51, DW_AT_location[DW_OP_reg0]
    1603                    
    1604                    ;----------------------------------------------------------------------
    1605                    ; 351 | _CODE_ACCESS _INLINE_DEFINITION int __isnormal(double d)               
    1606                    ;----------------------------------------------------------------------
    1607                    
    1608                    ;*****************************************************************************
    1609                    ;* FUNCTION NAME: __isnormal                                                 *
    1610                    ;*                                                                           *
    1611                    ;*   Regs Modified     : A1,A2,A3,A4,V3,V4,SP,SR                             *
    1612                    ;*   Regs Used         : A1,A2,A3,A4,V3,V4,SP,LR,SR                          *
    1613                    ;*   Local Frame Size  : 0 Args + 8 Auto + 12 Save = 20 byte                 *
    1614                    ;*****************************************************************************
    1615 00000000           __isnormal:
    1616                    ;* --------------------------------------------------------------------------*
    1617                            .dwcfi  cfa_offset, 0
    1618 00000000 B5CE              PUSH      {A2, A3, A4, V3, V4, LR} ; [DPU_V7M3_PIPE]  ; [ORIG 16-BIT INS]
    1619                            .dwcfi  cfa_offset, 24
    1620                            .dwcfi  save_reg_to_mem, 14, -4
    1621                            .dwcfi  save_reg_to_mem, 7, -8
    1622                            .dwcfi  save_reg_to_mem, 6, -12
    1623                            .dwcfi  save_reg_to_mem, 3, -16
    1624                            .dwcfi  save_reg_to_mem, 2, -20
    1625                            .dwcfi  save_reg_to_mem, 1, -24
    1626                    $C$DW$52        .dwtag  DW_TAG_variable
    1627                            .dwattr $C$DW$52, DW_AT_name("d")
    1628                            .dwattr $C$DW$52, DW_AT_TI_symbol_name("d")
    1629                            .dwattr $C$DW$52, DW_AT_type(*$C$DW$T$17)
    1630                            .dwattr $C$DW$52, DW_AT_location[DW_OP_breg13 0]
    1631                    
    1632                    ;----------------------------------------------------------------------
    1633                    ; 352 | { return (__DOUBLE_BIASED_EXP_IS_ZERO(d) == 0) &&                      
    1634                    ;----------------------------------------------------------------------
    1635 00000002 0003E88D          STMIA     SP, {A1,A2}           ; [DPU_V7M3_PIPE] |352|  ; [KEEP 32-BIT INS]
    1636                            .dwpsn  file "/home/merdak/Apps/ti/ccs1020/ccs/tools/compiler/ti-cgt-arm_20.2.4.LTS/include/_d
    1637 00000006 0006E89D          LDMIA     SP, {A2,A3}           ; [DPU_V7M3_PIPE] |352|  ; [KEEP 32-BIT INS]
    1638 0000000a 2000              MOVS      A1, #0                ; [DPU_V7M3_PIPE] |352|  ; [ORIG 16-BIT INS]
    1639 0000000c 2700              MOVS      V4, #0                ; [DPU_V7M3_PIPE] |352|  ; [ORIG 16-BIT INS]
    1640 0000000e 4611              MOV       A2, A3                ; [DPU_V7M3_PIPE] |352|  ; [ORIG 16-BIT INS]
    1641 00000010 000A              LSLS      A3, A2, #0            ; [DPU_V7M3_PIPE] |352|  ; [ORIG 16-BIT INS]
    1642 00000012 2100              MOVS      A2, #0                ; [DPU_V7M3_PIPE] |352|  ; [ORIG 16-BIT INS]
    1643 00000014 4311              ORRS      A2, A2, A3            ; [DPU_V7M3_PIPE] |352|  ; [ORIG 16-BIT INS]
    1644 00000016 0D0B              LSRS      A4, A2, #20           ; [DPU_V7M3_PIPE] |352|  ; [ORIG 16-BIT INS]
    1645 00000018 2200              MOVS      A3, #0                ; [DPU_V7M3_PIPE] |352|  ; [ORIG 16-BIT INS]
    1646 0000001a 71FFF240          MOV       A2, #2047             ; [DPU_V7M3_PIPE] |352|  ; [KEEP 32-BIT INS]
    1647 0000001e 17CE              ASRS      V3, A2, #31           ; [DPU_V7M3_PIPE] |352|  ; [ORIG 16-BIT INS]
    1648 00000020 4016              ANDS      V3, V3, A3            ; [DPU_V7M3_PIPE] |352|  ; [ORIG 16-BIT INS]
    1649 00000022 0103EA01          AND       A2, A2, A4            ; [DPU_V7M3_PIPE] |352|  ; [KEEP 32-BIT INS]
    1650 00000026 D100              BNE       ||$C$L15||            ; [DPU_V7M3_PIPE] |352|  ; [ORIG 16-BIT INS]
TI ARM Assembler Unix v20.2.4 Fri Apr  2 00:57:47 2021

Copyright (c) 1996-2018 Texas Instruments Incorporated
inv_mpu.asm                                                          PAGE   31

    1651                            ; BRANCHCC OCCURS {||$C$L15||}   ; [] |352| 
    1652                    ;* --------------------------------------------------------------------------*
    1653 00000028 2900              CMP       A2, #0                ; [DPU_V7M3_PIPE] |352|  ; [ORIG 16-BIT INS]
    1654                    ;* --------------------------------------------------------------------------*
    1655 0000002a           ||$C$L15||:    
    1656 0000002a D100              BNE       ||$C$L16||            ; [DPU_V7M3_PIPE] |352|  ; [ORIG 16-BIT INS]
    1657                            ; BRANCHCC OCCURS {||$C$L16||}   ; [] |352| 
    1658                    ;* --------------------------------------------------------------------------*
    1659 0000002c 2701              MOVS      V4, #1                ; [DPU_V7M3_PIPE] |352|  ; [ORIG 16-BIT INS]
    1660                    ;* --------------------------------------------------------------------------*
    1661 0000002e           ||$C$L16||:    
    1662 0000002e B98F              CBNZ      V4, ||$C$L18||        ; []  ; [ORIG 16-BIT INS]
    1663                            ; BRANCHCC OCCURS {||$C$L18||}   ; [] |352| 
    1664                    ;* --------------------------------------------------------------------------*
    1665 00000030 0006E89D          LDMIA     SP, {A2,A3}           ; [DPU_V7M3_PIPE] |352|  ; [KEEP 32-BIT INS]
    1666 00000034 4611              MOV       A2, A3                ; [DPU_V7M3_PIPE] |352|  ; [ORIG 16-BIT INS]
    1667 00000036 2700              MOVS      V4, #0                ; [DPU_V7M3_PIPE] |352|  ; [ORIG 16-BIT INS]
    1668 00000038 000A              LSLS      A3, A2, #0            ; [DPU_V7M3_PIPE] |352|  ; [ORIG 16-BIT INS]
    1669 0000003a 2100              MOVS      A2, #0                ; [DPU_V7M3_PIPE] |352|  ; [ORIG 16-BIT INS]
    1670 0000003c 4311              ORRS      A2, A2, A3            ; [DPU_V7M3_PIPE] |352|  ; [ORIG 16-BIT INS]
    1671 0000003e 0C0A              LSRS      A3, A2, #16           ; [DPU_V7M3_PIPE] |352|  ; [ORIG 16-BIT INS]
    1672 00000040 71F0F647          MOV       A2, #32752            ; [DPU_V7M3_PIPE] |352|  ; [KEEP 32-BIT INS]
    1673 00000044 4011              ANDS      A2, A2, A3            ; [DPU_V7M3_PIPE] |352|  ; [ORIG 16-BIT INS]
    1674 00000046 72F0F647          MOV       A3, #32752            ; [DPU_V7M3_PIPE] |352|  ; [KEEP 32-BIT INS]
    1675 0000004a 428A              CMP       A3, A2                ; [DPU_V7M3_PIPE] |352|  ; [ORIG 16-BIT INS]
    1676 0000004c D100              BNE       ||$C$L17||            ; [DPU_V7M3_PIPE] |352|  ; [ORIG 16-BIT INS]
    1677                            ; BRANCHCC OCCURS {||$C$L17||}   ; [] |352| 
    1678                    ;* --------------------------------------------------------------------------*
    1679 0000004e 2701              MOVS      V4, #1                ; [DPU_V7M3_PIPE] |352|  ; [ORIG 16-BIT INS]
    1680                    ;* --------------------------------------------------------------------------*
    1681 00000050           ||$C$L17||:    
    1682 00000050 B907              CBNZ      V4, ||$C$L18||        ; []  ; [ORIG 16-BIT INS]
    1683                            ; BRANCHCC OCCURS {||$C$L18||}   ; [] |352| 
    1684                    ;* --------------------------------------------------------------------------*
    1685 00000052 2001              MOVS      A1, #1                ; [DPU_V7M3_PIPE] |352|  ; [ORIG 16-BIT INS]
    1686                    ;* --------------------------------------------------------------------------*
    1687 00000054           ||$C$L18||:    
    1688                            .dwpsn  file "/home/merdak/Apps/ti/ccs1020/ccs/tools/compiler/ti-cgt-arm_20.2.4.LTS/include/_d
    1689                    ;----------------------------------------------------------------------
    1690                    ; 353 | (__DOUBLE_BIASED_EXP_IS_MAX(d) == 0); }                                
    1691                    ;----------------------------------------------------------------------
    1692                    $C$DW$53        .dwtag  DW_TAG_TI_branch
    1693                            .dwattr $C$DW$53, DW_AT_low_pc(0x00)
    1694                            .dwattr $C$DW$53, DW_AT_TI_return
    1695                    
    1696 00000054 BDCE              POP       {A2, A3, A4, V3, V4, PC} ; [DPU_V7M3_PIPE]  ; [ORIG 16-BIT INS]
    1697                            .dwcfi  cfa_offset, 0
    1698                            .dwcfi  restore_reg, 7
    1699                            .dwcfi  restore_reg, 6
    1700                            .dwcfi  restore_reg, 3
    1701                            .dwcfi  restore_reg, 2
    1702                            .dwcfi  restore_reg, 1
    1703                            ; BRANCH OCCURS                  ; [] 
    1704                            .dwattr $C$DW$50, DW_AT_TI_end_file("/home/merdak/Apps/ti/ccs1020/ccs/tools/compiler/ti-cgt-ar
    1705                            .dwattr $C$DW$50, DW_AT_TI_end_line(0x161)
TI ARM Assembler Unix v20.2.4 Fri Apr  2 00:57:47 2021

Copyright (c) 1996-2018 Texas Instruments Incorporated
inv_mpu.asm                                                          PAGE   32

    1706                            .dwattr $C$DW$50, DW_AT_TI_end_column(0x30)
    1707                            .dwendentry
    1708                            .dwendtag $C$DW$50
    1709                    
    1710 00000000                   .sect   ".text:__isnormalf"
    1711                            .clink
    1712                            .thumbfunc __isnormalf
    1713 00000000                   .thumb
    1714                            .global __isnormalf
    1715                    
    1716                    $C$DW$54        .dwtag  DW_TAG_subprogram
    1717                            .dwattr $C$DW$54, DW_AT_name("__isnormalf")
    1718                            .dwattr $C$DW$54, DW_AT_low_pc(__isnormalf)
    1719                            .dwattr $C$DW$54, DW_AT_high_pc(0x00)
    1720                            .dwattr $C$DW$54, DW_AT_TI_symbol_name("__isnormalf")
    1721                            .dwattr $C$DW$54, DW_AT_external
    1722                            .dwattr $C$DW$54, DW_AT_type(*$C$DW$T$10)
    1723                            .dwattr $C$DW$54, DW_AT_TI_begin_file("/home/merdak/Apps/ti/ccs1020/ccs/tools/compiler/ti-cgt-
    1724                            .dwattr $C$DW$54, DW_AT_TI_begin_line(0x163)
    1725                            .dwattr $C$DW$54, DW_AT_TI_begin_column(0x25)
    1726                            .dwattr $C$DW$54, DW_AT_decl_file("/home/merdak/Apps/ti/ccs1020/ccs/tools/compiler/ti-cgt-arm_
    1727                            .dwattr $C$DW$54, DW_AT_decl_line(0x163)
    1728                            .dwattr $C$DW$54, DW_AT_decl_column(0x25)
    1729                            .dwattr $C$DW$54, DW_AT_TI_max_frame_size(0x08)
    1730                            .dwpsn  file "/home/merdak/Apps/ti/ccs1020/ccs/tools/compiler/ti-cgt-arm_20.2.4.LTS/include/_d
    1731                    
    1732                            .dwfde $C$DW$CIE, __isnormalf
    1733                    $C$DW$55        .dwtag  DW_TAG_formal_parameter
    1734                            .dwattr $C$DW$55, DW_AT_name("f")
    1735                            .dwattr $C$DW$55, DW_AT_TI_symbol_name("f")
    1736                            .dwattr $C$DW$55, DW_AT_type(*$C$DW$T$16)
    1737                            .dwattr $C$DW$55, DW_AT_location[DW_OP_reg0]
    1738                    
    1739                    ;----------------------------------------------------------------------
    1740                    ; 355 | _CODE_ACCESS _INLINE_DEFINITION int __isnormalf(float f)               
    1741                    ;----------------------------------------------------------------------
    1742                    
    1743                    ;*****************************************************************************
    1744                    ;* FUNCTION NAME: __isnormalf                                                *
    1745                    ;*                                                                           *
    1746                    ;*   Regs Modified     : A1,A2,A3,SP,SR                                      *
    1747                    ;*   Regs Used         : A1,A2,A3,SP,LR,SR                                   *
    1748                    ;*   Local Frame Size  : 0 Args + 4 Auto + 0 Save = 4 byte                   *
    1749                    ;*****************************************************************************
    1750 00000000           __isnormalf:
    1751                    ;* --------------------------------------------------------------------------*
    1752                            .dwcfi  cfa_offset, 0
    1753 00000000 0D08F1AD          SUB       SP, SP, #8            ; [DPU_V7M3_PIPE]  ; [KEEP 32-BIT INS]
    1754                            .dwcfi  cfa_offset, 8
    1755                    $C$DW$56        .dwtag  DW_TAG_variable
    1756                            .dwattr $C$DW$56, DW_AT_name("f")
    1757                            .dwattr $C$DW$56, DW_AT_TI_symbol_name("f")
    1758                            .dwattr $C$DW$56, DW_AT_type(*$C$DW$T$16)
    1759                            .dwattr $C$DW$56, DW_AT_location[DW_OP_breg13 0]
    1760                    
TI ARM Assembler Unix v20.2.4 Fri Apr  2 00:57:47 2021

Copyright (c) 1996-2018 Texas Instruments Incorporated
inv_mpu.asm                                                          PAGE   33

    1761                    ;----------------------------------------------------------------------
    1762                    ; 356 | { return (__FLOAT_BIASED_EXP_IS_ZERO(f) == 0) &&                       
    1763                    ;----------------------------------------------------------------------
    1764 00000004 9000              STR       A1, [SP, #0]          ; [DPU_V7M3_PIPE] |356|  ; [ORIG 16-BIT INS]
    1765                            .dwpsn  file "/home/merdak/Apps/ti/ccs1020/ccs/tools/compiler/ti-cgt-arm_20.2.4.LTS/include/_d
    1766 00000006 9800              LDR       A1, [SP, #0]          ; [DPU_V7M3_PIPE] |356|  ; [ORIG 16-BIT INS]
    1767 00000008 2100              MOVS      A2, #0                ; [DPU_V7M3_PIPE] |356|  ; [ORIG 16-BIT INS]
    1768 0000000a 52C7F3C0          UBFX      A3, A1, #23, #8       ; [DPU_V7M3_PIPE] |356|  ; [KEEP 32-BIT INS]
    1769 0000000e 2000              MOVS      A1, #0                ; [DPU_V7M3_PIPE] |356|  ; [ORIG 16-BIT INS]
    1770 00000010 B902              CBNZ      A3, ||$C$L19||        ; []  ; [ORIG 16-BIT INS]
    1771                            ; BRANCHCC OCCURS {||$C$L19||}   ; [] |356| 
    1772                    ;* --------------------------------------------------------------------------*
    1773 00000012 2101              MOVS      A2, #1                ; [DPU_V7M3_PIPE] |356|  ; [ORIG 16-BIT INS]
    1774                    ;* --------------------------------------------------------------------------*
    1775 00000014           ||$C$L19||:    
    1776 00000014 B959              CBNZ      A2, ||$C$L21||        ; []  ; [ORIG 16-BIT INS]
    1777                            ; BRANCHCC OCCURS {||$C$L21||}   ; [] |356| 
    1778                    ;* --------------------------------------------------------------------------*
    1779 00000016 9900              LDR       A2, [SP, #0]          ; [DPU_V7M3_PIPE] |356|  ; [ORIG 16-BIT INS]
    1780 00000018 0C09              LSRS      A2, A2, #16           ; [DPU_V7M3_PIPE] |356|  ; [ORIG 16-BIT INS]
    1781 0000001a 42FFF401          AND       A3, A2, #32640        ; [DPU_V7M3_PIPE] |356|  ; [KEEP 32-BIT INS]
    1782 0000001e 4FFFF5B2          CMP       A3, #32640            ; [DPU_V7M3_PIPE] |356|  ; [KEEP 32-BIT INS]
    1783 00000022 0100F04F          MOV       A2, #0                ; [DPU_V7M3_PIPE] |356|  ; [KEEP 32-BIT INS]
    1784 00000026 D100              BNE       ||$C$L20||            ; [DPU_V7M3_PIPE] |356|  ; [ORIG 16-BIT INS]
    1785                            ; BRANCHCC OCCURS {||$C$L20||}   ; [] |356| 
    1786                    ;* --------------------------------------------------------------------------*
    1787 00000028 2101              MOVS      A2, #1                ; [DPU_V7M3_PIPE] |356|  ; [ORIG 16-BIT INS]
    1788                    ;* --------------------------------------------------------------------------*
    1789 0000002a           ||$C$L20||:    
    1790 0000002a B901              CBNZ      A2, ||$C$L21||        ; []  ; [ORIG 16-BIT INS]
    1791                            ; BRANCHCC OCCURS {||$C$L21||}   ; [] |356| 
    1792                    ;* --------------------------------------------------------------------------*
    1793 0000002c 2001              MOVS      A1, #1                ; [DPU_V7M3_PIPE] |356|  ; [ORIG 16-BIT INS]
    1794                    ;* --------------------------------------------------------------------------*
    1795 0000002e           ||$C$L21||:    
    1796                            .dwpsn  file "/home/merdak/Apps/ti/ccs1020/ccs/tools/compiler/ti-cgt-arm_20.2.4.LTS/include/_d
    1797                    ;----------------------------------------------------------------------
    1798                    ; 357 | (__FLOAT_BIASED_EXP_IS_MAX(f) == 0); }                                 
    1799                    ;----------------------------------------------------------------------
    1800 0000002e B002              ADD       SP, SP, #8            ; [DPU_V7M3_PIPE]  ; [ORIG 16-BIT INS]
    1801                            .dwcfi  cfa_offset, 0
    1802                    $C$DW$57        .dwtag  DW_TAG_TI_branch
    1803                            .dwattr $C$DW$57, DW_AT_low_pc(0x00)
    1804                            .dwattr $C$DW$57, DW_AT_TI_return
    1805                    
    1806 00000030 4770              BX        LR                    ; [DPU_V7M3_PIPE]  ; [ORIG 16-BIT INS]
    1807                            ; BRANCH OCCURS                  ; [] 
    1808                            .dwattr $C$DW$54, DW_AT_TI_end_file("/home/merdak/Apps/ti/ccs1020/ccs/tools/compiler/ti-cgt-ar
    1809                            .dwattr $C$DW$54, DW_AT_TI_end_line(0x165)
    1810                            .dwattr $C$DW$54, DW_AT_TI_end_column(0x2f)
    1811                            .dwendentry
    1812                            .dwendtag $C$DW$54
    1813                    
    1814 00000000                   .sect   ".text:__isnormall"
    1815                            .clink
TI ARM Assembler Unix v20.2.4 Fri Apr  2 00:57:47 2021

Copyright (c) 1996-2018 Texas Instruments Incorporated
inv_mpu.asm                                                          PAGE   34

    1816                            .thumbfunc __isnormall
    1817 00000000                   .thumb
    1818                            .global __isnormall
    1819                    
    1820                    $C$DW$58        .dwtag  DW_TAG_subprogram
    1821                            .dwattr $C$DW$58, DW_AT_name("__isnormall")
    1822                            .dwattr $C$DW$58, DW_AT_low_pc(__isnormall)
    1823                            .dwattr $C$DW$58, DW_AT_high_pc(0x00)
    1824                            .dwattr $C$DW$58, DW_AT_TI_symbol_name("__isnormall")
    1825                            .dwattr $C$DW$58, DW_AT_external
    1826                            .dwattr $C$DW$58, DW_AT_type(*$C$DW$T$10)
    1827                            .dwattr $C$DW$58, DW_AT_TI_begin_file("/home/merdak/Apps/ti/ccs1020/ccs/tools/compiler/ti-cgt-
    1828                            .dwattr $C$DW$58, DW_AT_TI_begin_line(0x167)
    1829                            .dwattr $C$DW$58, DW_AT_TI_begin_column(0x25)
    1830                            .dwattr $C$DW$58, DW_AT_decl_file("/home/merdak/Apps/ti/ccs1020/ccs/tools/compiler/ti-cgt-arm_
    1831                            .dwattr $C$DW$58, DW_AT_decl_line(0x167)
    1832                            .dwattr $C$DW$58, DW_AT_decl_column(0x25)
    1833                            .dwattr $C$DW$58, DW_AT_TI_max_frame_size(0x18)
    1834                            .dwpsn  file "/home/merdak/Apps/ti/ccs1020/ccs/tools/compiler/ti-cgt-arm_20.2.4.LTS/include/_d
    1835                    
    1836                            .dwfde $C$DW$CIE, __isnormall
    1837                    $C$DW$59        .dwtag  DW_TAG_formal_parameter
    1838                            .dwattr $C$DW$59, DW_AT_name("e")
    1839                            .dwattr $C$DW$59, DW_AT_TI_symbol_name("e")
    1840                            .dwattr $C$DW$59, DW_AT_type(*$C$DW$T$18)
    1841                            .dwattr $C$DW$59, DW_AT_location[DW_OP_reg0]
    1842                    
    1843                    ;----------------------------------------------------------------------
    1844                    ; 359 | _CODE_ACCESS _INLINE_DEFINITION int __isnormall(long double e)         
    1845                    ;----------------------------------------------------------------------
    1846                    
    1847                    ;*****************************************************************************
    1848                    ;* FUNCTION NAME: __isnormall                                                *
    1849                    ;*                                                                           *
    1850                    ;*   Regs Modified     : A1,A2,A3,A4,V3,V4,SP,SR                             *
    1851                    ;*   Regs Used         : A1,A2,A3,A4,V3,V4,SP,LR,SR                          *
    1852                    ;*   Local Frame Size  : 0 Args + 8 Auto + 12 Save = 20 byte                 *
    1853                    ;*****************************************************************************
    1854 00000000           __isnormall:
    1855                    ;* --------------------------------------------------------------------------*
    1856                            .dwcfi  cfa_offset, 0
    1857 00000000 B5CE              PUSH      {A2, A3, A4, V3, V4, LR} ; [DPU_V7M3_PIPE]  ; [ORIG 16-BIT INS]
    1858                            .dwcfi  cfa_offset, 24
    1859                            .dwcfi  save_reg_to_mem, 14, -4
    1860                            .dwcfi  save_reg_to_mem, 7, -8
    1861                            .dwcfi  save_reg_to_mem, 6, -12
    1862                            .dwcfi  save_reg_to_mem, 3, -16
    1863                            .dwcfi  save_reg_to_mem, 2, -20
    1864                            .dwcfi  save_reg_to_mem, 1, -24
    1865                    $C$DW$60        .dwtag  DW_TAG_variable
    1866                            .dwattr $C$DW$60, DW_AT_name("e")
    1867                            .dwattr $C$DW$60, DW_AT_TI_symbol_name("e")
    1868                            .dwattr $C$DW$60, DW_AT_type(*$C$DW$T$18)
    1869                            .dwattr $C$DW$60, DW_AT_location[DW_OP_breg13 0]
    1870                    
TI ARM Assembler Unix v20.2.4 Fri Apr  2 00:57:47 2021

Copyright (c) 1996-2018 Texas Instruments Incorporated
inv_mpu.asm                                                          PAGE   35

    1871                    ;----------------------------------------------------------------------
    1872                    ; 360 | { return (__LDOUBLE_BIASED_EXP_IS_ZERO(e) == 0) &&                     
    1873                    ;----------------------------------------------------------------------
    1874 00000002 0003E88D          STMIA     SP, {A1,A2}           ; [DPU_V7M3_PIPE] |360|  ; [KEEP 32-BIT INS]
    1875                            .dwpsn  file "/home/merdak/Apps/ti/ccs1020/ccs/tools/compiler/ti-cgt-arm_20.2.4.LTS/include/_d
    1876 00000006 0006E89D          LDMIA     SP, {A2,A3}           ; [DPU_V7M3_PIPE] |360|  ; [KEEP 32-BIT INS]
    1877 0000000a 2000              MOVS      A1, #0                ; [DPU_V7M3_PIPE] |360|  ; [ORIG 16-BIT INS]
    1878 0000000c 2700              MOVS      V4, #0                ; [DPU_V7M3_PIPE] |360|  ; [ORIG 16-BIT INS]
    1879 0000000e 4611              MOV       A2, A3                ; [DPU_V7M3_PIPE] |360|  ; [ORIG 16-BIT INS]
    1880 00000010 000A              LSLS      A3, A2, #0            ; [DPU_V7M3_PIPE] |360|  ; [ORIG 16-BIT INS]
    1881 00000012 2100              MOVS      A2, #0                ; [DPU_V7M3_PIPE] |360|  ; [ORIG 16-BIT INS]
    1882 00000014 4311              ORRS      A2, A2, A3            ; [DPU_V7M3_PIPE] |360|  ; [ORIG 16-BIT INS]
    1883 00000016 0D0B              LSRS      A4, A2, #20           ; [DPU_V7M3_PIPE] |360|  ; [ORIG 16-BIT INS]
    1884 00000018 2200              MOVS      A3, #0                ; [DPU_V7M3_PIPE] |360|  ; [ORIG 16-BIT INS]
    1885 0000001a 71FFF240          MOV       A2, #2047             ; [DPU_V7M3_PIPE] |360|  ; [KEEP 32-BIT INS]
    1886 0000001e 17CE              ASRS      V3, A2, #31           ; [DPU_V7M3_PIPE] |360|  ; [ORIG 16-BIT INS]
    1887 00000020 4016              ANDS      V3, V3, A3            ; [DPU_V7M3_PIPE] |360|  ; [ORIG 16-BIT INS]
    1888 00000022 0103EA01          AND       A2, A2, A4            ; [DPU_V7M3_PIPE] |360|  ; [KEEP 32-BIT INS]
    1889 00000026 D100              BNE       ||$C$L22||            ; [DPU_V7M3_PIPE] |360|  ; [ORIG 16-BIT INS]
    1890                            ; BRANCHCC OCCURS {||$C$L22||}   ; [] |360| 
    1891                    ;* --------------------------------------------------------------------------*
    1892 00000028 2900              CMP       A2, #0                ; [DPU_V7M3_PIPE] |360|  ; [ORIG 16-BIT INS]
    1893                    ;* --------------------------------------------------------------------------*
    1894 0000002a           ||$C$L22||:    
    1895 0000002a D100              BNE       ||$C$L23||            ; [DPU_V7M3_PIPE] |360|  ; [ORIG 16-BIT INS]
    1896                            ; BRANCHCC OCCURS {||$C$L23||}   ; [] |360| 
    1897                    ;* --------------------------------------------------------------------------*
    1898 0000002c 2701              MOVS      V4, #1                ; [DPU_V7M3_PIPE] |360|  ; [ORIG 16-BIT INS]
    1899                    ;* --------------------------------------------------------------------------*
    1900 0000002e           ||$C$L23||:    
    1901 0000002e B98F              CBNZ      V4, ||$C$L25||        ; []  ; [ORIG 16-BIT INS]
    1902                            ; BRANCHCC OCCURS {||$C$L25||}   ; [] |360| 
    1903                    ;* --------------------------------------------------------------------------*
    1904 00000030 0006E89D          LDMIA     SP, {A2,A3}           ; [DPU_V7M3_PIPE] |360|  ; [KEEP 32-BIT INS]
    1905 00000034 4611              MOV       A2, A3                ; [DPU_V7M3_PIPE] |360|  ; [ORIG 16-BIT INS]
    1906 00000036 2700              MOVS      V4, #0                ; [DPU_V7M3_PIPE] |360|  ; [ORIG 16-BIT INS]
    1907 00000038 000A              LSLS      A3, A2, #0            ; [DPU_V7M3_PIPE] |360|  ; [ORIG 16-BIT INS]
    1908 0000003a 2100              MOVS      A2, #0                ; [DPU_V7M3_PIPE] |360|  ; [ORIG 16-BIT INS]
    1909 0000003c 4311              ORRS      A2, A2, A3            ; [DPU_V7M3_PIPE] |360|  ; [ORIG 16-BIT INS]
    1910 0000003e 0C0A              LSRS      A3, A2, #16           ; [DPU_V7M3_PIPE] |360|  ; [ORIG 16-BIT INS]
    1911 00000040 71F0F647          MOV       A2, #32752            ; [DPU_V7M3_PIPE] |360|  ; [KEEP 32-BIT INS]
    1912 00000044 4011              ANDS      A2, A2, A3            ; [DPU_V7M3_PIPE] |360|  ; [ORIG 16-BIT INS]
    1913 00000046 72F0F647          MOV       A3, #32752            ; [DPU_V7M3_PIPE] |360|  ; [KEEP 32-BIT INS]
    1914 0000004a 428A              CMP       A3, A2                ; [DPU_V7M3_PIPE] |360|  ; [ORIG 16-BIT INS]
    1915 0000004c D100              BNE       ||$C$L24||            ; [DPU_V7M3_PIPE] |360|  ; [ORIG 16-BIT INS]
    1916                            ; BRANCHCC OCCURS {||$C$L24||}   ; [] |360| 
    1917                    ;* --------------------------------------------------------------------------*
    1918 0000004e 2701              MOVS      V4, #1                ; [DPU_V7M3_PIPE] |360|  ; [ORIG 16-BIT INS]
    1919                    ;* --------------------------------------------------------------------------*
    1920 00000050           ||$C$L24||:    
    1921 00000050 B907              CBNZ      V4, ||$C$L25||        ; []  ; [ORIG 16-BIT INS]
    1922                            ; BRANCHCC OCCURS {||$C$L25||}   ; [] |360| 
    1923                    ;* --------------------------------------------------------------------------*
    1924 00000052 2001              MOVS      A1, #1                ; [DPU_V7M3_PIPE] |360|  ; [ORIG 16-BIT INS]
    1925                    ;* --------------------------------------------------------------------------*
TI ARM Assembler Unix v20.2.4 Fri Apr  2 00:57:47 2021

Copyright (c) 1996-2018 Texas Instruments Incorporated
inv_mpu.asm                                                          PAGE   36

    1926 00000054           ||$C$L25||:    
    1927                            .dwpsn  file "/home/merdak/Apps/ti/ccs1020/ccs/tools/compiler/ti-cgt-arm_20.2.4.LTS/include/_d
    1928                    ;----------------------------------------------------------------------
    1929                    ; 361 | (__LDOUBLE_BIASED_EXP_IS_MAX(e) == 0); }                               
    1930                    ;----------------------------------------------------------------------
    1931                    $C$DW$61        .dwtag  DW_TAG_TI_branch
    1932                            .dwattr $C$DW$61, DW_AT_low_pc(0x00)
    1933                            .dwattr $C$DW$61, DW_AT_TI_return
    1934                    
    1935 00000054 BDCE              POP       {A2, A3, A4, V3, V4, PC} ; [DPU_V7M3_PIPE]  ; [ORIG 16-BIT INS]
    1936                            .dwcfi  cfa_offset, 0
    1937                            .dwcfi  restore_reg, 7
    1938                            .dwcfi  restore_reg, 6
    1939                            .dwcfi  restore_reg, 3
    1940                            .dwcfi  restore_reg, 2
    1941                            .dwcfi  restore_reg, 1
    1942                            ; BRANCH OCCURS                  ; [] 
    1943                            .dwattr $C$DW$58, DW_AT_TI_end_file("/home/merdak/Apps/ti/ccs1020/ccs/tools/compiler/ti-cgt-ar
    1944                            .dwattr $C$DW$58, DW_AT_TI_end_line(0x169)
    1945                            .dwattr $C$DW$58, DW_AT_TI_end_column(0x31)
    1946                            .dwendentry
    1947                            .dwendtag $C$DW$58
    1948                    
    1949 00000000                   .sect   ".text:__signbit"
    1950                            .clink
    1951                            .thumbfunc __signbit
    1952 00000000                   .thumb
    1953                            .global __signbit
    1954                    
    1955                    $C$DW$62        .dwtag  DW_TAG_subprogram
    1956                            .dwattr $C$DW$62, DW_AT_name("__signbit")
    1957                            .dwattr $C$DW$62, DW_AT_low_pc(__signbit)
    1958                            .dwattr $C$DW$62, DW_AT_high_pc(0x00)
    1959                            .dwattr $C$DW$62, DW_AT_TI_symbol_name("__signbit")
    1960                            .dwattr $C$DW$62, DW_AT_external
    1961                            .dwattr $C$DW$62, DW_AT_type(*$C$DW$T$10)
    1962                            .dwattr $C$DW$62, DW_AT_TI_begin_file("/home/merdak/Apps/ti/ccs1020/ccs/tools/compiler/ti-cgt-
    1963                            .dwattr $C$DW$62, DW_AT_TI_begin_line(0x16b)
    1964                            .dwattr $C$DW$62, DW_AT_TI_begin_column(0x25)
    1965                            .dwattr $C$DW$62, DW_AT_decl_file("/home/merdak/Apps/ti/ccs1020/ccs/tools/compiler/ti-cgt-arm_
    1966                            .dwattr $C$DW$62, DW_AT_decl_line(0x16b)
    1967                            .dwattr $C$DW$62, DW_AT_decl_column(0x25)
    1968                            .dwattr $C$DW$62, DW_AT_TI_max_frame_size(0x20)
    1969                            .dwpsn  file "/home/merdak/Apps/ti/ccs1020/ccs/tools/compiler/ti-cgt-arm_20.2.4.LTS/include/_d
    1970                    
    1971                            .dwfde $C$DW$CIE, __signbit
    1972                    $C$DW$63        .dwtag  DW_TAG_formal_parameter
    1973                            .dwattr $C$DW$63, DW_AT_name("d")
    1974                            .dwattr $C$DW$63, DW_AT_TI_symbol_name("d")
    1975                            .dwattr $C$DW$63, DW_AT_type(*$C$DW$T$17)
    1976                            .dwattr $C$DW$63, DW_AT_location[DW_OP_reg0]
    1977                    
    1978                    ;----------------------------------------------------------------------
    1979                    ; 363 | _CODE_ACCESS _INLINE_DEFINITION int __signbit(double d)                
    1980                    ;----------------------------------------------------------------------
TI ARM Assembler Unix v20.2.4 Fri Apr  2 00:57:47 2021

Copyright (c) 1996-2018 Texas Instruments Incorporated
inv_mpu.asm                                                          PAGE   37

    1981                    
    1982                    ;*****************************************************************************
    1983                    ;* FUNCTION NAME: __signbit                                                  *
    1984                    ;*                                                                           *
    1985                    ;*   Regs Modified     : A1,A2,A3,A4,V1,V2,V3,V4,SP,SR                       *
    1986                    ;*   Regs Used         : A1,A2,A3,A4,V1,V2,V3,V4,SP,LR,SR                    *
    1987                    ;*   Local Frame Size  : 0 Args + 8 Auto + 20 Save = 28 byte                 *
    1988                    ;*****************************************************************************
    1989 00000000           __signbit:
    1990                    ;* --------------------------------------------------------------------------*
    1991                            .dwcfi  cfa_offset, 0
    1992 00000000 B5FE              PUSH      {A2, A3, A4, V1, V2, V3, V4, LR} ; [DPU_V7M3_PIPE]  ; [ORIG 16-BIT INS]
    1993                            .dwcfi  cfa_offset, 32
    1994                            .dwcfi  save_reg_to_mem, 14, -4
    1995                            .dwcfi  save_reg_to_mem, 7, -8
    1996                            .dwcfi  save_reg_to_mem, 6, -12
    1997                            .dwcfi  save_reg_to_mem, 5, -16
    1998                            .dwcfi  save_reg_to_mem, 4, -20
    1999                            .dwcfi  save_reg_to_mem, 3, -24
    2000                            .dwcfi  save_reg_to_mem, 2, -28
    2001                            .dwcfi  save_reg_to_mem, 1, -32
    2002                    $C$DW$64        .dwtag  DW_TAG_variable
    2003                            .dwattr $C$DW$64, DW_AT_name("d")
    2004                            .dwattr $C$DW$64, DW_AT_TI_symbol_name("d")
    2005                            .dwattr $C$DW$64, DW_AT_type(*$C$DW$T$17)
    2006                            .dwattr $C$DW$64, DW_AT_location[DW_OP_breg13 0]
    2007                    
    2008                    ;----------------------------------------------------------------------
    2009                    ; 364 | { return __DOUBLE_SIGN_BIT_ZERO(d) == 0; }                             
    2010                    ;----------------------------------------------------------------------
    2011 00000002 0003E88D          STMIA     SP, {A1,A2}           ; [DPU_V7M3_PIPE] |364|  ; [KEEP 32-BIT INS]
    2012                            .dwpsn  file "/home/merdak/Apps/ti/ccs1020/ccs/tools/compiler/ti-cgt-arm_20.2.4.LTS/include/_d
    2013 00000006 0006E89D          LDMIA     SP, {A2,A3}           ; [DPU_V7M3_PIPE] |364|  ; [KEEP 32-BIT INS]
    2014 0000000a 4611              MOV       A2, A3                ; [DPU_V7M3_PIPE] |364|  ; [ORIG 16-BIT INS]
    2015 0000000c 000CE89D          LDMIA     SP, {A3,A4}           ; [DPU_V7M3_PIPE] |364|  ; [KEEP 32-BIT INS]
    2016 00000010 2500              MOVS      V2, #0                ; [DPU_V7M3_PIPE] |364|  ; [ORIG 16-BIT INS]
    2017 00000012 4600F04F          MOV       V3, #-2147483648      ; [DPU_V7M3_PIPE] |364|  ; [KEEP 32-BIT INS]
    2018 00000016 2000              MOVS      A1, #0                ; [DPU_V7M3_PIPE] |364|  ; [ORIG 16-BIT INS]
    2019 00000018 2700              MOVS      V4, #0                ; [DPU_V7M3_PIPE] |364|  ; [ORIG 16-BIT INS]
    2020 0000001a 000C              LSLS      V1, A2, #0            ; [DPU_V7M3_PIPE] |364|  ; [ORIG 16-BIT INS]
    2021 0000001c 2100              MOVS      A2, #0                ; [DPU_V7M3_PIPE] |364|  ; [ORIG 16-BIT INS]
    2022 0000001e 4321              ORRS      A2, A2, V1            ; [DPU_V7M3_PIPE] |364|  ; [ORIG 16-BIT INS]
    2023 00000020 2300              MOVS      A4, #0                ; [DPU_V7M3_PIPE] |364|  ; [ORIG 16-BIT INS]
    2024 00000022 432A              ORRS      A3, A3, V2            ; [DPU_V7M3_PIPE] |364|  ; [ORIG 16-BIT INS]
    2025 00000024 400E              ANDS      V3, V3, A2            ; [DPU_V7M3_PIPE] |364|  ; [ORIG 16-BIT INS]
    2026 00000026 0302EA03          AND       A4, A4, A3            ; [DPU_V7M3_PIPE] |364|  ; [KEEP 32-BIT INS]
    2027 0000002a D100              BNE       ||$C$L26||            ; [DPU_V7M3_PIPE] |364|  ; [ORIG 16-BIT INS]
    2028                            ; BRANCHCC OCCURS {||$C$L26||}   ; [] |364| 
    2029                    ;* --------------------------------------------------------------------------*
    2030 0000002c 2B00              CMP       A4, #0                ; [DPU_V7M3_PIPE] |364|  ; [ORIG 16-BIT INS]
    2031                    ;* --------------------------------------------------------------------------*
    2032 0000002e           ||$C$L26||:    
    2033 0000002e D100              BNE       ||$C$L27||            ; [DPU_V7M3_PIPE] |364|  ; [ORIG 16-BIT INS]
    2034                            ; BRANCHCC OCCURS {||$C$L27||}   ; [] |364| 
    2035                    ;* --------------------------------------------------------------------------*
TI ARM Assembler Unix v20.2.4 Fri Apr  2 00:57:47 2021

Copyright (c) 1996-2018 Texas Instruments Incorporated
inv_mpu.asm                                                          PAGE   38

    2036 00000030 2701              MOVS      V4, #1                ; [DPU_V7M3_PIPE] |364|  ; [ORIG 16-BIT INS]
    2037                    ;* --------------------------------------------------------------------------*
    2038 00000032           ||$C$L27||:    
    2039 00000032 B907              CBNZ      V4, ||$C$L28||        ; []  ; [ORIG 16-BIT INS]
    2040                            ; BRANCHCC OCCURS {||$C$L28||}   ; [] |364| 
    2041                    ;* --------------------------------------------------------------------------*
    2042 00000034 2001              MOVS      A1, #1                ; [DPU_V7M3_PIPE] |364|  ; [ORIG 16-BIT INS]
    2043                    ;* --------------------------------------------------------------------------*
    2044 00000036           ||$C$L28||:    
    2045                            .dwpsn  file "/home/merdak/Apps/ti/ccs1020/ccs/tools/compiler/ti-cgt-arm_20.2.4.LTS/include/_d
    2046                    $C$DW$65        .dwtag  DW_TAG_TI_branch
    2047                            .dwattr $C$DW$65, DW_AT_low_pc(0x00)
    2048                            .dwattr $C$DW$65, DW_AT_TI_return
    2049                    
    2050 00000036 BDFE              POP       {A2, A3, A4, V1, V2, V3, V4, PC} ; [DPU_V7M3_PIPE]  ; [ORIG 16-BIT INS]
    2051                            .dwcfi  cfa_offset, 0
    2052                            .dwcfi  restore_reg, 7
    2053                            .dwcfi  restore_reg, 6
    2054                            .dwcfi  restore_reg, 5
    2055                            .dwcfi  restore_reg, 4
    2056                            .dwcfi  restore_reg, 3
    2057                            .dwcfi  restore_reg, 2
    2058                            .dwcfi  restore_reg, 1
    2059                            ; BRANCH OCCURS                  ; [] 
    2060                            .dwattr $C$DW$62, DW_AT_TI_end_file("/home/merdak/Apps/ti/ccs1020/ccs/tools/compiler/ti-cgt-ar
    2061                            .dwattr $C$DW$62, DW_AT_TI_end_line(0x16c)
    2062                            .dwattr $C$DW$62, DW_AT_TI_end_column(0x2a)
    2063                            .dwendentry
    2064                            .dwendtag $C$DW$62
    2065                    
    2066 00000000                   .sect   ".text:__signbitf"
    2067                            .clink
    2068                            .thumbfunc __signbitf
    2069 00000000                   .thumb
    2070                            .global __signbitf
    2071                    
    2072                    $C$DW$66        .dwtag  DW_TAG_subprogram
    2073                            .dwattr $C$DW$66, DW_AT_name("__signbitf")
    2074                            .dwattr $C$DW$66, DW_AT_low_pc(__signbitf)
    2075                            .dwattr $C$DW$66, DW_AT_high_pc(0x00)
    2076                            .dwattr $C$DW$66, DW_AT_TI_symbol_name("__signbitf")
    2077                            .dwattr $C$DW$66, DW_AT_external
    2078                            .dwattr $C$DW$66, DW_AT_type(*$C$DW$T$10)
    2079                            .dwattr $C$DW$66, DW_AT_TI_begin_file("/home/merdak/Apps/ti/ccs1020/ccs/tools/compiler/ti-cgt-
    2080                            .dwattr $C$DW$66, DW_AT_TI_begin_line(0x16d)
    2081                            .dwattr $C$DW$66, DW_AT_TI_begin_column(0x25)
    2082                            .dwattr $C$DW$66, DW_AT_decl_file("/home/merdak/Apps/ti/ccs1020/ccs/tools/compiler/ti-cgt-arm_
    2083                            .dwattr $C$DW$66, DW_AT_decl_line(0x16d)
    2084                            .dwattr $C$DW$66, DW_AT_decl_column(0x25)
    2085                            .dwattr $C$DW$66, DW_AT_TI_max_frame_size(0x08)
    2086                            .dwpsn  file "/home/merdak/Apps/ti/ccs1020/ccs/tools/compiler/ti-cgt-arm_20.2.4.LTS/include/_d
    2087                    
    2088                            .dwfde $C$DW$CIE, __signbitf
    2089                    $C$DW$67        .dwtag  DW_TAG_formal_parameter
    2090                            .dwattr $C$DW$67, DW_AT_name("f")
TI ARM Assembler Unix v20.2.4 Fri Apr  2 00:57:47 2021

Copyright (c) 1996-2018 Texas Instruments Incorporated
inv_mpu.asm                                                          PAGE   39

    2091                            .dwattr $C$DW$67, DW_AT_TI_symbol_name("f")
    2092                            .dwattr $C$DW$67, DW_AT_type(*$C$DW$T$16)
    2093                            .dwattr $C$DW$67, DW_AT_location[DW_OP_reg0]
    2094                    
    2095                    ;----------------------------------------------------------------------
    2096                    ; 365 | _CODE_ACCESS _INLINE_DEFINITION int __signbitf(float f)                
    2097                    ;----------------------------------------------------------------------
    2098                    
    2099                    ;*****************************************************************************
    2100                    ;* FUNCTION NAME: __signbitf                                                 *
    2101                    ;*                                                                           *
    2102                    ;*   Regs Modified     : A1,A2,A3,SP,SR                                      *
    2103                    ;*   Regs Used         : A1,A2,A3,SP,LR,SR                                   *
    2104                    ;*   Local Frame Size  : 0 Args + 4 Auto + 0 Save = 4 byte                   *
    2105                    ;*****************************************************************************
    2106 00000000           __signbitf:
    2107                    ;* --------------------------------------------------------------------------*
    2108                            .dwcfi  cfa_offset, 0
    2109 00000000 0D08F1AD          SUB       SP, SP, #8            ; [DPU_V7M3_PIPE]  ; [KEEP 32-BIT INS]
    2110                            .dwcfi  cfa_offset, 8
    2111                    $C$DW$68        .dwtag  DW_TAG_variable
    2112                            .dwattr $C$DW$68, DW_AT_name("f")
    2113                            .dwattr $C$DW$68, DW_AT_TI_symbol_name("f")
    2114                            .dwattr $C$DW$68, DW_AT_type(*$C$DW$T$16)
    2115                            .dwattr $C$DW$68, DW_AT_location[DW_OP_breg13 0]
    2116                    
    2117                    ;----------------------------------------------------------------------
    2118                    ; 366 | { return __FLOAT_SIGN_BIT_ZERO(f) == 0; }                              
    2119                    ;----------------------------------------------------------------------
    2120 00000004 9000              STR       A1, [SP, #0]          ; [DPU_V7M3_PIPE] |366|  ; [ORIG 16-BIT INS]
    2121                            .dwpsn  file "/home/merdak/Apps/ti/ccs1020/ccs/tools/compiler/ti-cgt-arm_20.2.4.LTS/include/_d
    2122 00000006 9A00              LDR       A3, [SP, #0]          ; [DPU_V7M3_PIPE] |366|  ; [ORIG 16-BIT INS]
    2123 00000008 2100              MOVS      A2, #0                ; [DPU_V7M3_PIPE] |366|  ; [ORIG 16-BIT INS]
    2124 0000000a 2000              MOVS      A1, #0                ; [DPU_V7M3_PIPE] |366|  ; [ORIG 16-BIT INS]
    2125 0000000c 0812              LSRS      A3, A3, #32           ; [DPU_V7M3_PIPE] |366|  ; [ORIG 16-BIT INS]
    2126 0000000e D200              BCS       ||$C$L29||            ; [DPU_V7M3_PIPE] |366|  ; [ORIG 16-BIT INS]
    2127                            ; BRANCHCC OCCURS {||$C$L29||}   ; [] |366| 
    2128                    ;* --------------------------------------------------------------------------*
    2129 00000010 2101              MOVS      A2, #1                ; [DPU_V7M3_PIPE] |366|  ; [ORIG 16-BIT INS]
    2130                    ;* --------------------------------------------------------------------------*
    2131 00000012           ||$C$L29||:    
    2132 00000012 B901              CBNZ      A2, ||$C$L30||        ; []  ; [ORIG 16-BIT INS]
    2133                            ; BRANCHCC OCCURS {||$C$L30||}   ; [] |366| 
    2134                    ;* --------------------------------------------------------------------------*
    2135 00000014 2001              MOVS      A1, #1                ; [DPU_V7M3_PIPE] |366|  ; [ORIG 16-BIT INS]
    2136                    ;* --------------------------------------------------------------------------*
    2137 00000016           ||$C$L30||:    
    2138                            .dwpsn  file "/home/merdak/Apps/ti/ccs1020/ccs/tools/compiler/ti-cgt-arm_20.2.4.LTS/include/_d
    2139 00000016 B002              ADD       SP, SP, #8            ; [DPU_V7M3_PIPE]  ; [ORIG 16-BIT INS]
    2140                            .dwcfi  cfa_offset, 0
    2141                    $C$DW$69        .dwtag  DW_TAG_TI_branch
    2142                            .dwattr $C$DW$69, DW_AT_low_pc(0x00)
    2143                            .dwattr $C$DW$69, DW_AT_TI_return
    2144                    
    2145 00000018 4770              BX        LR                    ; [DPU_V7M3_PIPE]  ; [ORIG 16-BIT INS]
TI ARM Assembler Unix v20.2.4 Fri Apr  2 00:57:47 2021

Copyright (c) 1996-2018 Texas Instruments Incorporated
inv_mpu.asm                                                          PAGE   40

    2146                            ; BRANCH OCCURS                  ; [] 
    2147                            .dwattr $C$DW$66, DW_AT_TI_end_file("/home/merdak/Apps/ti/ccs1020/ccs/tools/compiler/ti-cgt-ar
    2148                            .dwattr $C$DW$66, DW_AT_TI_end_line(0x16e)
    2149                            .dwattr $C$DW$66, DW_AT_TI_end_column(0x29)
    2150                            .dwendentry
    2151                            .dwendtag $C$DW$66
    2152                    
    2153 00000000                   .sect   ".text:__signbitl"
    2154                            .clink
    2155                            .thumbfunc __signbitl
    2156 00000000                   .thumb
    2157                            .global __signbitl
    2158                    
    2159                    $C$DW$70        .dwtag  DW_TAG_subprogram
    2160                            .dwattr $C$DW$70, DW_AT_name("__signbitl")
    2161                            .dwattr $C$DW$70, DW_AT_low_pc(__signbitl)
    2162                            .dwattr $C$DW$70, DW_AT_high_pc(0x00)
    2163                            .dwattr $C$DW$70, DW_AT_TI_symbol_name("__signbitl")
    2164                            .dwattr $C$DW$70, DW_AT_external
    2165                            .dwattr $C$DW$70, DW_AT_type(*$C$DW$T$10)
    2166                            .dwattr $C$DW$70, DW_AT_TI_begin_file("/home/merdak/Apps/ti/ccs1020/ccs/tools/compiler/ti-cgt-
    2167                            .dwattr $C$DW$70, DW_AT_TI_begin_line(0x16f)
    2168                            .dwattr $C$DW$70, DW_AT_TI_begin_column(0x25)
    2169                            .dwattr $C$DW$70, DW_AT_decl_file("/home/merdak/Apps/ti/ccs1020/ccs/tools/compiler/ti-cgt-arm_
    2170                            .dwattr $C$DW$70, DW_AT_decl_line(0x16f)
    2171                            .dwattr $C$DW$70, DW_AT_decl_column(0x25)
    2172                            .dwattr $C$DW$70, DW_AT_TI_max_frame_size(0x20)
    2173                            .dwpsn  file "/home/merdak/Apps/ti/ccs1020/ccs/tools/compiler/ti-cgt-arm_20.2.4.LTS/include/_d
    2174                    
    2175                            .dwfde $C$DW$CIE, __signbitl
    2176                    $C$DW$71        .dwtag  DW_TAG_formal_parameter
    2177                            .dwattr $C$DW$71, DW_AT_name("e")
    2178                            .dwattr $C$DW$71, DW_AT_TI_symbol_name("e")
    2179                            .dwattr $C$DW$71, DW_AT_type(*$C$DW$T$18)
    2180                            .dwattr $C$DW$71, DW_AT_location[DW_OP_reg0]
    2181                    
    2182                    ;----------------------------------------------------------------------
    2183                    ; 367 | _CODE_ACCESS _INLINE_DEFINITION int __signbitl(long double e)          
    2184                    ;----------------------------------------------------------------------
    2185                    
    2186                    ;*****************************************************************************
    2187                    ;* FUNCTION NAME: __signbitl                                                 *
    2188                    ;*                                                                           *
    2189                    ;*   Regs Modified     : A1,A2,A3,A4,V1,V2,V3,V4,SP,SR                       *
    2190                    ;*   Regs Used         : A1,A2,A3,A4,V1,V2,V3,V4,SP,LR,SR                    *
    2191                    ;*   Local Frame Size  : 0 Args + 8 Auto + 20 Save = 28 byte                 *
    2192                    ;*****************************************************************************
    2193 00000000           __signbitl:
    2194                    ;* --------------------------------------------------------------------------*
    2195                            .dwcfi  cfa_offset, 0
    2196 00000000 B5FE              PUSH      {A2, A3, A4, V1, V2, V3, V4, LR} ; [DPU_V7M3_PIPE]  ; [ORIG 16-BIT INS]
    2197                            .dwcfi  cfa_offset, 32
    2198                            .dwcfi  save_reg_to_mem, 14, -4
    2199                            .dwcfi  save_reg_to_mem, 7, -8
    2200                            .dwcfi  save_reg_to_mem, 6, -12
TI ARM Assembler Unix v20.2.4 Fri Apr  2 00:57:47 2021

Copyright (c) 1996-2018 Texas Instruments Incorporated
inv_mpu.asm                                                          PAGE   41

    2201                            .dwcfi  save_reg_to_mem, 5, -16
    2202                            .dwcfi  save_reg_to_mem, 4, -20
    2203                            .dwcfi  save_reg_to_mem, 3, -24
    2204                            .dwcfi  save_reg_to_mem, 2, -28
    2205                            .dwcfi  save_reg_to_mem, 1, -32
    2206                    $C$DW$72        .dwtag  DW_TAG_variable
    2207                            .dwattr $C$DW$72, DW_AT_name("e")
    2208                            .dwattr $C$DW$72, DW_AT_TI_symbol_name("e")
    2209                            .dwattr $C$DW$72, DW_AT_type(*$C$DW$T$18)
    2210                            .dwattr $C$DW$72, DW_AT_location[DW_OP_breg13 0]
    2211                    
    2212                    ;----------------------------------------------------------------------
    2213                    ; 368 | { return __LDOUBLE_SIGN_BIT_ZERO(e) == 0; }                            
    2214                    ;----------------------------------------------------------------------
    2215 00000002 0003E88D          STMIA     SP, {A1,A2}           ; [DPU_V7M3_PIPE] |368|  ; [KEEP 32-BIT INS]
    2216                            .dwpsn  file "/home/merdak/Apps/ti/ccs1020/ccs/tools/compiler/ti-cgt-arm_20.2.4.LTS/include/_d
    2217 00000006 0006E89D          LDMIA     SP, {A2,A3}           ; [DPU_V7M3_PIPE] |368|  ; [KEEP 32-BIT INS]
    2218 0000000a 4611              MOV       A2, A3                ; [DPU_V7M3_PIPE] |368|  ; [ORIG 16-BIT INS]
    2219 0000000c 000CE89D          LDMIA     SP, {A3,A4}           ; [DPU_V7M3_PIPE] |368|  ; [KEEP 32-BIT INS]
    2220 00000010 2500              MOVS      V2, #0                ; [DPU_V7M3_PIPE] |368|  ; [ORIG 16-BIT INS]
    2221 00000012 4600F04F          MOV       V3, #-2147483648      ; [DPU_V7M3_PIPE] |368|  ; [KEEP 32-BIT INS]
    2222 00000016 2000              MOVS      A1, #0                ; [DPU_V7M3_PIPE] |368|  ; [ORIG 16-BIT INS]
    2223 00000018 2700              MOVS      V4, #0                ; [DPU_V7M3_PIPE] |368|  ; [ORIG 16-BIT INS]
    2224 0000001a 000C              LSLS      V1, A2, #0            ; [DPU_V7M3_PIPE] |368|  ; [ORIG 16-BIT INS]
    2225 0000001c 2100              MOVS      A2, #0                ; [DPU_V7M3_PIPE] |368|  ; [ORIG 16-BIT INS]
    2226 0000001e 4321              ORRS      A2, A2, V1            ; [DPU_V7M3_PIPE] |368|  ; [ORIG 16-BIT INS]
    2227 00000020 2300              MOVS      A4, #0                ; [DPU_V7M3_PIPE] |368|  ; [ORIG 16-BIT INS]
    2228 00000022 432A              ORRS      A3, A3, V2            ; [DPU_V7M3_PIPE] |368|  ; [ORIG 16-BIT INS]
    2229 00000024 400E              ANDS      V3, V3, A2            ; [DPU_V7M3_PIPE] |368|  ; [ORIG 16-BIT INS]
    2230 00000026 0302EA03          AND       A4, A4, A3            ; [DPU_V7M3_PIPE] |368|  ; [KEEP 32-BIT INS]
    2231 0000002a D100              BNE       ||$C$L31||            ; [DPU_V7M3_PIPE] |368|  ; [ORIG 16-BIT INS]
    2232                            ; BRANCHCC OCCURS {||$C$L31||}   ; [] |368| 
    2233                    ;* --------------------------------------------------------------------------*
    2234 0000002c 2B00              CMP       A4, #0                ; [DPU_V7M3_PIPE] |368|  ; [ORIG 16-BIT INS]
    2235                    ;* --------------------------------------------------------------------------*
    2236 0000002e           ||$C$L31||:    
    2237 0000002e D100              BNE       ||$C$L32||            ; [DPU_V7M3_PIPE] |368|  ; [ORIG 16-BIT INS]
    2238                            ; BRANCHCC OCCURS {||$C$L32||}   ; [] |368| 
    2239                    ;* --------------------------------------------------------------------------*
    2240 00000030 2701              MOVS      V4, #1                ; [DPU_V7M3_PIPE] |368|  ; [ORIG 16-BIT INS]
    2241                    ;* --------------------------------------------------------------------------*
    2242 00000032           ||$C$L32||:    
    2243 00000032 B907              CBNZ      V4, ||$C$L33||        ; []  ; [ORIG 16-BIT INS]
    2244                            ; BRANCHCC OCCURS {||$C$L33||}   ; [] |368| 
    2245                    ;* --------------------------------------------------------------------------*
    2246 00000034 2001              MOVS      A1, #1                ; [DPU_V7M3_PIPE] |368|  ; [ORIG 16-BIT INS]
    2247                    ;* --------------------------------------------------------------------------*
    2248 00000036           ||$C$L33||:    
    2249                            .dwpsn  file "/home/merdak/Apps/ti/ccs1020/ccs/tools/compiler/ti-cgt-arm_20.2.4.LTS/include/_d
    2250                    $C$DW$73        .dwtag  DW_TAG_TI_branch
    2251                            .dwattr $C$DW$73, DW_AT_low_pc(0x00)
    2252                            .dwattr $C$DW$73, DW_AT_TI_return
    2253                    
    2254 00000036 BDFE              POP       {A2, A3, A4, V1, V2, V3, V4, PC} ; [DPU_V7M3_PIPE]  ; [ORIG 16-BIT INS]
    2255                            .dwcfi  cfa_offset, 0
TI ARM Assembler Unix v20.2.4 Fri Apr  2 00:57:47 2021

Copyright (c) 1996-2018 Texas Instruments Incorporated
inv_mpu.asm                                                          PAGE   42

    2256                            .dwcfi  restore_reg, 7
    2257                            .dwcfi  restore_reg, 6
    2258                            .dwcfi  restore_reg, 5
    2259                            .dwcfi  restore_reg, 4
    2260                            .dwcfi  restore_reg, 3
    2261                            .dwcfi  restore_reg, 2
    2262                            .dwcfi  restore_reg, 1
    2263                            ; BRANCH OCCURS                  ; [] 
    2264                            .dwattr $C$DW$70, DW_AT_TI_end_file("/home/merdak/Apps/ti/ccs1020/ccs/tools/compiler/ti-cgt-ar
    2265                            .dwattr $C$DW$70, DW_AT_TI_end_line(0x170)
    2266                            .dwattr $C$DW$70, DW_AT_TI_end_column(0x2b)
    2267                            .dwendentry
    2268                            .dwendtag $C$DW$70
    2269                    
    2270 00000000                   .sect   ".text:__isinff"
    2271                            .clink
    2272                            .thumbfunc __isinff
    2273 00000000                   .thumb
    2274                            .global __isinff
    2275                    
    2276                    $C$DW$74        .dwtag  DW_TAG_subprogram
    2277                            .dwattr $C$DW$74, DW_AT_name("__isinff")
    2278                            .dwattr $C$DW$74, DW_AT_low_pc(__isinff)
    2279                            .dwattr $C$DW$74, DW_AT_high_pc(0x00)
    2280                            .dwattr $C$DW$74, DW_AT_TI_symbol_name("__isinff")
    2281                            .dwattr $C$DW$74, DW_AT_external
    2282                            .dwattr $C$DW$74, DW_AT_type(*$C$DW$T$10)
    2283                            .dwattr $C$DW$74, DW_AT_TI_begin_file("/home/merdak/Apps/ti/ccs1020/ccs/tools/compiler/ti-cgt-
    2284                            .dwattr $C$DW$74, DW_AT_TI_begin_line(0x176)
    2285                            .dwattr $C$DW$74, DW_AT_TI_begin_column(0x25)
    2286                            .dwattr $C$DW$74, DW_AT_decl_file("/home/merdak/Apps/ti/ccs1020/ccs/tools/compiler/ti-cgt-arm_
    2287                            .dwattr $C$DW$74, DW_AT_decl_line(0x176)
    2288                            .dwattr $C$DW$74, DW_AT_decl_column(0x25)
    2289                            .dwattr $C$DW$74, DW_AT_TI_max_frame_size(0x08)
    2290                            .dwpsn  file "/home/merdak/Apps/ti/ccs1020/ccs/tools/compiler/ti-cgt-arm_20.2.4.LTS/include/_d
    2291                    
    2292                            .dwfde $C$DW$CIE, __isinff
    2293                    $C$DW$75        .dwtag  DW_TAG_formal_parameter
    2294                            .dwattr $C$DW$75, DW_AT_name("f")
    2295                            .dwattr $C$DW$75, DW_AT_TI_symbol_name("f")
    2296                            .dwattr $C$DW$75, DW_AT_type(*$C$DW$T$16)
    2297                            .dwattr $C$DW$75, DW_AT_location[DW_OP_reg0]
    2298                    
    2299                    ;----------------------------------------------------------------------
    2300                    ; 374 | _CODE_ACCESS _INLINE_DEFINITION int __isinff(float f)                  
    2301                    ;----------------------------------------------------------------------
    2302                    
    2303                    ;*****************************************************************************
    2304                    ;* FUNCTION NAME: __isinff                                                   *
    2305                    ;*                                                                           *
    2306                    ;*   Regs Modified     : A1,A2,SP,SR                                         *
    2307                    ;*   Regs Used         : A1,A2,SP,LR,SR                                      *
    2308                    ;*   Local Frame Size  : 0 Args + 4 Auto + 0 Save = 4 byte                   *
    2309                    ;*****************************************************************************
    2310 00000000           __isinff:
TI ARM Assembler Unix v20.2.4 Fri Apr  2 00:57:47 2021

Copyright (c) 1996-2018 Texas Instruments Incorporated
inv_mpu.asm                                                          PAGE   43

    2311                    ;* --------------------------------------------------------------------------*
    2312                            .dwcfi  cfa_offset, 0
    2313 00000000 0D08F1AD          SUB       SP, SP, #8            ; [DPU_V7M3_PIPE]  ; [KEEP 32-BIT INS]
    2314                            .dwcfi  cfa_offset, 8
    2315                    $C$DW$76        .dwtag  DW_TAG_variable
    2316                            .dwattr $C$DW$76, DW_AT_name("f")
    2317                            .dwattr $C$DW$76, DW_AT_TI_symbol_name("f")
    2318                            .dwattr $C$DW$76, DW_AT_type(*$C$DW$T$16)
    2319                            .dwattr $C$DW$76, DW_AT_location[DW_OP_breg13 0]
    2320                    
    2321                    ;----------------------------------------------------------------------
    2322                    ; 375 | { return __FLOAT_BIASED_EXP_IS_MAX(f) && __FLOAT_FRAC_PART_IS_ZERO(f);
    2323                    ;     | }                                                                      
    2324                    ;----------------------------------------------------------------------
    2325 00000004 9000              STR       A1, [SP, #0]          ; [DPU_V7M3_PIPE] |375|  ; [ORIG 16-BIT INS]
    2326                            .dwpsn  file "/home/merdak/Apps/ti/ccs1020/ccs/tools/compiler/ti-cgt-arm_20.2.4.LTS/include/_d
    2327 00000006 9800              LDR       A1, [SP, #0]          ; [DPU_V7M3_PIPE] |375|  ; [ORIG 16-BIT INS]
    2328 00000008 2100              MOVS      A2, #0                ; [DPU_V7M3_PIPE] |375|  ; [ORIG 16-BIT INS]
    2329 0000000a 0C00              LSRS      A1, A1, #16           ; [DPU_V7M3_PIPE] |375|  ; [ORIG 16-BIT INS]
    2330 0000000c 40FFF400          AND       A1, A1, #32640        ; [DPU_V7M3_PIPE] |375|  ; [KEEP 32-BIT INS]
    2331 00000010 4FFFF5B0          CMP       A1, #32640            ; [DPU_V7M3_PIPE] |375|  ; [KEEP 32-BIT INS]
    2332 00000014 D104              BNE       ||$C$L34||            ; [DPU_V7M3_PIPE] |375|  ; [ORIG 16-BIT INS]
    2333                            ; BRANCHCC OCCURS {||$C$L34||}   ; [] |375| 
    2334                    ;* --------------------------------------------------------------------------*
    2335 00000016 9800              LDR       A1, [SP, #0]          ; [DPU_V7M3_PIPE] |375|  ; [ORIG 16-BIT INS]
    2336 00000018 50DFF36F          BFC       A1, #23, #9           ; [DPU_V7M3_PIPE] |375|  ; [KEEP 32-BIT INS]
    2337 0000001c B900              CBNZ      A1, ||$C$L34||        ; []  ; [ORIG 16-BIT INS]
    2338                            ; BRANCHCC OCCURS {||$C$L34||}   ; [] |375| 
    2339                    ;* --------------------------------------------------------------------------*
    2340 0000001e 2101              MOVS      A2, #1                ; [DPU_V7M3_PIPE] |375|  ; [ORIG 16-BIT INS]
    2341                    ;* --------------------------------------------------------------------------*
    2342 00000020           ||$C$L34||:    
    2343 00000020 4608              MOV       A1, A2                ; [DPU_V7M3_PIPE] |375|  ; [ORIG 16-BIT INS]
    2344                            .dwpsn  file "/home/merdak/Apps/ti/ccs1020/ccs/tools/compiler/ti-cgt-arm_20.2.4.LTS/include/_d
    2345 00000022 B002              ADD       SP, SP, #8            ; [DPU_V7M3_PIPE]  ; [ORIG 16-BIT INS]
    2346                            .dwcfi  cfa_offset, 0
    2347                    $C$DW$77        .dwtag  DW_TAG_TI_branch
    2348                            .dwattr $C$DW$77, DW_AT_low_pc(0x00)
    2349                            .dwattr $C$DW$77, DW_AT_TI_return
    2350                    
    2351 00000024 4770              BX        LR                    ; [DPU_V7M3_PIPE]  ; [ORIG 16-BIT INS]
    2352                            ; BRANCH OCCURS                  ; [] 
    2353                            .dwattr $C$DW$74, DW_AT_TI_end_file("/home/merdak/Apps/ti/ccs1020/ccs/tools/compiler/ti-cgt-ar
    2354                            .dwattr $C$DW$74, DW_AT_TI_end_line(0x177)
    2355                            .dwattr $C$DW$74, DW_AT_TI_end_column(0x48)
    2356                            .dwendentry
    2357                            .dwendtag $C$DW$74
    2358                    
    2359 00000000                   .sect   ".text:__isinf"
    2360                            .clink
    2361                            .thumbfunc __isinf
    2362 00000000                   .thumb
    2363                            .global __isinf
    2364                    
    2365                    $C$DW$78        .dwtag  DW_TAG_subprogram
TI ARM Assembler Unix v20.2.4 Fri Apr  2 00:57:47 2021

Copyright (c) 1996-2018 Texas Instruments Incorporated
inv_mpu.asm                                                          PAGE   44

    2366                            .dwattr $C$DW$78, DW_AT_name("__isinf")
    2367                            .dwattr $C$DW$78, DW_AT_low_pc(__isinf)
    2368                            .dwattr $C$DW$78, DW_AT_high_pc(0x00)
    2369                            .dwattr $C$DW$78, DW_AT_TI_symbol_name("__isinf")
    2370                            .dwattr $C$DW$78, DW_AT_external
    2371                            .dwattr $C$DW$78, DW_AT_type(*$C$DW$T$10)
    2372                            .dwattr $C$DW$78, DW_AT_TI_begin_file("/home/merdak/Apps/ti/ccs1020/ccs/tools/compiler/ti-cgt-
    2373                            .dwattr $C$DW$78, DW_AT_TI_begin_line(0x178)
    2374                            .dwattr $C$DW$78, DW_AT_TI_begin_column(0x25)
    2375                            .dwattr $C$DW$78, DW_AT_decl_file("/home/merdak/Apps/ti/ccs1020/ccs/tools/compiler/ti-cgt-arm_
    2376                            .dwattr $C$DW$78, DW_AT_decl_line(0x178)
    2377                            .dwattr $C$DW$78, DW_AT_decl_column(0x25)
    2378                            .dwattr $C$DW$78, DW_AT_TI_max_frame_size(0x18)
    2379                            .dwpsn  file "/home/merdak/Apps/ti/ccs1020/ccs/tools/compiler/ti-cgt-arm_20.2.4.LTS/include/_d
    2380                    
    2381                            .dwfde $C$DW$CIE, __isinf
    2382                    $C$DW$79        .dwtag  DW_TAG_formal_parameter
    2383                            .dwattr $C$DW$79, DW_AT_name("d")
    2384                            .dwattr $C$DW$79, DW_AT_TI_symbol_name("d")
    2385                            .dwattr $C$DW$79, DW_AT_type(*$C$DW$T$17)
    2386                            .dwattr $C$DW$79, DW_AT_location[DW_OP_reg0]
    2387                    
    2388                    ;----------------------------------------------------------------------
    2389                    ; 376 | _CODE_ACCESS _INLINE_DEFINITION int __isinf (double d)                 
    2390                    ;----------------------------------------------------------------------
    2391                    
    2392                    ;*****************************************************************************
    2393                    ;* FUNCTION NAME: __isinf                                                    *
    2394                    ;*                                                                           *
    2395                    ;*   Regs Modified     : A1,A2,A3,A4,V1,V2,V4,SP,SR                          *
    2396                    ;*   Regs Used         : A1,A2,A3,A4,V1,V2,V4,SP,LR,SR                       *
    2397                    ;*   Local Frame Size  : 0 Args + 8 Auto + 16 Save = 24 byte                 *
    2398                    ;*****************************************************************************
    2399 00000000           __isinf:
    2400                    ;* --------------------------------------------------------------------------*
    2401                            .dwcfi  cfa_offset, 0
    2402 00000000 B5BC              PUSH      {A3, A4, V1, V2, V4, LR} ; [DPU_V7M3_PIPE]  ; [ORIG 16-BIT INS]
    2403                            .dwcfi  cfa_offset, 24
    2404                            .dwcfi  save_reg_to_mem, 14, -4
    2405                            .dwcfi  save_reg_to_mem, 7, -8
    2406                            .dwcfi  save_reg_to_mem, 5, -12
    2407                            .dwcfi  save_reg_to_mem, 4, -16
    2408                            .dwcfi  save_reg_to_mem, 3, -20
    2409                            .dwcfi  save_reg_to_mem, 2, -24
    2410                    $C$DW$80        .dwtag  DW_TAG_variable
    2411                            .dwattr $C$DW$80, DW_AT_name("d")
    2412                            .dwattr $C$DW$80, DW_AT_TI_symbol_name("d")
    2413                            .dwattr $C$DW$80, DW_AT_type(*$C$DW$T$17)
    2414                            .dwattr $C$DW$80, DW_AT_location[DW_OP_breg13 0]
    2415                    
    2416                    ;----------------------------------------------------------------------
    2417                    ; 377 | { return __DOUBLE_BIASED_EXP_IS_MAX(d) && __DOUBLE_FRAC_PART_IS_ZERO(d)
    2418                    ;     | ; }                                                                    
    2419                    ;----------------------------------------------------------------------
    2420 00000002 0003E88D          STMIA     SP, {A1,A2}           ; [DPU_V7M3_PIPE] |377|  ; [KEEP 32-BIT INS]
TI ARM Assembler Unix v20.2.4 Fri Apr  2 00:57:47 2021

Copyright (c) 1996-2018 Texas Instruments Incorporated
inv_mpu.asm                                                          PAGE   45

    2421                            .dwpsn  file "/home/merdak/Apps/ti/ccs1020/ccs/tools/compiler/ti-cgt-arm_20.2.4.LTS/include/_d
    2422 00000006 0006E89D          LDMIA     SP, {A2,A3}           ; [DPU_V7M3_PIPE] |377|  ; [KEEP 32-BIT INS]
    2423 0000000a 2000              MOVS      A1, #0                ; [DPU_V7M3_PIPE] |377|  ; [ORIG 16-BIT INS]
    2424 0000000c 4611              MOV       A2, A3                ; [DPU_V7M3_PIPE] |377|  ; [ORIG 16-BIT INS]
    2425 0000000e 000A              LSLS      A3, A2, #0            ; [DPU_V7M3_PIPE] |377|  ; [ORIG 16-BIT INS]
    2426 00000010 2100              MOVS      A2, #0                ; [DPU_V7M3_PIPE] |377|  ; [ORIG 16-BIT INS]
    2427 00000012 4311              ORRS      A2, A2, A3            ; [DPU_V7M3_PIPE] |377|  ; [ORIG 16-BIT INS]
    2428 00000014 0C0A              LSRS      A3, A2, #16           ; [DPU_V7M3_PIPE] |377|  ; [ORIG 16-BIT INS]
    2429 00000016 71F0F647          MOV       A2, #32752            ; [DPU_V7M3_PIPE] |377|  ; [KEEP 32-BIT INS]
    2430 0000001a 4011              ANDS      A2, A2, A3            ; [DPU_V7M3_PIPE] |377|  ; [ORIG 16-BIT INS]
    2431 0000001c 72F0F647          MOV       A3, #32752            ; [DPU_V7M3_PIPE] |377|  ; [KEEP 32-BIT INS]
    2432 00000020 428A              CMP       A3, A2                ; [DPU_V7M3_PIPE] |377|  ; [ORIG 16-BIT INS]
    2433 00000022 D112              BNE       ||$C$L36||            ; [DPU_V7M3_PIPE] |377|  ; [ORIG 16-BIT INS]
    2434                            ; BRANCHCC OCCURS {||$C$L36||}   ; [] |377| 
    2435                    ;* --------------------------------------------------------------------------*
    2436 00000024 0006E89D          LDMIA     SP, {A2,A3}           ; [DPU_V7M3_PIPE] |377|  ; [KEEP 32-BIT INS]
    2437 00000028 4F08              LDR       V4, $C$CON3           ; [DPU_V7M3_PIPE] |377|  ; [ORIG 16-BIT INS]
    2438 0000002a 4611              MOV       A2, A3                ; [DPU_V7M3_PIPE] |377|  ; [ORIG 16-BIT INS]
    2439 0000002c 000CE89D          LDMIA     SP, {A3,A4}           ; [DPU_V7M3_PIPE] |377|  ; [KEEP 32-BIT INS]
    2440 00000030 2500              MOVS      V2, #0                ; [DPU_V7M3_PIPE] |377|  ; [ORIG 16-BIT INS]
    2441 00000032 000C              LSLS      V1, A2, #0            ; [DPU_V7M3_PIPE] |377|  ; [ORIG 16-BIT INS]
    2442 00000034 2100              MOVS      A2, #0                ; [DPU_V7M3_PIPE] |377|  ; [ORIG 16-BIT INS]
    2443 00000036 33FFF04F          MOV       A4, #-1               ; [DPU_V7M3_PIPE] |377|  ; [KEEP 32-BIT INS]
    2444 0000003a 432A              ORRS      A3, A3, V2            ; [DPU_V7M3_PIPE] |377|  ; [ORIG 16-BIT INS]
    2445 0000003c 4321              ORRS      A2, A2, V1            ; [DPU_V7M3_PIPE] |377|  ; [ORIG 16-BIT INS]
    2446 0000003e 4013              ANDS      A4, A4, A3            ; [DPU_V7M3_PIPE] |377|  ; [ORIG 16-BIT INS]
    2447 00000040 400F              ANDS      V4, V4, A2            ; [DPU_V7M3_PIPE] |377|  ; [ORIG 16-BIT INS]
    2448 00000042 D100              BNE       ||$C$L35||            ; [DPU_V7M3_PIPE] |377|  ; [ORIG 16-BIT INS]
    2449                            ; BRANCHCC OCCURS {||$C$L35||}   ; [] |377| 
    2450                    ;* --------------------------------------------------------------------------*
    2451 00000044 2B00              CMP       A4, #0                ; [DPU_V7M3_PIPE] |377|  ; [ORIG 16-BIT INS]
    2452                    ;* --------------------------------------------------------------------------*
    2453 00000046           ||$C$L35||:    
    2454 00000046 D100              BNE       ||$C$L36||            ; [DPU_V7M3_PIPE] |377|  ; [ORIG 16-BIT INS]
    2455                            ; BRANCHCC OCCURS {||$C$L36||}   ; [] |377| 
    2456                    ;* --------------------------------------------------------------------------*
    2457 00000048 2001              MOVS      A1, #1                ; [DPU_V7M3_PIPE] |377|  ; [ORIG 16-BIT INS]
    2458                    ;* --------------------------------------------------------------------------*
    2459 0000004a           ||$C$L36||:    
    2460                            .dwpsn  file "/home/merdak/Apps/ti/ccs1020/ccs/tools/compiler/ti-cgt-arm_20.2.4.LTS/include/_d
    2461                    $C$DW$81        .dwtag  DW_TAG_TI_branch
    2462                            .dwattr $C$DW$81, DW_AT_low_pc(0x00)
    2463                            .dwattr $C$DW$81, DW_AT_TI_return
    2464                    
    2465 0000004a BDBC              POP       {A3, A4, V1, V2, V4, PC} ; [DPU_V7M3_PIPE]  ; [ORIG 16-BIT INS]
    2466                            .dwcfi  cfa_offset, 0
    2467                            .dwcfi  restore_reg, 7
    2468                            .dwcfi  restore_reg, 5
    2469                            .dwcfi  restore_reg, 4
    2470                            .dwcfi  restore_reg, 3
    2471                            .dwcfi  restore_reg, 2
    2472                            ; BRANCH OCCURS                  ; [] 
    2473                            .dwattr $C$DW$78, DW_AT_TI_end_file("/home/merdak/Apps/ti/ccs1020/ccs/tools/compiler/ti-cgt-ar
    2474                            .dwattr $C$DW$78, DW_AT_TI_end_line(0x179)
    2475                            .dwattr $C$DW$78, DW_AT_TI_end_column(0x4a)
TI ARM Assembler Unix v20.2.4 Fri Apr  2 00:57:47 2021

Copyright (c) 1996-2018 Texas Instruments Incorporated
inv_mpu.asm                                                          PAGE   46

    2476                            .dwendentry
    2477                            .dwendtag $C$DW$78
    2478                    
    2479 00000000                   .sect   ".text:__isinfl"
    2480                            .clink
    2481                            .thumbfunc __isinfl
    2482 00000000                   .thumb
    2483                            .global __isinfl
    2484                    
    2485                    $C$DW$82        .dwtag  DW_TAG_subprogram
    2486                            .dwattr $C$DW$82, DW_AT_name("__isinfl")
    2487                            .dwattr $C$DW$82, DW_AT_low_pc(__isinfl)
    2488                            .dwattr $C$DW$82, DW_AT_high_pc(0x00)
    2489                            .dwattr $C$DW$82, DW_AT_TI_symbol_name("__isinfl")
    2490                            .dwattr $C$DW$82, DW_AT_external
    2491                            .dwattr $C$DW$82, DW_AT_type(*$C$DW$T$10)
    2492                            .dwattr $C$DW$82, DW_AT_TI_begin_file("/home/merdak/Apps/ti/ccs1020/ccs/tools/compiler/ti-cgt-
    2493                            .dwattr $C$DW$82, DW_AT_TI_begin_line(0x17a)
    2494                            .dwattr $C$DW$82, DW_AT_TI_begin_column(0x25)
    2495                            .dwattr $C$DW$82, DW_AT_decl_file("/home/merdak/Apps/ti/ccs1020/ccs/tools/compiler/ti-cgt-arm_
    2496                            .dwattr $C$DW$82, DW_AT_decl_line(0x17a)
    2497                            .dwattr $C$DW$82, DW_AT_decl_column(0x25)
    2498                            .dwattr $C$DW$82, DW_AT_TI_max_frame_size(0x18)
    2499                            .dwpsn  file "/home/merdak/Apps/ti/ccs1020/ccs/tools/compiler/ti-cgt-arm_20.2.4.LTS/include/_d
    2500                    
    2501                            .dwfde $C$DW$CIE, __isinfl
    2502                    $C$DW$83        .dwtag  DW_TAG_formal_parameter
    2503                            .dwattr $C$DW$83, DW_AT_name("e")
    2504                            .dwattr $C$DW$83, DW_AT_TI_symbol_name("e")
    2505                            .dwattr $C$DW$83, DW_AT_type(*$C$DW$T$18)
    2506                            .dwattr $C$DW$83, DW_AT_location[DW_OP_reg0]
    2507                    
    2508                    ;----------------------------------------------------------------------
    2509                    ; 378 | _CODE_ACCESS _INLINE_DEFINITION int __isinfl(long double e)            
    2510                    ;----------------------------------------------------------------------
    2511                    
    2512                    ;*****************************************************************************
    2513                    ;* FUNCTION NAME: __isinfl                                                   *
    2514                    ;*                                                                           *
    2515                    ;*   Regs Modified     : A1,A2,A3,A4,V1,V2,V4,SP,SR                          *
    2516                    ;*   Regs Used         : A1,A2,A3,A4,V1,V2,V4,SP,LR,SR                       *
    2517                    ;*   Local Frame Size  : 0 Args + 8 Auto + 16 Save = 24 byte                 *
    2518                    ;*****************************************************************************
    2519 00000000           __isinfl:
    2520                    ;* --------------------------------------------------------------------------*
    2521                            .dwcfi  cfa_offset, 0
    2522 00000000 B5BC              PUSH      {A3, A4, V1, V2, V4, LR} ; [DPU_V7M3_PIPE]  ; [ORIG 16-BIT INS]
    2523                            .dwcfi  cfa_offset, 24
    2524                            .dwcfi  save_reg_to_mem, 14, -4
    2525                            .dwcfi  save_reg_to_mem, 7, -8
    2526                            .dwcfi  save_reg_to_mem, 5, -12
    2527                            .dwcfi  save_reg_to_mem, 4, -16
    2528                            .dwcfi  save_reg_to_mem, 3, -20
    2529                            .dwcfi  save_reg_to_mem, 2, -24
    2530                    $C$DW$84        .dwtag  DW_TAG_variable
TI ARM Assembler Unix v20.2.4 Fri Apr  2 00:57:47 2021

Copyright (c) 1996-2018 Texas Instruments Incorporated
inv_mpu.asm                                                          PAGE   47

    2531                            .dwattr $C$DW$84, DW_AT_name("e")
    2532                            .dwattr $C$DW$84, DW_AT_TI_symbol_name("e")
    2533                            .dwattr $C$DW$84, DW_AT_type(*$C$DW$T$18)
    2534                            .dwattr $C$DW$84, DW_AT_location[DW_OP_breg13 0]
    2535                    
    2536                    ;----------------------------------------------------------------------
    2537                    ; 379 | { return __LDOUBLE_BIASED_EXP_IS_MAX(e) && __LDOUBLE_FRAC_PART_IS_ZERO(
    2538                    ;     | e); }                                                                  
    2539                    ;----------------------------------------------------------------------
    2540 00000002 0003E88D          STMIA     SP, {A1,A2}           ; [DPU_V7M3_PIPE] |379|  ; [KEEP 32-BIT INS]
    2541                            .dwpsn  file "/home/merdak/Apps/ti/ccs1020/ccs/tools/compiler/ti-cgt-arm_20.2.4.LTS/include/_d
    2542 00000006 0006E89D          LDMIA     SP, {A2,A3}           ; [DPU_V7M3_PIPE] |379|  ; [KEEP 32-BIT INS]
    2543 0000000a 2000              MOVS      A1, #0                ; [DPU_V7M3_PIPE] |379|  ; [ORIG 16-BIT INS]
    2544 0000000c 4611              MOV       A2, A3                ; [DPU_V7M3_PIPE] |379|  ; [ORIG 16-BIT INS]
    2545 0000000e 000A              LSLS      A3, A2, #0            ; [DPU_V7M3_PIPE] |379|  ; [ORIG 16-BIT INS]
    2546 00000010 2100              MOVS      A2, #0                ; [DPU_V7M3_PIPE] |379|  ; [ORIG 16-BIT INS]
    2547 00000012 4311              ORRS      A2, A2, A3            ; [DPU_V7M3_PIPE] |379|  ; [ORIG 16-BIT INS]
    2548 00000014 0C0A              LSRS      A3, A2, #16           ; [DPU_V7M3_PIPE] |379|  ; [ORIG 16-BIT INS]
    2549 00000016 71F0F647          MOV       A2, #32752            ; [DPU_V7M3_PIPE] |379|  ; [KEEP 32-BIT INS]
    2550 0000001a 4011              ANDS      A2, A2, A3            ; [DPU_V7M3_PIPE] |379|  ; [ORIG 16-BIT INS]
    2551 0000001c 72F0F647          MOV       A3, #32752            ; [DPU_V7M3_PIPE] |379|  ; [KEEP 32-BIT INS]
    2552 00000020 428A              CMP       A3, A2                ; [DPU_V7M3_PIPE] |379|  ; [ORIG 16-BIT INS]
    2553 00000022 D112              BNE       ||$C$L38||            ; [DPU_V7M3_PIPE] |379|  ; [ORIG 16-BIT INS]
    2554                            ; BRANCHCC OCCURS {||$C$L38||}   ; [] |379| 
    2555                    ;* --------------------------------------------------------------------------*
    2556 00000024 0006E89D          LDMIA     SP, {A2,A3}           ; [DPU_V7M3_PIPE] |379|  ; [KEEP 32-BIT INS]
    2557 00000028 4F08              LDR       V4, $C$CON4           ; [DPU_V7M3_PIPE] |379|  ; [ORIG 16-BIT INS]
    2558 0000002a 4611              MOV       A2, A3                ; [DPU_V7M3_PIPE] |379|  ; [ORIG 16-BIT INS]
    2559 0000002c 000CE89D          LDMIA     SP, {A3,A4}           ; [DPU_V7M3_PIPE] |379|  ; [KEEP 32-BIT INS]
    2560 00000030 2500              MOVS      V2, #0                ; [DPU_V7M3_PIPE] |379|  ; [ORIG 16-BIT INS]
    2561 00000032 000C              LSLS      V1, A2, #0            ; [DPU_V7M3_PIPE] |379|  ; [ORIG 16-BIT INS]
    2562 00000034 2100              MOVS      A2, #0                ; [DPU_V7M3_PIPE] |379|  ; [ORIG 16-BIT INS]
    2563 00000036 33FFF04F          MOV       A4, #-1               ; [DPU_V7M3_PIPE] |379|  ; [KEEP 32-BIT INS]
    2564 0000003a 432A              ORRS      A3, A3, V2            ; [DPU_V7M3_PIPE] |379|  ; [ORIG 16-BIT INS]
    2565 0000003c 4321              ORRS      A2, A2, V1            ; [DPU_V7M3_PIPE] |379|  ; [ORIG 16-BIT INS]
    2566 0000003e 4013              ANDS      A4, A4, A3            ; [DPU_V7M3_PIPE] |379|  ; [ORIG 16-BIT INS]
    2567 00000040 400F              ANDS      V4, V4, A2            ; [DPU_V7M3_PIPE] |379|  ; [ORIG 16-BIT INS]
    2568 00000042 D100              BNE       ||$C$L37||            ; [DPU_V7M3_PIPE] |379|  ; [ORIG 16-BIT INS]
    2569                            ; BRANCHCC OCCURS {||$C$L37||}   ; [] |379| 
    2570                    ;* --------------------------------------------------------------------------*
    2571 00000044 2B00              CMP       A4, #0                ; [DPU_V7M3_PIPE] |379|  ; [ORIG 16-BIT INS]
    2572                    ;* --------------------------------------------------------------------------*
    2573 00000046           ||$C$L37||:    
    2574 00000046 D100              BNE       ||$C$L38||            ; [DPU_V7M3_PIPE] |379|  ; [ORIG 16-BIT INS]
    2575                            ; BRANCHCC OCCURS {||$C$L38||}   ; [] |379| 
    2576                    ;* --------------------------------------------------------------------------*
    2577 00000048 2001              MOVS      A1, #1                ; [DPU_V7M3_PIPE] |379|  ; [ORIG 16-BIT INS]
    2578                    ;* --------------------------------------------------------------------------*
    2579 0000004a           ||$C$L38||:    
    2580                            .dwpsn  file "/home/merdak/Apps/ti/ccs1020/ccs/tools/compiler/ti-cgt-arm_20.2.4.LTS/include/_d
    2581                    $C$DW$85        .dwtag  DW_TAG_TI_branch
    2582                            .dwattr $C$DW$85, DW_AT_low_pc(0x00)
    2583                            .dwattr $C$DW$85, DW_AT_TI_return
    2584                    
    2585 0000004a BDBC              POP       {A3, A4, V1, V2, V4, PC} ; [DPU_V7M3_PIPE]  ; [ORIG 16-BIT INS]
TI ARM Assembler Unix v20.2.4 Fri Apr  2 00:57:47 2021

Copyright (c) 1996-2018 Texas Instruments Incorporated
inv_mpu.asm                                                          PAGE   48

    2586                            .dwcfi  cfa_offset, 0
    2587                            .dwcfi  restore_reg, 7
    2588                            .dwcfi  restore_reg, 5
    2589                            .dwcfi  restore_reg, 4
    2590                            .dwcfi  restore_reg, 3
    2591                            .dwcfi  restore_reg, 2
    2592                            ; BRANCH OCCURS                  ; [] 
    2593                            .dwattr $C$DW$82, DW_AT_TI_end_file("/home/merdak/Apps/ti/ccs1020/ccs/tools/compiler/ti-cgt-ar
    2594                            .dwattr $C$DW$82, DW_AT_TI_end_line(0x17b)
    2595                            .dwattr $C$DW$82, DW_AT_TI_end_column(0x4c)
    2596                            .dwendentry
    2597                            .dwendtag $C$DW$82
    2598                    
    2599 00000000                   .sect   ".text:__fpclassifyf"
    2600                            .clink
    2601                            .thumbfunc __fpclassifyf
    2602 00000000                   .thumb
    2603                            .global __fpclassifyf
    2604                    
    2605                    $C$DW$86        .dwtag  DW_TAG_subprogram
    2606                            .dwattr $C$DW$86, DW_AT_name("__fpclassifyf")
    2607                            .dwattr $C$DW$86, DW_AT_low_pc(__fpclassifyf)
    2608                            .dwattr $C$DW$86, DW_AT_high_pc(0x00)
    2609                            .dwattr $C$DW$86, DW_AT_TI_symbol_name("__fpclassifyf")
    2610                            .dwattr $C$DW$86, DW_AT_external
    2611                            .dwattr $C$DW$86, DW_AT_type(*$C$DW$T$10)
    2612                            .dwattr $C$DW$86, DW_AT_TI_begin_file("/home/merdak/Apps/ti/ccs1020/ccs/tools/compiler/ti-cgt-
    2613                            .dwattr $C$DW$86, DW_AT_TI_begin_line(0x18c)
    2614                            .dwattr $C$DW$86, DW_AT_TI_begin_column(0x25)
    2615                            .dwattr $C$DW$86, DW_AT_decl_file("/home/merdak/Apps/ti/ccs1020/ccs/tools/compiler/ti-cgt-arm_
    2616                            .dwattr $C$DW$86, DW_AT_decl_line(0x18c)
    2617                            .dwattr $C$DW$86, DW_AT_decl_column(0x25)
    2618                            .dwattr $C$DW$86, DW_AT_TI_max_frame_size(0x08)
    2619                            .dwpsn  file "/home/merdak/Apps/ti/ccs1020/ccs/tools/compiler/ti-cgt-arm_20.2.4.LTS/include/_d
    2620                    
    2621                            .dwfde $C$DW$CIE, __fpclassifyf
    2622                    $C$DW$87        .dwtag  DW_TAG_formal_parameter
    2623                            .dwattr $C$DW$87, DW_AT_name("f")
    2624                            .dwattr $C$DW$87, DW_AT_TI_symbol_name("f")
    2625                            .dwattr $C$DW$87, DW_AT_type(*$C$DW$T$16)
    2626                            .dwattr $C$DW$87, DW_AT_location[DW_OP_reg0]
    2627                    
    2628                    ;----------------------------------------------------------------------
    2629                    ; 396 | _CODE_ACCESS _INLINE_DEFINITION int __fpclassifyf(float f)             
    2630                    ;----------------------------------------------------------------------
    2631                    
    2632                    ;*****************************************************************************
    2633                    ;* FUNCTION NAME: __fpclassifyf                                              *
    2634                    ;*                                                                           *
    2635                    ;*   Regs Modified     : A1,SP,SR                                            *
    2636                    ;*   Regs Used         : A1,SP,LR,SR                                         *
    2637                    ;*   Local Frame Size  : 0 Args + 4 Auto + 0 Save = 4 byte                   *
    2638                    ;*****************************************************************************
    2639 00000000           __fpclassifyf:
    2640                    ;* --------------------------------------------------------------------------*
TI ARM Assembler Unix v20.2.4 Fri Apr  2 00:57:47 2021

Copyright (c) 1996-2018 Texas Instruments Incorporated
inv_mpu.asm                                                          PAGE   49

    2641                            .dwcfi  cfa_offset, 0
    2642 00000000 0D08F1AD          SUB       SP, SP, #8            ; [DPU_V7M3_PIPE]  ; [KEEP 32-BIT INS]
    2643                            .dwcfi  cfa_offset, 8
    2644                    $C$DW$88        .dwtag  DW_TAG_variable
    2645                            .dwattr $C$DW$88, DW_AT_name("f")
    2646                            .dwattr $C$DW$88, DW_AT_TI_symbol_name("f")
    2647                            .dwattr $C$DW$88, DW_AT_type(*$C$DW$T$16)
    2648                            .dwattr $C$DW$88, DW_AT_location[DW_OP_breg13 0]
    2649                    
    2650 00000004 9000              STR       A1, [SP, #0]          ; [DPU_V7M3_PIPE] |397|  ; [ORIG 16-BIT INS]
    2651                            .dwpsn  file "/home/merdak/Apps/ti/ccs1020/ccs/tools/compiler/ti-cgt-arm_20.2.4.LTS/include/_d
    2652                    ;----------------------------------------------------------------------
    2653                    ; 398 | if (__FLOAT_BIASED_EXP_IS_MAX(f))                                      
    2654                    ;----------------------------------------------------------------------
    2655 00000006 9800              LDR       A1, [SP, #0]          ; [DPU_V7M3_PIPE] |398|  ; [ORIG 16-BIT INS]
    2656 00000008 0C00              LSRS      A1, A1, #16           ; [DPU_V7M3_PIPE] |398|  ; [ORIG 16-BIT INS]
    2657 0000000a 40FFF400          AND       A1, A1, #32640        ; [DPU_V7M3_PIPE] |398|  ; [KEEP 32-BIT INS]
    2658 0000000e 4FFFF5B0          CMP       A1, #32640            ; [DPU_V7M3_PIPE] |398|  ; [KEEP 32-BIT INS]
    2659 00000012 D107              BNE       ||$C$L40||            ; [DPU_V7M3_PIPE] |398|  ; [ORIG 16-BIT INS]
    2660                            ; BRANCHCC OCCURS {||$C$L40||}   ; [] |398| 
    2661                    ;* --------------------------------------------------------------------------*
    2662                            .dwpsn  file "/home/merdak/Apps/ti/ccs1020/ccs/tools/compiler/ti-cgt-arm_20.2.4.LTS/include/_d
    2663                    ;----------------------------------------------------------------------
    2664                    ; 400 | if (__FLOAT_FRAC_PART_IS_ZERO(f))                                      
    2665                    ;----------------------------------------------------------------------
    2666 00000014 9800              LDR       A1, [SP, #0]          ; [DPU_V7M3_PIPE] |400|  ; [ORIG 16-BIT INS]
    2667 00000016 50DFF36F          BFC       A1, #23, #9           ; [DPU_V7M3_PIPE] |400|  ; [KEEP 32-BIT INS]
    2668 0000001a B908              CBNZ      A1, ||$C$L39||        ; []  ; [ORIG 16-BIT INS]
    2669                            ; BRANCHCC OCCURS {||$C$L39||}   ; [] |400| 
    2670                    ;* --------------------------------------------------------------------------*
    2671                            .dwpsn  file "/home/merdak/Apps/ti/ccs1020/ccs/tools/compiler/ti-cgt-arm_20.2.4.LTS/include/_d
    2672                    ;----------------------------------------------------------------------
    2673                    ; 401 | return __FP_INFINITE;                                                  
    2674                    ;----------------------------------------------------------------------
    2675 0000001c 2001              MOVS      A1, #1                ; [DPU_V7M3_PIPE] |401|  ; [ORIG 16-BIT INS]
    2676 0000001e E010              B         ||$C$L43||            ; [DPU_V7M3_PIPE] |401|  ; [ORIG 16-BIT INS]
    2677                            ; BRANCH OCCURS {||$C$L43||}     ; [] |401| 
    2678                    ;* --------------------------------------------------------------------------*
    2679 00000020           ||$C$L39||:    
    2680                            .dwpsn  file "/home/merdak/Apps/ti/ccs1020/ccs/tools/compiler/ti-cgt-arm_20.2.4.LTS/include/_d
    2681                    ;----------------------------------------------------------------------
    2682                    ; 402 | else return __FP_NAN;                                                  
    2683                    ;----------------------------------------------------------------------
    2684 00000020 2002              MOVS      A1, #2                ; [DPU_V7M3_PIPE] |402|  ; [ORIG 16-BIT INS]
    2685 00000022 E00E              B         ||$C$L43||            ; [DPU_V7M3_PIPE] |402|  ; [ORIG 16-BIT INS]
    2686                            ; BRANCH OCCURS {||$C$L43||}     ; [] |402| 
    2687                    ;* --------------------------------------------------------------------------*
    2688 00000024           ||$C$L40||:    
    2689                            .dwpsn  file "/home/merdak/Apps/ti/ccs1020/ccs/tools/compiler/ti-cgt-arm_20.2.4.LTS/include/_d
    2690                    ;----------------------------------------------------------------------
    2691                    ; 404 | if (__FLOAT_BIASED_EXP_IS_ZERO(f))                                     
    2692                    ;----------------------------------------------------------------------
    2693 00000024 9800              LDR       A1, [SP, #0]          ; [DPU_V7M3_PIPE] |404|  ; [ORIG 16-BIT INS]
    2694 00000026 50C7F3C0          UBFX      A1, A1, #23, #8       ; [DPU_V7M3_PIPE] |404|  ; [KEEP 32-BIT INS]
    2695 0000002a B940              CBNZ      A1, ||$C$L42||        ; []  ; [ORIG 16-BIT INS]
TI ARM Assembler Unix v20.2.4 Fri Apr  2 00:57:47 2021

Copyright (c) 1996-2018 Texas Instruments Incorporated
inv_mpu.asm                                                          PAGE   50

    2696                            ; BRANCHCC OCCURS {||$C$L42||}   ; [] |404| 
    2697                    ;* --------------------------------------------------------------------------*
    2698                            .dwpsn  file "/home/merdak/Apps/ti/ccs1020/ccs/tools/compiler/ti-cgt-arm_20.2.4.LTS/include/_d
    2699                    ;----------------------------------------------------------------------
    2700                    ; 406 | if (__FLOAT_FRAC_PART_IS_ZERO(f))                                      
    2701                    ;----------------------------------------------------------------------
    2702 0000002c 9800              LDR       A1, [SP, #0]          ; [DPU_V7M3_PIPE] |406|  ; [ORIG 16-BIT INS]
    2703 0000002e 50DFF36F          BFC       A1, #23, #9           ; [DPU_V7M3_PIPE] |406|  ; [KEEP 32-BIT INS]
    2704 00000032 B908              CBNZ      A1, ||$C$L41||        ; []  ; [ORIG 16-BIT INS]
    2705                            ; BRANCHCC OCCURS {||$C$L41||}   ; [] |406| 
    2706                    ;* --------------------------------------------------------------------------*
    2707                            .dwpsn  file "/home/merdak/Apps/ti/ccs1020/ccs/tools/compiler/ti-cgt-arm_20.2.4.LTS/include/_d
    2708                    ;----------------------------------------------------------------------
    2709                    ; 407 | return __FP_ZERO;                                                      
    2710                    ;----------------------------------------------------------------------
    2711 00000034 2000              MOVS      A1, #0                ; [DPU_V7M3_PIPE] |407|  ; [ORIG 16-BIT INS]
    2712 00000036 E004              B         ||$C$L43||            ; [DPU_V7M3_PIPE] |407|  ; [ORIG 16-BIT INS]
    2713                            ; BRANCH OCCURS {||$C$L43||}     ; [] |407| 
    2714                    ;* --------------------------------------------------------------------------*
    2715 00000038           ||$C$L41||:    
    2716                            .dwpsn  file "/home/merdak/Apps/ti/ccs1020/ccs/tools/compiler/ti-cgt-arm_20.2.4.LTS/include/_d
    2717                    ;----------------------------------------------------------------------
    2718                    ; 408 | else return __FP_SUBNORMAL;                                            
    2719                    ;----------------------------------------------------------------------
    2720 00000038 0001F06F          MVN       A1, #1                ; [DPU_V7M3_PIPE] |408|  ; [KEEP 32-BIT INS]
    2721 0000003c E001              B         ||$C$L43||            ; [DPU_V7M3_PIPE] |408|  ; [ORIG 16-BIT INS]
    2722                            ; BRANCH OCCURS {||$C$L43||}     ; [] |408| 
    2723                    ;* --------------------------------------------------------------------------*
    2724 0000003e           ||$C$L42||:    
    2725                            .dwpsn  file "/home/merdak/Apps/ti/ccs1020/ccs/tools/compiler/ti-cgt-arm_20.2.4.LTS/include/_d
    2726                    ;----------------------------------------------------------------------
    2727                    ; 410 | return __FP_NORMAL;                                                    
    2728                    ;----------------------------------------------------------------------
    2729 0000003e 30FFF04F          MOV       A1, #-1               ; [DPU_V7M3_PIPE] |410|  ; [KEEP 32-BIT INS]
    2730                    ;* --------------------------------------------------------------------------*
    2731 00000042           ||$C$L43||:    
    2732                            .dwpsn  file "/home/merdak/Apps/ti/ccs1020/ccs/tools/compiler/ti-cgt-arm_20.2.4.LTS/include/_d
    2733 00000042 B002              ADD       SP, SP, #8            ; [DPU_V7M3_PIPE]  ; [ORIG 16-BIT INS]
    2734                            .dwcfi  cfa_offset, 0
    2735                    $C$DW$89        .dwtag  DW_TAG_TI_branch
    2736                            .dwattr $C$DW$89, DW_AT_low_pc(0x00)
    2737                            .dwattr $C$DW$89, DW_AT_TI_return
    2738                    
    2739 00000044 4770              BX        LR                    ; [DPU_V7M3_PIPE]  ; [ORIG 16-BIT INS]
    2740                            ; BRANCH OCCURS                  ; [] 
    2741                            .dwattr $C$DW$86, DW_AT_TI_end_file("/home/merdak/Apps/ti/ccs1020/ccs/tools/compiler/ti-cgt-ar
    2742                            .dwattr $C$DW$86, DW_AT_TI_end_line(0x19b)
    2743                            .dwattr $C$DW$86, DW_AT_TI_end_column(0x01)
    2744                            .dwendentry
    2745                            .dwendtag $C$DW$86
    2746                    
    2747 00000000                   .sect   ".text:__fpclassify"
    2748                            .clink
    2749                            .thumbfunc __fpclassify
    2750 00000000                   .thumb
TI ARM Assembler Unix v20.2.4 Fri Apr  2 00:57:47 2021

Copyright (c) 1996-2018 Texas Instruments Incorporated
inv_mpu.asm                                                          PAGE   51

    2751                            .global __fpclassify
    2752                    
    2753                    $C$DW$90        .dwtag  DW_TAG_subprogram
    2754                            .dwattr $C$DW$90, DW_AT_name("__fpclassify")
    2755                            .dwattr $C$DW$90, DW_AT_low_pc(__fpclassify)
    2756                            .dwattr $C$DW$90, DW_AT_high_pc(0x00)
    2757                            .dwattr $C$DW$90, DW_AT_TI_symbol_name("__fpclassify")
    2758                            .dwattr $C$DW$90, DW_AT_external
    2759                            .dwattr $C$DW$90, DW_AT_type(*$C$DW$T$10)
    2760                            .dwattr $C$DW$90, DW_AT_TI_begin_file("/home/merdak/Apps/ti/ccs1020/ccs/tools/compiler/ti-cgt-
    2761                            .dwattr $C$DW$90, DW_AT_TI_begin_line(0x19d)
    2762                            .dwattr $C$DW$90, DW_AT_TI_begin_column(0x25)
    2763                            .dwattr $C$DW$90, DW_AT_decl_file("/home/merdak/Apps/ti/ccs1020/ccs/tools/compiler/ti-cgt-arm_
    2764                            .dwattr $C$DW$90, DW_AT_decl_line(0x19d)
    2765                            .dwattr $C$DW$90, DW_AT_decl_column(0x25)
    2766                            .dwattr $C$DW$90, DW_AT_TI_max_frame_size(0x10)
    2767                            .dwpsn  file "/home/merdak/Apps/ti/ccs1020/ccs/tools/compiler/ti-cgt-arm_20.2.4.LTS/include/_d
    2768                    
    2769                            .dwfde $C$DW$CIE, __fpclassify
    2770                    $C$DW$91        .dwtag  DW_TAG_formal_parameter
    2771                            .dwattr $C$DW$91, DW_AT_name("d")
    2772                            .dwattr $C$DW$91, DW_AT_TI_symbol_name("d")
    2773                            .dwattr $C$DW$91, DW_AT_type(*$C$DW$T$17)
    2774                            .dwattr $C$DW$91, DW_AT_location[DW_OP_reg0]
    2775                    
    2776                    ;----------------------------------------------------------------------
    2777                    ; 413 | _CODE_ACCESS _INLINE_DEFINITION int __fpclassify (double d)            
    2778                    ;----------------------------------------------------------------------
    2779                    
    2780                    ;*****************************************************************************
    2781                    ;* FUNCTION NAME: __fpclassify                                               *
    2782                    ;*                                                                           *
    2783                    ;*   Regs Modified     : A1,A2,A3,A4,V1,SP,SR                                *
    2784                    ;*   Regs Used         : A1,A2,A3,A4,V1,SP,LR,SR                             *
    2785                    ;*   Local Frame Size  : 0 Args + 8 Auto + 8 Save = 16 byte                  *
    2786                    ;*****************************************************************************
    2787 00000000           __fpclassify:
    2788                    ;* --------------------------------------------------------------------------*
    2789                            .dwcfi  cfa_offset, 0
    2790 00000000 B51C              PUSH      {A3, A4, V1, LR}      ; [DPU_V7M3_PIPE]  ; [ORIG 16-BIT INS]
    2791                            .dwcfi  cfa_offset, 16
    2792                            .dwcfi  save_reg_to_mem, 14, -4
    2793                            .dwcfi  save_reg_to_mem, 4, -8
    2794                            .dwcfi  save_reg_to_mem, 3, -12
    2795                            .dwcfi  save_reg_to_mem, 2, -16
    2796                    $C$DW$92        .dwtag  DW_TAG_variable
    2797                            .dwattr $C$DW$92, DW_AT_name("d")
    2798                            .dwattr $C$DW$92, DW_AT_TI_symbol_name("d")
    2799                            .dwattr $C$DW$92, DW_AT_type(*$C$DW$T$17)
    2800                            .dwattr $C$DW$92, DW_AT_location[DW_OP_breg13 0]
    2801                    
    2802 00000002 0003E88D          STMIA     SP, {A1,A2}           ; [DPU_V7M3_PIPE] |414|  ; [KEEP 32-BIT INS]
    2803                            .dwpsn  file "/home/merdak/Apps/ti/ccs1020/ccs/tools/compiler/ti-cgt-arm_20.2.4.LTS/include/_d
    2804                    ;----------------------------------------------------------------------
    2805                    ; 415 | if (__DOUBLE_BIASED_EXP_IS_MAX(d))                                     
TI ARM Assembler Unix v20.2.4 Fri Apr  2 00:57:47 2021

Copyright (c) 1996-2018 Texas Instruments Incorporated
inv_mpu.asm                                                          PAGE   52

    2806                    ;----------------------------------------------------------------------
    2807 00000006 0006E89D          LDMIA     SP, {A2,A3}           ; [DPU_V7M3_PIPE] |415|  ; [KEEP 32-BIT INS]
    2808 0000000a 4610              MOV       A1, A3                ; [DPU_V7M3_PIPE] |415|  ; [ORIG 16-BIT INS]
    2809 0000000c 0001              LSLS      A2, A1, #0            ; [DPU_V7M3_PIPE] |415|  ; [ORIG 16-BIT INS]
    2810 0000000e 2000              MOVS      A1, #0                ; [DPU_V7M3_PIPE] |415|  ; [ORIG 16-BIT INS]
    2811 00000010 4308              ORRS      A1, A1, A2            ; [DPU_V7M3_PIPE] |415|  ; [ORIG 16-BIT INS]
    2812 00000012 0C01              LSRS      A2, A1, #16           ; [DPU_V7M3_PIPE] |415|  ; [ORIG 16-BIT INS]
    2813 00000014 70F0F647          MOV       A1, #32752            ; [DPU_V7M3_PIPE] |415|  ; [KEEP 32-BIT INS]
    2814 00000018 4008              ANDS      A1, A1, A2            ; [DPU_V7M3_PIPE] |415|  ; [ORIG 16-BIT INS]
    2815 0000001a 71F0F647          MOV       A2, #32752            ; [DPU_V7M3_PIPE] |415|  ; [KEEP 32-BIT INS]
    2816 0000001e 4281              CMP       A2, A1                ; [DPU_V7M3_PIPE] |415|  ; [ORIG 16-BIT INS]
    2817 00000020 D115              BNE       ||$C$L46||            ; [DPU_V7M3_PIPE] |415|  ; [ORIG 16-BIT INS]
    2818                            ; BRANCHCC OCCURS {||$C$L46||}   ; [] |415| 
    2819                    ;* --------------------------------------------------------------------------*
    2820                            .dwpsn  file "/home/merdak/Apps/ti/ccs1020/ccs/tools/compiler/ti-cgt-arm_20.2.4.LTS/include/_d
    2821                    ;----------------------------------------------------------------------
    2822                    ; 417 | if (__DOUBLE_FRAC_PART_IS_ZERO(d))                                     
    2823                    ;----------------------------------------------------------------------
    2824 00000022 0006E89D          LDMIA     SP, {A2,A3}           ; [DPU_V7M3_PIPE] |417|  ; [KEEP 32-BIT INS]
    2825 00000026 4610              MOV       A1, A3                ; [DPU_V7M3_PIPE] |417|  ; [ORIG 16-BIT INS]
    2826 00000028 000CE89D          LDMIA     SP, {A3,A4}           ; [DPU_V7M3_PIPE] |417|  ; [KEEP 32-BIT INS]
    2827 0000002c 2100              MOVS      A2, #0                ; [DPU_V7M3_PIPE] |417|  ; [ORIG 16-BIT INS]
    2828 0000002e 0000              LSLS      A1, A1, #0            ; [DPU_V7M3_PIPE] |417|  ; [ORIG 16-BIT INS]
    2829 00000030 4301              ORRS      A2, A2, A1            ; [DPU_V7M3_PIPE] |417|  ; [ORIG 16-BIT INS]
    2830 00000032 481C              LDR       A1, $C$CON5           ; [DPU_V7M3_PIPE] |417|  ; [ORIG 16-BIT INS]
    2831 00000034 2400              MOVS      V1, #0                ; [DPU_V7M3_PIPE] |417|  ; [ORIG 16-BIT INS]
    2832 00000036 33FFF04F          MOV       A4, #-1               ; [DPU_V7M3_PIPE] |417|  ; [KEEP 32-BIT INS]
    2833 0000003a 4322              ORRS      A3, A3, V1            ; [DPU_V7M3_PIPE] |417|  ; [ORIG 16-BIT INS]
    2834 0000003c 4013              ANDS      A4, A4, A3            ; [DPU_V7M3_PIPE] |417|  ; [ORIG 16-BIT INS]
    2835 0000003e 4008              ANDS      A1, A1, A2            ; [DPU_V7M3_PIPE] |417|  ; [ORIG 16-BIT INS]
    2836 00000040 D100              BNE       ||$C$L44||            ; [DPU_V7M3_PIPE] |417|  ; [ORIG 16-BIT INS]
    2837                            ; BRANCHCC OCCURS {||$C$L44||}   ; [] |417| 
    2838                    ;* --------------------------------------------------------------------------*
    2839 00000042 2B00              CMP       A4, #0                ; [DPU_V7M3_PIPE] |417|  ; [ORIG 16-BIT INS]
    2840                    ;* --------------------------------------------------------------------------*
    2841 00000044           ||$C$L44||:    
    2842 00000044 D101              BNE       ||$C$L45||            ; [DPU_V7M3_PIPE] |417|  ; [ORIG 16-BIT INS]
    2843                            ; BRANCHCC OCCURS {||$C$L45||}   ; [] |417| 
    2844                    ;* --------------------------------------------------------------------------*
    2845                            .dwpsn  file "/home/merdak/Apps/ti/ccs1020/ccs/tools/compiler/ti-cgt-arm_20.2.4.LTS/include/_d
    2846                    ;----------------------------------------------------------------------
    2847                    ; 418 | return __FP_INFINITE;                                                  
    2848                    ;----------------------------------------------------------------------
    2849 00000046 2001              MOVS      A1, #1                ; [DPU_V7M3_PIPE] |418|  ; [ORIG 16-BIT INS]
    2850 00000048 E02B              B         ||$C$L51||            ; [DPU_V7M3_PIPE] |418|  ; [ORIG 16-BIT INS]
    2851                            ; BRANCH OCCURS {||$C$L51||}     ; [] |418| 
    2852                    ;* --------------------------------------------------------------------------*
    2853 0000004a           ||$C$L45||:    
    2854                            .dwpsn  file "/home/merdak/Apps/ti/ccs1020/ccs/tools/compiler/ti-cgt-arm_20.2.4.LTS/include/_d
    2855                    ;----------------------------------------------------------------------
    2856                    ; 419 | else return __FP_NAN;                                                  
    2857                    ;----------------------------------------------------------------------
    2858 0000004a 2002              MOVS      A1, #2                ; [DPU_V7M3_PIPE] |419|  ; [ORIG 16-BIT INS]
    2859 0000004c E029              B         ||$C$L51||            ; [DPU_V7M3_PIPE] |419|  ; [ORIG 16-BIT INS]
    2860                            ; BRANCH OCCURS {||$C$L51||}     ; [] |419| 
TI ARM Assembler Unix v20.2.4 Fri Apr  2 00:57:47 2021

Copyright (c) 1996-2018 Texas Instruments Incorporated
inv_mpu.asm                                                          PAGE   53

    2861                    ;* --------------------------------------------------------------------------*
    2862 0000004e           ||$C$L46||:    
    2863                            .dwpsn  file "/home/merdak/Apps/ti/ccs1020/ccs/tools/compiler/ti-cgt-arm_20.2.4.LTS/include/_d
    2864                    ;----------------------------------------------------------------------
    2865                    ; 421 | if (__DOUBLE_BIASED_EXP_IS_ZERO(d))                                    
    2866                    ;----------------------------------------------------------------------
    2867 0000004e 0006E89D          LDMIA     SP, {A2,A3}           ; [DPU_V7M3_PIPE] |421|  ; [KEEP 32-BIT INS]
    2868 00000052 4610              MOV       A1, A3                ; [DPU_V7M3_PIPE] |421|  ; [ORIG 16-BIT INS]
    2869 00000054 0001              LSLS      A2, A1, #0            ; [DPU_V7M3_PIPE] |421|  ; [ORIG 16-BIT INS]
    2870 00000056 2000              MOVS      A1, #0                ; [DPU_V7M3_PIPE] |421|  ; [ORIG 16-BIT INS]
    2871 00000058 2200              MOVS      A3, #0                ; [DPU_V7M3_PIPE] |421|  ; [ORIG 16-BIT INS]
    2872 0000005a 4308              ORRS      A1, A1, A2            ; [DPU_V7M3_PIPE] |421|  ; [ORIG 16-BIT INS]
    2873 0000005c 0D03              LSRS      A4, A1, #20           ; [DPU_V7M3_PIPE] |421|  ; [ORIG 16-BIT INS]
    2874 0000005e 70FFF240          MOV       A1, #2047             ; [DPU_V7M3_PIPE] |421|  ; [KEEP 32-BIT INS]
    2875 00000062 4601              MOV       A2, A1                ; [DPU_V7M3_PIPE] |421|  ; [ORIG 16-BIT INS]
    2876 00000064 17C0              ASRS      A1, A1, #31           ; [DPU_V7M3_PIPE] |421|  ; [ORIG 16-BIT INS]
    2877 00000066 4019              ANDS      A2, A2, A4            ; [DPU_V7M3_PIPE] |421|  ; [ORIG 16-BIT INS]
    2878 00000068 4010              ANDS      A1, A1, A3            ; [DPU_V7M3_PIPE] |421|  ; [ORIG 16-BIT INS]
    2879 0000006a D100              BNE       ||$C$L47||            ; [DPU_V7M3_PIPE] |421|  ; [ORIG 16-BIT INS]
    2880                            ; BRANCHCC OCCURS {||$C$L47||}   ; [] |421| 
    2881                    ;* --------------------------------------------------------------------------*
    2882 0000006c 2900              CMP       A2, #0                ; [DPU_V7M3_PIPE] |421|  ; [ORIG 16-BIT INS]
    2883                    ;* --------------------------------------------------------------------------*
    2884 0000006e           ||$C$L47||:    
    2885 0000006e D116              BNE       ||$C$L50||            ; [DPU_V7M3_PIPE] |421|  ; [ORIG 16-BIT INS]
    2886                            ; BRANCHCC OCCURS {||$C$L50||}   ; [] |421| 
    2887                    ;* --------------------------------------------------------------------------*
    2888                            .dwpsn  file "/home/merdak/Apps/ti/ccs1020/ccs/tools/compiler/ti-cgt-arm_20.2.4.LTS/include/_d
    2889                    ;----------------------------------------------------------------------
    2890                    ; 423 | if (__DOUBLE_FRAC_PART_IS_ZERO(d))                                     
    2891                    ;----------------------------------------------------------------------
    2892 00000070 0006E89D          LDMIA     SP, {A2,A3}           ; [DPU_V7M3_PIPE] |423|  ; [KEEP 32-BIT INS]
    2893 00000074 4610              MOV       A1, A3                ; [DPU_V7M3_PIPE] |423|  ; [ORIG 16-BIT INS]
    2894 00000076 000CE89D          LDMIA     SP, {A3,A4}           ; [DPU_V7M3_PIPE] |423|  ; [KEEP 32-BIT INS]
    2895 0000007a 2100              MOVS      A2, #0                ; [DPU_V7M3_PIPE] |423|  ; [ORIG 16-BIT INS]
    2896 0000007c 0000              LSLS      A1, A1, #0            ; [DPU_V7M3_PIPE] |423|  ; [ORIG 16-BIT INS]
    2897 0000007e 4301              ORRS      A2, A2, A1            ; [DPU_V7M3_PIPE] |423|  ; [ORIG 16-BIT INS]
    2898 00000080 4808              LDR       A1, $C$CON5           ; [DPU_V7M3_PIPE] |423|  ; [ORIG 16-BIT INS]
    2899 00000082 2400              MOVS      V1, #0                ; [DPU_V7M3_PIPE] |423|  ; [ORIG 16-BIT INS]
    2900 00000084 33FFF04F          MOV       A4, #-1               ; [DPU_V7M3_PIPE] |423|  ; [KEEP 32-BIT INS]
    2901 00000088 4322              ORRS      A3, A3, V1            ; [DPU_V7M3_PIPE] |423|  ; [ORIG 16-BIT INS]
    2902 0000008a 4013              ANDS      A4, A4, A3            ; [DPU_V7M3_PIPE] |423|  ; [ORIG 16-BIT INS]
    2903 0000008c 4008              ANDS      A1, A1, A2            ; [DPU_V7M3_PIPE] |423|  ; [ORIG 16-BIT INS]
    2904 0000008e D100              BNE       ||$C$L48||            ; [DPU_V7M3_PIPE] |423|  ; [ORIG 16-BIT INS]
    2905                            ; BRANCHCC OCCURS {||$C$L48||}   ; [] |423| 
    2906                    ;* --------------------------------------------------------------------------*
    2907 00000090 2B00              CMP       A4, #0                ; [DPU_V7M3_PIPE] |423|  ; [ORIG 16-BIT INS]
    2908                    ;* --------------------------------------------------------------------------*
    2909 00000092           ||$C$L48||:    
    2910 00000092 D101              BNE       ||$C$L49||            ; [DPU_V7M3_PIPE] |423|  ; [ORIG 16-BIT INS]
    2911                            ; BRANCHCC OCCURS {||$C$L49||}   ; [] |423| 
    2912                    ;* --------------------------------------------------------------------------*
    2913                            .dwpsn  file "/home/merdak/Apps/ti/ccs1020/ccs/tools/compiler/ti-cgt-arm_20.2.4.LTS/include/_d
    2914                    ;----------------------------------------------------------------------
    2915                    ; 424 | return __FP_ZERO;                                                      
TI ARM Assembler Unix v20.2.4 Fri Apr  2 00:57:47 2021

Copyright (c) 1996-2018 Texas Instruments Incorporated
inv_mpu.asm                                                          PAGE   54

    2916                    ;----------------------------------------------------------------------
    2917 00000094 2000              MOVS      A1, #0                ; [DPU_V7M3_PIPE] |424|  ; [ORIG 16-BIT INS]
    2918 00000096 E004              B         ||$C$L51||            ; [DPU_V7M3_PIPE] |424|  ; [ORIG 16-BIT INS]
    2919                            ; BRANCH OCCURS {||$C$L51||}     ; [] |424| 
    2920                    ;* --------------------------------------------------------------------------*
    2921 00000098           ||$C$L49||:    
    2922                            .dwpsn  file "/home/merdak/Apps/ti/ccs1020/ccs/tools/compiler/ti-cgt-arm_20.2.4.LTS/include/_d
    2923                    ;----------------------------------------------------------------------
    2924                    ; 425 | else return __FP_SUBNORMAL;                                            
    2925                    ;----------------------------------------------------------------------
    2926 00000098 0001F06F          MVN       A1, #1                ; [DPU_V7M3_PIPE] |425|  ; [KEEP 32-BIT INS]
    2927 0000009c E001              B         ||$C$L51||            ; [DPU_V7M3_PIPE] |425|  ; [ORIG 16-BIT INS]
    2928                            ; BRANCH OCCURS {||$C$L51||}     ; [] |425| 
    2929                    ;* --------------------------------------------------------------------------*
    2930 0000009e           ||$C$L50||:    
    2931                            .dwpsn  file "/home/merdak/Apps/ti/ccs1020/ccs/tools/compiler/ti-cgt-arm_20.2.4.LTS/include/_d
    2932                    ;----------------------------------------------------------------------
    2933                    ; 427 | return __FP_NORMAL;                                                    
    2934                    ;----------------------------------------------------------------------
    2935 0000009e 30FFF04F          MOV       A1, #-1               ; [DPU_V7M3_PIPE] |427|  ; [KEEP 32-BIT INS]
    2936                    ;* --------------------------------------------------------------------------*
    2937 000000a2           ||$C$L51||:    
    2938                            .dwpsn  file "/home/merdak/Apps/ti/ccs1020/ccs/tools/compiler/ti-cgt-arm_20.2.4.LTS/include/_d
