TI ARM Assembler Unix v20.2.4 Fri Apr  2 01:01:44 2021

Copyright (c) 1996-2018 Texas Instruments Incorporated
MadgwickAHRS.asm                                                     PAGE    1

       1                    ;******************************************************************************
       2                    ;* TI ARM G3 C/C++ Codegen                                          Unix v20.2.4.LTS *
       3                    ;* Date/Time created: Fri Apr  2 01:01:43 2021                                *
       4                    ;******************************************************************************
       5                            .compiler_opts --abi=eabi --arm_vmrs_si_workaround=off --code_state=16 --diag_wrap=off --embed
       6 00000000                   .thumb
       7                    
       8                    $C$DW$CU        .dwtag  DW_TAG_compile_unit
       9                            .dwattr $C$DW$CU, DW_AT_name("../App/MadgwickAHRS.c")
      10                            .dwattr $C$DW$CU, DW_AT_producer("TI TI ARM G3 C/C++ Codegen Unix v20.2.4.LTS Copyright (c) 19
      11                            .dwattr $C$DW$CU, DW_AT_TI_version(0x01)
      12                            .dwattr $C$DW$CU, DW_AT_comp_dir("/home/merdak/KOLTEST/TIV10/Quad/Debug")
      13                            .global beta
      14 00000000                   .data
      15                            .align  4
      16                            .elfsym beta,SYM_SIZE(4)
      17 00000000           beta:
      18 00000000 3DCCCCCD          .word   03dcccccdh      ; beta @ 0 (0.10000000149011611938)
      19                    
      20                    $C$DW$1 .dwtag  DW_TAG_variable
      21                            .dwattr $C$DW$1, DW_AT_name("beta")
      22                            .dwattr $C$DW$1, DW_AT_TI_symbol_name("beta")
      23                            .dwattr $C$DW$1, DW_AT_location[DW_OP_addr beta]
      24                            .dwattr $C$DW$1, DW_AT_type(*$C$DW$T$267)
      25                            .dwattr $C$DW$1, DW_AT_external
      26                            .dwattr $C$DW$1, DW_AT_decl_file("../App/MadgwickAHRS.c")
      27                            .dwattr $C$DW$1, DW_AT_decl_line(0x22)
      28                            .dwattr $C$DW$1, DW_AT_decl_column(0x10)
      29                    
      30                            .global ||q0||
      31 00000004                   .data
      32                            .align  4
      33                            .elfsym ||q0||,SYM_SIZE(4)
      34 00000004           ||q0||:
      35 00000004 3F800000          .word   03f800000h      ; q0 @ 0 (1)
      36                    
      37                    $C$DW$2 .dwtag  DW_TAG_variable
      38                            .dwattr $C$DW$2, DW_AT_name("q0")
      39                            .dwattr $C$DW$2, DW_AT_TI_symbol_name("q0")
      40                            .dwattr $C$DW$2, DW_AT_location[DW_OP_addr ||q0||]
      41                            .dwattr $C$DW$2, DW_AT_type(*$C$DW$T$267)
      42                            .dwattr $C$DW$2, DW_AT_external
      43                            .dwattr $C$DW$2, DW_AT_decl_file("../App/MadgwickAHRS.c")
      44                            .dwattr $C$DW$2, DW_AT_decl_line(0x23)
      45                            .dwattr $C$DW$2, DW_AT_decl_column(0x10)
      46                    
      47                            .global ||q1||
      48 00000008                   .data
      49                            .align  4
      50                            .elfsym ||q1||,SYM_SIZE(4)
      51 00000008           ||q1||:
      52 00000008 00000000          .word   000000000h      ; q1 @ 0 (0)
      53                    
      54                    $C$DW$3 .dwtag  DW_TAG_variable
      55                            .dwattr $C$DW$3, DW_AT_name("q1")
TI ARM Assembler Unix v20.2.4 Fri Apr  2 01:01:44 2021

Copyright (c) 1996-2018 Texas Instruments Incorporated
MadgwickAHRS.asm                                                     PAGE    2

      56                            .dwattr $C$DW$3, DW_AT_TI_symbol_name("q1")
      57                            .dwattr $C$DW$3, DW_AT_location[DW_OP_addr ||q1||]
      58                            .dwattr $C$DW$3, DW_AT_type(*$C$DW$T$267)
      59                            .dwattr $C$DW$3, DW_AT_external
      60                            .dwattr $C$DW$3, DW_AT_decl_file("../App/MadgwickAHRS.c")
      61                            .dwattr $C$DW$3, DW_AT_decl_line(0x23)
      62                            .dwattr $C$DW$3, DW_AT_decl_column(0x1b)
      63                    
      64                            .global ||q2||
      65 0000000c                   .data
      66                            .align  4
      67                            .elfsym ||q2||,SYM_SIZE(4)
      68 0000000c           ||q2||:
      69 0000000c 00000000          .word   000000000h      ; q2 @ 0 (0)
      70                    
      71                    $C$DW$4 .dwtag  DW_TAG_variable
      72                            .dwattr $C$DW$4, DW_AT_name("q2")
      73                            .dwattr $C$DW$4, DW_AT_TI_symbol_name("q2")
      74                            .dwattr $C$DW$4, DW_AT_location[DW_OP_addr ||q2||]
      75                            .dwattr $C$DW$4, DW_AT_type(*$C$DW$T$267)
      76                            .dwattr $C$DW$4, DW_AT_external
      77                            .dwattr $C$DW$4, DW_AT_decl_file("../App/MadgwickAHRS.c")
      78                            .dwattr $C$DW$4, DW_AT_decl_line(0x23)
      79                            .dwattr $C$DW$4, DW_AT_decl_column(0x26)
      80                    
      81                            .global ||q3||
      82 00000010                   .data
      83                            .align  4
      84                            .elfsym ||q3||,SYM_SIZE(4)
      85 00000010           ||q3||:
      86 00000010 00000000          .word   000000000h      ; q3 @ 0 (0)
      87                    
      88                    $C$DW$5 .dwtag  DW_TAG_variable
      89                            .dwattr $C$DW$5, DW_AT_name("q3")
      90                            .dwattr $C$DW$5, DW_AT_TI_symbol_name("q3")
      91                            .dwattr $C$DW$5, DW_AT_location[DW_OP_addr ||q3||]
      92                            .dwattr $C$DW$5, DW_AT_type(*$C$DW$T$267)
      93                            .dwattr $C$DW$5, DW_AT_external
      94                            .dwattr $C$DW$5, DW_AT_decl_file("../App/MadgwickAHRS.c")
      95                            .dwattr $C$DW$5, DW_AT_decl_line(0x23)
      96                            .dwattr $C$DW$5, DW_AT_decl_column(0x31)
      97                    
      98                    
      99                    $C$DW$6 .dwtag  DW_TAG_subprogram
     100                            .dwattr $C$DW$6, DW_AT_name("sqrt")
     101                            .dwattr $C$DW$6, DW_AT_TI_symbol_name("sqrt")
     102                            .dwattr $C$DW$6, DW_AT_type(*$C$DW$T$17)
     103                            .dwattr $C$DW$6, DW_AT_declaration
     104                            .dwattr $C$DW$6, DW_AT_external
     105                            .dwattr $C$DW$6, DW_AT_decl_file("/home/merdak/Apps/ti/ccs1020/ccs/tools/compiler/ti-cgt-arm_2
     106                            .dwattr $C$DW$6, DW_AT_decl_line(0x1a4)
     107                            .dwattr $C$DW$6, DW_AT_decl_column(0x1a)
     108                    $C$DW$7 .dwtag  DW_TAG_formal_parameter
     109                            .dwattr $C$DW$7, DW_AT_type(*$C$DW$T$17)
     110                    
TI ARM Assembler Unix v20.2.4 Fri Apr  2 01:01:44 2021

Copyright (c) 1996-2018 Texas Instruments Incorporated
MadgwickAHRS.asm                                                     PAGE    3

     111                            .dwendtag $C$DW$6
     112                    
     113                    
     114                    $C$DW$8 .dwtag  DW_TAG_subprogram
     115                            .dwattr $C$DW$8, DW_AT_name("Kro_Run")
     116                            .dwattr $C$DW$8, DW_AT_TI_symbol_name("Kro_Run")
     117                            .dwattr $C$DW$8, DW_AT_declaration
     118                            .dwattr $C$DW$8, DW_AT_external
     119                            .dwattr $C$DW$8, DW_AT_decl_file("../App/kro.h")
     120                            .dwattr $C$DW$8, DW_AT_decl_line(0x10)
     121                            .dwattr $C$DW$8, DW_AT_decl_column(0x06)
     122                    $C$DW$9 .dwtag  DW_TAG_formal_parameter
     123                            .dwattr $C$DW$9, DW_AT_type(*$C$DW$T$131)
     124                    
     125                            .dwendtag $C$DW$8
     126                    
     127                    
     128                    $C$DW$10        .dwtag  DW_TAG_subprogram
     129                            .dwattr $C$DW$10, DW_AT_name("Kro_Stp")
     130                            .dwattr $C$DW$10, DW_AT_TI_symbol_name("Kro_Stp")
     131                            .dwattr $C$DW$10, DW_AT_declaration
     132                            .dwattr $C$DW$10, DW_AT_external
     133                            .dwattr $C$DW$10, DW_AT_decl_file("../App/kro.h")
     134                            .dwattr $C$DW$10, DW_AT_decl_line(0x11)
     135                            .dwattr $C$DW$10, DW_AT_decl_column(0x06)
     136                    $C$DW$11        .dwtag  DW_TAG_formal_parameter
     137                            .dwattr $C$DW$11, DW_AT_type(*$C$DW$T$131)
     138                    
     139                            .dwendtag $C$DW$10
     140                    
     141                    ;       /home/merdak/Apps/ti/ccs1020/ccs/tools/compiler/ti-cgt-arm_20.2.4.LTS/bin/armacpia -@/tmp/TI1E
     142 00000000                   .sect   ".text:__isfinite"
     143                            .clink
     144                            .thumbfunc __isfinite
     145 00000000                   .thumb
     146                            .global __isfinite
     147                    
     148                    $C$DW$12        .dwtag  DW_TAG_subprogram
     149                            .dwattr $C$DW$12, DW_AT_name("__isfinite")
     150                            .dwattr $C$DW$12, DW_AT_low_pc(__isfinite)
     151                            .dwattr $C$DW$12, DW_AT_high_pc(0x00)
     152                            .dwattr $C$DW$12, DW_AT_TI_symbol_name("__isfinite")
     153                            .dwattr $C$DW$12, DW_AT_external
     154                            .dwattr $C$DW$12, DW_AT_type(*$C$DW$T$10)
     155                            .dwattr $C$DW$12, DW_AT_TI_begin_file("/home/merdak/Apps/ti/ccs1020/ccs/tools/compiler/ti-cgt-
     156                            .dwattr $C$DW$12, DW_AT_TI_begin_line(0x14e)
     157                            .dwattr $C$DW$12, DW_AT_TI_begin_column(0x25)
     158                            .dwattr $C$DW$12, DW_AT_decl_file("/home/merdak/Apps/ti/ccs1020/ccs/tools/compiler/ti-cgt-arm_
     159                            .dwattr $C$DW$12, DW_AT_decl_line(0x14e)
     160                            .dwattr $C$DW$12, DW_AT_decl_column(0x25)
     161                            .dwattr $C$DW$12, DW_AT_TI_max_frame_size(0x10)
     162                            .dwpsn  file "/home/merdak/Apps/ti/ccs1020/ccs/tools/compiler/ti-cgt-arm_20.2.4.LTS/include/_d
     163                    
     164                            .dwfde $C$DW$CIE, __isfinite
     165                    $C$DW$13        .dwtag  DW_TAG_formal_parameter
TI ARM Assembler Unix v20.2.4 Fri Apr  2 01:01:44 2021

Copyright (c) 1996-2018 Texas Instruments Incorporated
MadgwickAHRS.asm                                                     PAGE    4

     166                            .dwattr $C$DW$13, DW_AT_name("d")
     167                            .dwattr $C$DW$13, DW_AT_TI_symbol_name("d")
     168                            .dwattr $C$DW$13, DW_AT_type(*$C$DW$T$17)
     169                            .dwattr $C$DW$13, DW_AT_location[DW_OP_reg0]
     170                    
     171                    ;----------------------------------------------------------------------
     172                    ; 334 | _CODE_ACCESS _INLINE_DEFINITION int __isfinite(double d)               
     173                    ;----------------------------------------------------------------------
     174                    
     175                    ;*****************************************************************************
     176                    ;* FUNCTION NAME: __isfinite                                                 *
     177                    ;*                                                                           *
     178                    ;*   Regs Modified     : A1,A2,A3,A4,V4,SP,SR                                *
     179                    ;*   Regs Used         : A1,A2,A3,A4,V4,SP,LR,SR                             *
     180                    ;*   Local Frame Size  : 0 Args + 8 Auto + 8 Save = 16 byte                  *
     181                    ;*****************************************************************************
     182 00000000           __isfinite:
     183                    ;* --------------------------------------------------------------------------*
     184                            .dwcfi  cfa_offset, 0
     185 00000000 B58C              PUSH      {A3, A4, V4, LR}      ; [DPU_V7M3_PIPE]  ; [ORIG 16-BIT INS]
     186                            .dwcfi  cfa_offset, 16
     187                            .dwcfi  save_reg_to_mem, 14, -4
     188                            .dwcfi  save_reg_to_mem, 7, -8
     189                            .dwcfi  save_reg_to_mem, 3, -12
     190                            .dwcfi  save_reg_to_mem, 2, -16
     191                    $C$DW$14        .dwtag  DW_TAG_variable
     192                            .dwattr $C$DW$14, DW_AT_name("d")
     193                            .dwattr $C$DW$14, DW_AT_TI_symbol_name("d")
     194                            .dwattr $C$DW$14, DW_AT_type(*$C$DW$T$17)
     195                            .dwattr $C$DW$14, DW_AT_location[DW_OP_breg13 0]
     196                    
     197                    ;----------------------------------------------------------------------
     198                    ; 335 | { return __DOUBLE_BIASED_EXP_IS_MAX(d) == 0; }                         
     199                    ;----------------------------------------------------------------------
     200 00000002 0003E88D          STMIA     SP, {A1,A2}           ; [DPU_V7M3_PIPE] |335|  ; [KEEP 32-BIT INS]
     201                            .dwpsn  file "/home/merdak/Apps/ti/ccs1020/ccs/tools/compiler/ti-cgt-arm_20.2.4.LTS/include/_d
     202 00000006 0006E89D          LDMIA     SP, {A2,A3}           ; [DPU_V7M3_PIPE] |335|  ; [KEEP 32-BIT INS]
     203 0000000a 2000              MOVS      A1, #0                ; [DPU_V7M3_PIPE] |335|  ; [ORIG 16-BIT INS]
     204 0000000c 2700              MOVS      V4, #0                ; [DPU_V7M3_PIPE] |335|  ; [ORIG 16-BIT INS]
     205 0000000e 4611              MOV       A2, A3                ; [DPU_V7M3_PIPE] |335|  ; [ORIG 16-BIT INS]
     206 00000010 000A              LSLS      A3, A2, #0            ; [DPU_V7M3_PIPE] |335|  ; [ORIG 16-BIT INS]
     207 00000012 2100              MOVS      A2, #0                ; [DPU_V7M3_PIPE] |335|  ; [ORIG 16-BIT INS]
     208 00000014 4311              ORRS      A2, A2, A3            ; [DPU_V7M3_PIPE] |335|  ; [ORIG 16-BIT INS]
     209 00000016 0C0A              LSRS      A3, A2, #16           ; [DPU_V7M3_PIPE] |335|  ; [ORIG 16-BIT INS]
     210 00000018 71F0F647          MOV       A2, #32752            ; [DPU_V7M3_PIPE] |335|  ; [KEEP 32-BIT INS]
     211 0000001c 4011              ANDS      A2, A2, A3            ; [DPU_V7M3_PIPE] |335|  ; [ORIG 16-BIT INS]
     212 0000001e 72F0F647          MOV       A3, #32752            ; [DPU_V7M3_PIPE] |335|  ; [KEEP 32-BIT INS]
     213 00000022 428A              CMP       A3, A2                ; [DPU_V7M3_PIPE] |335|  ; [ORIG 16-BIT INS]
     214 00000024 D100              BNE       ||$C$L1||             ; [DPU_V7M3_PIPE] |335|  ; [ORIG 16-BIT INS]
     215                            ; BRANCHCC OCCURS {||$C$L1||}    ; [] |335| 
     216                    ;* --------------------------------------------------------------------------*
     217 00000026 2701              MOVS      V4, #1                ; [DPU_V7M3_PIPE] |335|  ; [ORIG 16-BIT INS]
     218                    ;* --------------------------------------------------------------------------*
     219 00000028           ||$C$L1||:    
     220 00000028 B907              CBNZ      V4, ||$C$L2||         ; []  ; [ORIG 16-BIT INS]
TI ARM Assembler Unix v20.2.4 Fri Apr  2 01:01:44 2021

Copyright (c) 1996-2018 Texas Instruments Incorporated
MadgwickAHRS.asm                                                     PAGE    5

     221                            ; BRANCHCC OCCURS {||$C$L2||}    ; [] |335| 
     222                    ;* --------------------------------------------------------------------------*
     223 0000002a 2001              MOVS      A1, #1                ; [DPU_V7M3_PIPE] |335|  ; [ORIG 16-BIT INS]
     224                    ;* --------------------------------------------------------------------------*
     225 0000002c           ||$C$L2||:    
     226                            .dwpsn  file "/home/merdak/Apps/ti/ccs1020/ccs/tools/compiler/ti-cgt-arm_20.2.4.LTS/include/_d
     227                    $C$DW$15        .dwtag  DW_TAG_TI_branch
     228                            .dwattr $C$DW$15, DW_AT_low_pc(0x00)
     229                            .dwattr $C$DW$15, DW_AT_TI_return
     230                    
     231 0000002c BD8C              POP       {A3, A4, V4, PC}      ; [DPU_V7M3_PIPE]  ; [ORIG 16-BIT INS]
     232                            .dwcfi  cfa_offset, 0
     233                            .dwcfi  restore_reg, 7
     234                            .dwcfi  restore_reg, 3
     235                            .dwcfi  restore_reg, 2
     236                            ; BRANCH OCCURS                  ; [] 
     237                            .dwattr $C$DW$12, DW_AT_TI_end_file("/home/merdak/Apps/ti/ccs1020/ccs/tools/compiler/ti-cgt-ar
     238                            .dwattr $C$DW$12, DW_AT_TI_end_line(0x14f)
     239                            .dwattr $C$DW$12, DW_AT_TI_end_column(0x2e)
     240                            .dwendentry
     241                            .dwendtag $C$DW$12
     242                    
     243 00000000                   .sect   ".text:__isfinitef"
     244                            .clink
     245                            .thumbfunc __isfinitef
     246 00000000                   .thumb
     247                            .global __isfinitef
     248                    
     249                    $C$DW$16        .dwtag  DW_TAG_subprogram
     250                            .dwattr $C$DW$16, DW_AT_name("__isfinitef")
     251                            .dwattr $C$DW$16, DW_AT_low_pc(__isfinitef)
     252                            .dwattr $C$DW$16, DW_AT_high_pc(0x00)
     253                            .dwattr $C$DW$16, DW_AT_TI_symbol_name("__isfinitef")
     254                            .dwattr $C$DW$16, DW_AT_external
     255                            .dwattr $C$DW$16, DW_AT_type(*$C$DW$T$10)
     256                            .dwattr $C$DW$16, DW_AT_TI_begin_file("/home/merdak/Apps/ti/ccs1020/ccs/tools/compiler/ti-cgt-
     257                            .dwattr $C$DW$16, DW_AT_TI_begin_line(0x150)
     258                            .dwattr $C$DW$16, DW_AT_TI_begin_column(0x25)
     259                            .dwattr $C$DW$16, DW_AT_decl_file("/home/merdak/Apps/ti/ccs1020/ccs/tools/compiler/ti-cgt-arm_
     260                            .dwattr $C$DW$16, DW_AT_decl_line(0x150)
     261                            .dwattr $C$DW$16, DW_AT_decl_column(0x25)
     262                            .dwattr $C$DW$16, DW_AT_TI_max_frame_size(0x08)
     263                            .dwpsn  file "/home/merdak/Apps/ti/ccs1020/ccs/tools/compiler/ti-cgt-arm_20.2.4.LTS/include/_d
     264                    
     265                            .dwfde $C$DW$CIE, __isfinitef
     266                    $C$DW$17        .dwtag  DW_TAG_formal_parameter
     267                            .dwattr $C$DW$17, DW_AT_name("f")
     268                            .dwattr $C$DW$17, DW_AT_TI_symbol_name("f")
     269                            .dwattr $C$DW$17, DW_AT_type(*$C$DW$T$16)
     270                            .dwattr $C$DW$17, DW_AT_location[DW_OP_reg0]
     271                    
     272                    ;----------------------------------------------------------------------
     273                    ; 336 | _CODE_ACCESS _INLINE_DEFINITION int __isfinitef(float f)               
     274                    ;----------------------------------------------------------------------
     275                    
TI ARM Assembler Unix v20.2.4 Fri Apr  2 01:01:44 2021

Copyright (c) 1996-2018 Texas Instruments Incorporated
MadgwickAHRS.asm                                                     PAGE    6

     276                    ;*****************************************************************************
     277                    ;* FUNCTION NAME: __isfinitef                                                *
     278                    ;*                                                                           *
     279                    ;*   Regs Modified     : A1,A2,A3,SP,SR                                      *
     280                    ;*   Regs Used         : A1,A2,A3,SP,LR,SR                                   *
     281                    ;*   Local Frame Size  : 0 Args + 4 Auto + 0 Save = 4 byte                   *
     282                    ;*****************************************************************************
     283 00000000           __isfinitef:
     284                    ;* --------------------------------------------------------------------------*
     285                            .dwcfi  cfa_offset, 0
     286 00000000 0D08F1AD          SUB       SP, SP, #8            ; [DPU_V7M3_PIPE]  ; [KEEP 32-BIT INS]
     287                            .dwcfi  cfa_offset, 8
     288                    $C$DW$18        .dwtag  DW_TAG_variable
     289                            .dwattr $C$DW$18, DW_AT_name("f")
     290                            .dwattr $C$DW$18, DW_AT_TI_symbol_name("f")
     291                            .dwattr $C$DW$18, DW_AT_type(*$C$DW$T$16)
     292                            .dwattr $C$DW$18, DW_AT_location[DW_OP_breg13 0]
     293                    
     294                    ;----------------------------------------------------------------------
     295                    ; 337 | { return __FLOAT_BIASED_EXP_IS_MAX(f) == 0; }                          
     296                    ;----------------------------------------------------------------------
     297 00000004 9000              STR       A1, [SP, #0]          ; [DPU_V7M3_PIPE] |337|  ; [ORIG 16-BIT INS]
     298                            .dwpsn  file "/home/merdak/Apps/ti/ccs1020/ccs/tools/compiler/ti-cgt-arm_20.2.4.LTS/include/_d
     299 00000006 9800              LDR       A1, [SP, #0]          ; [DPU_V7M3_PIPE] |337|  ; [ORIG 16-BIT INS]
     300 00000008 2100              MOVS      A2, #0                ; [DPU_V7M3_PIPE] |337|  ; [ORIG 16-BIT INS]
     301 0000000a 0C00              LSRS      A1, A1, #16           ; [DPU_V7M3_PIPE] |337|  ; [ORIG 16-BIT INS]
     302 0000000c 42FFF400          AND       A3, A1, #32640        ; [DPU_V7M3_PIPE] |337|  ; [KEEP 32-BIT INS]
     303 00000010 4FFFF5B2          CMP       A3, #32640            ; [DPU_V7M3_PIPE] |337|  ; [KEEP 32-BIT INS]
     304 00000014 0000F04F          MOV       A1, #0                ; [DPU_V7M3_PIPE] |337|  ; [KEEP 32-BIT INS]
     305 00000018 D100              BNE       ||$C$L3||             ; [DPU_V7M3_PIPE] |337|  ; [ORIG 16-BIT INS]
     306                            ; BRANCHCC OCCURS {||$C$L3||}    ; [] |337| 
     307                    ;* --------------------------------------------------------------------------*
     308 0000001a 2101              MOVS      A2, #1                ; [DPU_V7M3_PIPE] |337|  ; [ORIG 16-BIT INS]
     309                    ;* --------------------------------------------------------------------------*
     310 0000001c           ||$C$L3||:    
     311 0000001c B901              CBNZ      A2, ||$C$L4||         ; []  ; [ORIG 16-BIT INS]
     312                            ; BRANCHCC OCCURS {||$C$L4||}    ; [] |337| 
     313                    ;* --------------------------------------------------------------------------*
     314 0000001e 2001              MOVS      A1, #1                ; [DPU_V7M3_PIPE] |337|  ; [ORIG 16-BIT INS]
     315                    ;* --------------------------------------------------------------------------*
     316 00000020           ||$C$L4||:    
     317                            .dwpsn  file "/home/merdak/Apps/ti/ccs1020/ccs/tools/compiler/ti-cgt-arm_20.2.4.LTS/include/_d
     318 00000020 B002              ADD       SP, SP, #8            ; [DPU_V7M3_PIPE]  ; [ORIG 16-BIT INS]
     319                            .dwcfi  cfa_offset, 0
     320                    $C$DW$19        .dwtag  DW_TAG_TI_branch
     321                            .dwattr $C$DW$19, DW_AT_low_pc(0x00)
     322                            .dwattr $C$DW$19, DW_AT_TI_return
     323                    
     324 00000022 4770              BX        LR                    ; [DPU_V7M3_PIPE]  ; [ORIG 16-BIT INS]
     325                            ; BRANCH OCCURS                  ; [] 
     326                            .dwattr $C$DW$16, DW_AT_TI_end_file("/home/merdak/Apps/ti/ccs1020/ccs/tools/compiler/ti-cgt-ar
     327                            .dwattr $C$DW$16, DW_AT_TI_end_line(0x151)
     328                            .dwattr $C$DW$16, DW_AT_TI_end_column(0x2d)
     329                            .dwendentry
     330                            .dwendtag $C$DW$16
TI ARM Assembler Unix v20.2.4 Fri Apr  2 01:01:44 2021

Copyright (c) 1996-2018 Texas Instruments Incorporated
MadgwickAHRS.asm                                                     PAGE    7

     331                    
     332 00000000                   .sect   ".text:__isfinitel"
     333                            .clink
     334                            .thumbfunc __isfinitel
     335 00000000                   .thumb
     336                            .global __isfinitel
     337                    
     338                    $C$DW$20        .dwtag  DW_TAG_subprogram
     339                            .dwattr $C$DW$20, DW_AT_name("__isfinitel")
     340                            .dwattr $C$DW$20, DW_AT_low_pc(__isfinitel)
     341                            .dwattr $C$DW$20, DW_AT_high_pc(0x00)
     342                            .dwattr $C$DW$20, DW_AT_TI_symbol_name("__isfinitel")
     343                            .dwattr $C$DW$20, DW_AT_external
     344                            .dwattr $C$DW$20, DW_AT_type(*$C$DW$T$10)
     345                            .dwattr $C$DW$20, DW_AT_TI_begin_file("/home/merdak/Apps/ti/ccs1020/ccs/tools/compiler/ti-cgt-
     346                            .dwattr $C$DW$20, DW_AT_TI_begin_line(0x152)
     347                            .dwattr $C$DW$20, DW_AT_TI_begin_column(0x25)
     348                            .dwattr $C$DW$20, DW_AT_decl_file("/home/merdak/Apps/ti/ccs1020/ccs/tools/compiler/ti-cgt-arm_
     349                            .dwattr $C$DW$20, DW_AT_decl_line(0x152)
     350                            .dwattr $C$DW$20, DW_AT_decl_column(0x25)
     351                            .dwattr $C$DW$20, DW_AT_TI_max_frame_size(0x10)
     352                            .dwpsn  file "/home/merdak/Apps/ti/ccs1020/ccs/tools/compiler/ti-cgt-arm_20.2.4.LTS/include/_d
     353                    
     354                            .dwfde $C$DW$CIE, __isfinitel
     355                    $C$DW$21        .dwtag  DW_TAG_formal_parameter
     356                            .dwattr $C$DW$21, DW_AT_name("e")
     357                            .dwattr $C$DW$21, DW_AT_TI_symbol_name("e")
     358                            .dwattr $C$DW$21, DW_AT_type(*$C$DW$T$18)
     359                            .dwattr $C$DW$21, DW_AT_location[DW_OP_reg0]
     360                    
     361                    ;----------------------------------------------------------------------
     362                    ; 338 | _CODE_ACCESS _INLINE_DEFINITION int __isfinitel(long double e)         
     363                    ;----------------------------------------------------------------------
     364                    
     365                    ;*****************************************************************************
     366                    ;* FUNCTION NAME: __isfinitel                                                *
     367                    ;*                                                                           *
     368                    ;*   Regs Modified     : A1,A2,A3,A4,V4,SP,SR                                *
     369                    ;*   Regs Used         : A1,A2,A3,A4,V4,SP,LR,SR                             *
     370                    ;*   Local Frame Size  : 0 Args + 8 Auto + 8 Save = 16 byte                  *
     371                    ;*****************************************************************************
     372 00000000           __isfinitel:
     373                    ;* --------------------------------------------------------------------------*
     374                            .dwcfi  cfa_offset, 0
     375 00000000 B58C              PUSH      {A3, A4, V4, LR}      ; [DPU_V7M3_PIPE]  ; [ORIG 16-BIT INS]
     376                            .dwcfi  cfa_offset, 16
     377                            .dwcfi  save_reg_to_mem, 14, -4
     378                            .dwcfi  save_reg_to_mem, 7, -8
     379                            .dwcfi  save_reg_to_mem, 3, -12
     380                            .dwcfi  save_reg_to_mem, 2, -16
     381                    $C$DW$22        .dwtag  DW_TAG_variable
     382                            .dwattr $C$DW$22, DW_AT_name("e")
     383                            .dwattr $C$DW$22, DW_AT_TI_symbol_name("e")
     384                            .dwattr $C$DW$22, DW_AT_type(*$C$DW$T$18)
     385                            .dwattr $C$DW$22, DW_AT_location[DW_OP_breg13 0]
TI ARM Assembler Unix v20.2.4 Fri Apr  2 01:01:44 2021

Copyright (c) 1996-2018 Texas Instruments Incorporated
MadgwickAHRS.asm                                                     PAGE    8

     386                    
     387                    ;----------------------------------------------------------------------
     388                    ; 339 | { return __LDOUBLE_BIASED_EXP_IS_MAX(e) == 0; }                        
     389                    ;----------------------------------------------------------------------
     390 00000002 0003E88D          STMIA     SP, {A1,A2}           ; [DPU_V7M3_PIPE] |339|  ; [KEEP 32-BIT INS]
     391                            .dwpsn  file "/home/merdak/Apps/ti/ccs1020/ccs/tools/compiler/ti-cgt-arm_20.2.4.LTS/include/_d
     392 00000006 0006E89D          LDMIA     SP, {A2,A3}           ; [DPU_V7M3_PIPE] |339|  ; [KEEP 32-BIT INS]
     393 0000000a 2000              MOVS      A1, #0                ; [DPU_V7M3_PIPE] |339|  ; [ORIG 16-BIT INS]
     394 0000000c 2700              MOVS      V4, #0                ; [DPU_V7M3_PIPE] |339|  ; [ORIG 16-BIT INS]
     395 0000000e 4611              MOV       A2, A3                ; [DPU_V7M3_PIPE] |339|  ; [ORIG 16-BIT INS]
     396 00000010 000A              LSLS      A3, A2, #0            ; [DPU_V7M3_PIPE] |339|  ; [ORIG 16-BIT INS]
     397 00000012 2100              MOVS      A2, #0                ; [DPU_V7M3_PIPE] |339|  ; [ORIG 16-BIT INS]
     398 00000014 4311              ORRS      A2, A2, A3            ; [DPU_V7M3_PIPE] |339|  ; [ORIG 16-BIT INS]
     399 00000016 0C0A              LSRS      A3, A2, #16           ; [DPU_V7M3_PIPE] |339|  ; [ORIG 16-BIT INS]
     400 00000018 71F0F647          MOV       A2, #32752            ; [DPU_V7M3_PIPE] |339|  ; [KEEP 32-BIT INS]
     401 0000001c 4011              ANDS      A2, A2, A3            ; [DPU_V7M3_PIPE] |339|  ; [ORIG 16-BIT INS]
     402 0000001e 72F0F647          MOV       A3, #32752            ; [DPU_V7M3_PIPE] |339|  ; [KEEP 32-BIT INS]
     403 00000022 428A              CMP       A3, A2                ; [DPU_V7M3_PIPE] |339|  ; [ORIG 16-BIT INS]
     404 00000024 D100              BNE       ||$C$L5||             ; [DPU_V7M3_PIPE] |339|  ; [ORIG 16-BIT INS]
     405                            ; BRANCHCC OCCURS {||$C$L5||}    ; [] |339| 
     406                    ;* --------------------------------------------------------------------------*
     407 00000026 2701              MOVS      V4, #1                ; [DPU_V7M3_PIPE] |339|  ; [ORIG 16-BIT INS]
     408                    ;* --------------------------------------------------------------------------*
     409 00000028           ||$C$L5||:    
     410 00000028 B907              CBNZ      V4, ||$C$L6||         ; []  ; [ORIG 16-BIT INS]
     411                            ; BRANCHCC OCCURS {||$C$L6||}    ; [] |339| 
     412                    ;* --------------------------------------------------------------------------*
     413 0000002a 2001              MOVS      A1, #1                ; [DPU_V7M3_PIPE] |339|  ; [ORIG 16-BIT INS]
     414                    ;* --------------------------------------------------------------------------*
     415 0000002c           ||$C$L6||:    
     416                            .dwpsn  file "/home/merdak/Apps/ti/ccs1020/ccs/tools/compiler/ti-cgt-arm_20.2.4.LTS/include/_d
     417                    $C$DW$23        .dwtag  DW_TAG_TI_branch
     418                            .dwattr $C$DW$23, DW_AT_low_pc(0x00)
     419                            .dwattr $C$DW$23, DW_AT_TI_return
     420                    
     421 0000002c BD8C              POP       {A3, A4, V4, PC}      ; [DPU_V7M3_PIPE]  ; [ORIG 16-BIT INS]
     422                            .dwcfi  cfa_offset, 0
     423                            .dwcfi  restore_reg, 7
     424                            .dwcfi  restore_reg, 3
     425                            .dwcfi  restore_reg, 2
     426                            ; BRANCH OCCURS                  ; [] 
     427                            .dwattr $C$DW$20, DW_AT_TI_end_file("/home/merdak/Apps/ti/ccs1020/ccs/tools/compiler/ti-cgt-ar
     428                            .dwattr $C$DW$20, DW_AT_TI_end_line(0x153)
     429                            .dwattr $C$DW$20, DW_AT_TI_end_column(0x2f)
     430                            .dwendentry
     431                            .dwendtag $C$DW$20
     432                    
     433 00000000                   .sect   ".text:__isnan"
     434                            .clink
     435                            .thumbfunc __isnan
     436 00000000                   .thumb
     437                            .global __isnan
     438                    
     439                    $C$DW$24        .dwtag  DW_TAG_subprogram
     440                            .dwattr $C$DW$24, DW_AT_name("__isnan")
TI ARM Assembler Unix v20.2.4 Fri Apr  2 01:01:44 2021

Copyright (c) 1996-2018 Texas Instruments Incorporated
MadgwickAHRS.asm                                                     PAGE    9

     441                            .dwattr $C$DW$24, DW_AT_low_pc(__isnan)
     442                            .dwattr $C$DW$24, DW_AT_high_pc(0x00)
     443                            .dwattr $C$DW$24, DW_AT_TI_symbol_name("__isnan")
     444                            .dwattr $C$DW$24, DW_AT_external
     445                            .dwattr $C$DW$24, DW_AT_type(*$C$DW$T$10)
     446                            .dwattr $C$DW$24, DW_AT_TI_begin_file("/home/merdak/Apps/ti/ccs1020/ccs/tools/compiler/ti-cgt-
     447                            .dwattr $C$DW$24, DW_AT_TI_begin_line(0x155)
     448                            .dwattr $C$DW$24, DW_AT_TI_begin_column(0x25)
     449                            .dwattr $C$DW$24, DW_AT_decl_file("/home/merdak/Apps/ti/ccs1020/ccs/tools/compiler/ti-cgt-arm_
     450                            .dwattr $C$DW$24, DW_AT_decl_line(0x155)
     451                            .dwattr $C$DW$24, DW_AT_decl_column(0x25)
     452                            .dwattr $C$DW$24, DW_AT_TI_max_frame_size(0x20)
     453                            .dwpsn  file "/home/merdak/Apps/ti/ccs1020/ccs/tools/compiler/ti-cgt-arm_20.2.4.LTS/include/_d
     454                    
     455                            .dwfde $C$DW$CIE, __isnan
     456                    $C$DW$25        .dwtag  DW_TAG_formal_parameter
     457                            .dwattr $C$DW$25, DW_AT_name("d")
     458                            .dwattr $C$DW$25, DW_AT_TI_symbol_name("d")
     459                            .dwattr $C$DW$25, DW_AT_type(*$C$DW$T$17)
     460                            .dwattr $C$DW$25, DW_AT_location[DW_OP_reg0]
     461                    
     462                    ;----------------------------------------------------------------------
     463                    ; 341 | _CODE_ACCESS _INLINE_DEFINITION int __isnan(double d)                  
     464                    ;----------------------------------------------------------------------
     465                    
     466                    ;*****************************************************************************
     467                    ;* FUNCTION NAME: __isnan                                                    *
     468                    ;*                                                                           *
     469                    ;*   Regs Modified     : A1,A2,A3,A4,V1,V2,V3,V4,SP,SR                       *
     470                    ;*   Regs Used         : A1,A2,A3,A4,V1,V2,V3,V4,SP,LR,SR                    *
     471                    ;*   Local Frame Size  : 0 Args + 8 Auto + 20 Save = 28 byte                 *
     472                    ;*****************************************************************************
     473 00000000           __isnan:
     474                    ;* --------------------------------------------------------------------------*
     475                            .dwcfi  cfa_offset, 0
     476 00000000 B5FE              PUSH      {A2, A3, A4, V1, V2, V3, V4, LR} ; [DPU_V7M3_PIPE]  ; [ORIG 16-BIT INS]
     477                            .dwcfi  cfa_offset, 32
     478                            .dwcfi  save_reg_to_mem, 14, -4
     479                            .dwcfi  save_reg_to_mem, 7, -8
     480                            .dwcfi  save_reg_to_mem, 6, -12
     481                            .dwcfi  save_reg_to_mem, 5, -16
     482                            .dwcfi  save_reg_to_mem, 4, -20
     483                            .dwcfi  save_reg_to_mem, 3, -24
     484                            .dwcfi  save_reg_to_mem, 2, -28
     485                            .dwcfi  save_reg_to_mem, 1, -32
     486                    $C$DW$26        .dwtag  DW_TAG_variable
     487                            .dwattr $C$DW$26, DW_AT_name("d")
     488                            .dwattr $C$DW$26, DW_AT_TI_symbol_name("d")
     489                            .dwattr $C$DW$26, DW_AT_type(*$C$DW$T$17)
     490                            .dwattr $C$DW$26, DW_AT_location[DW_OP_breg13 0]
     491                    
     492                    ;----------------------------------------------------------------------
     493                    ; 342 | { return __DOUBLE_BIASED_EXP_IS_MAX(d) &&                              
     494                    ;----------------------------------------------------------------------
     495 00000002 0003E88D          STMIA     SP, {A1,A2}           ; [DPU_V7M3_PIPE] |342|  ; [KEEP 32-BIT INS]
TI ARM Assembler Unix v20.2.4 Fri Apr  2 01:01:44 2021

Copyright (c) 1996-2018 Texas Instruments Incorporated
MadgwickAHRS.asm                                                     PAGE   10

     496                            .dwpsn  file "/home/merdak/Apps/ti/ccs1020/ccs/tools/compiler/ti-cgt-arm_20.2.4.LTS/include/_d
     497 00000006 0006E89D          LDMIA     SP, {A2,A3}           ; [DPU_V7M3_PIPE] |342|  ; [KEEP 32-BIT INS]
     498 0000000a 2000              MOVS      A1, #0                ; [DPU_V7M3_PIPE] |342|  ; [ORIG 16-BIT INS]
     499 0000000c 4611              MOV       A2, A3                ; [DPU_V7M3_PIPE] |342|  ; [ORIG 16-BIT INS]
     500 0000000e 000A              LSLS      A3, A2, #0            ; [DPU_V7M3_PIPE] |342|  ; [ORIG 16-BIT INS]
     501 00000010 2100              MOVS      A2, #0                ; [DPU_V7M3_PIPE] |342|  ; [ORIG 16-BIT INS]
     502 00000012 4311              ORRS      A2, A2, A3            ; [DPU_V7M3_PIPE] |342|  ; [ORIG 16-BIT INS]
     503 00000014 0C0A              LSRS      A3, A2, #16           ; [DPU_V7M3_PIPE] |342|  ; [ORIG 16-BIT INS]
     504 00000016 71F0F647          MOV       A2, #32752            ; [DPU_V7M3_PIPE] |342|  ; [KEEP 32-BIT INS]
     505 0000001a 4011              ANDS      A2, A2, A3            ; [DPU_V7M3_PIPE] |342|  ; [ORIG 16-BIT INS]
     506 0000001c 72F0F647          MOV       A3, #32752            ; [DPU_V7M3_PIPE] |342|  ; [KEEP 32-BIT INS]
     507 00000020 428A              CMP       A3, A2                ; [DPU_V7M3_PIPE] |342|  ; [ORIG 16-BIT INS]
     508 00000022 D115              BNE       ||$C$L9||             ; [DPU_V7M3_PIPE] |342|  ; [ORIG 16-BIT INS]
     509                            ; BRANCHCC OCCURS {||$C$L9||}    ; [] |342| 
     510                    ;* --------------------------------------------------------------------------*
     511 00000024 0006E89D          LDMIA     SP, {A2,A3}           ; [DPU_V7M3_PIPE] |342|  ; [KEEP 32-BIT INS]
     512 00000028 4E0A              LDR       V3, $C$CON1           ; [DPU_V7M3_PIPE] |342|  ; [ORIG 16-BIT INS]
     513 0000002a 4611              MOV       A2, A3                ; [DPU_V7M3_PIPE] |342|  ; [ORIG 16-BIT INS]
     514 0000002c 000CE89D          LDMIA     SP, {A3,A4}           ; [DPU_V7M3_PIPE] |342|  ; [KEEP 32-BIT INS]
     515 00000030 2500              MOVS      V2, #0                ; [DPU_V7M3_PIPE] |342|  ; [ORIG 16-BIT INS]
     516 00000032 000C              LSLS      V1, A2, #0            ; [DPU_V7M3_PIPE] |342|  ; [ORIG 16-BIT INS]
     517 00000034 2700              MOVS      V4, #0                ; [DPU_V7M3_PIPE] |342|  ; [ORIG 16-BIT INS]
     518 00000036 2100              MOVS      A2, #0                ; [DPU_V7M3_PIPE] |342|  ; [ORIG 16-BIT INS]
     519 00000038 33FFF04F          MOV       A4, #-1               ; [DPU_V7M3_PIPE] |342|  ; [KEEP 32-BIT INS]
     520 0000003c 432A              ORRS      A3, A3, V2            ; [DPU_V7M3_PIPE] |342|  ; [ORIG 16-BIT INS]
     521 0000003e 4321              ORRS      A2, A2, V1            ; [DPU_V7M3_PIPE] |342|  ; [ORIG 16-BIT INS]
     522 00000040 4013              ANDS      A4, A4, A3            ; [DPU_V7M3_PIPE] |342|  ; [ORIG 16-BIT INS]
     523 00000042 400E              ANDS      V3, V3, A2            ; [DPU_V7M3_PIPE] |342|  ; [ORIG 16-BIT INS]
     524 00000044 D100              BNE       ||$C$L7||             ; [DPU_V7M3_PIPE] |342|  ; [ORIG 16-BIT INS]
     525                            ; BRANCHCC OCCURS {||$C$L7||}    ; [] |342| 
     526                    ;* --------------------------------------------------------------------------*
     527 00000046 2B00              CMP       A4, #0                ; [DPU_V7M3_PIPE] |342|  ; [ORIG 16-BIT INS]
     528                    ;* --------------------------------------------------------------------------*
     529 00000048           ||$C$L7||:    
     530 00000048 D100              BNE       ||$C$L8||             ; [DPU_V7M3_PIPE] |342|  ; [ORIG 16-BIT INS]
     531                            ; BRANCHCC OCCURS {||$C$L8||}    ; [] |342| 
     532                    ;* --------------------------------------------------------------------------*
     533 0000004a 2701              MOVS      V4, #1                ; [DPU_V7M3_PIPE] |342|  ; [ORIG 16-BIT INS]
     534                    ;* --------------------------------------------------------------------------*
     535 0000004c           ||$C$L8||:    
     536 0000004c B907              CBNZ      V4, ||$C$L9||         ; []  ; [ORIG 16-BIT INS]
     537                            ; BRANCHCC OCCURS {||$C$L9||}    ; [] |342| 
     538                    ;* --------------------------------------------------------------------------*
     539 0000004e 2001              MOVS      A1, #1                ; [DPU_V7M3_PIPE] |342|  ; [ORIG 16-BIT INS]
     540                    ;* --------------------------------------------------------------------------*
     541 00000050           ||$C$L9||:    
     542                            .dwpsn  file "/home/merdak/Apps/ti/ccs1020/ccs/tools/compiler/ti-cgt-arm_20.2.4.LTS/include/_d
     543                    ;----------------------------------------------------------------------
     544                    ; 343 | (__DOUBLE_FRAC_PART_IS_ZERO(d) == 0); }                                
     545                    ;----------------------------------------------------------------------
     546                    $C$DW$27        .dwtag  DW_TAG_TI_branch
     547                            .dwattr $C$DW$27, DW_AT_low_pc(0x00)
     548                            .dwattr $C$DW$27, DW_AT_TI_return
     549                    
     550 00000050 BDFE              POP       {A2, A3, A4, V1, V2, V3, V4, PC} ; [DPU_V7M3_PIPE]  ; [ORIG 16-BIT INS]
TI ARM Assembler Unix v20.2.4 Fri Apr  2 01:01:44 2021

Copyright (c) 1996-2018 Texas Instruments Incorporated
MadgwickAHRS.asm                                                     PAGE   11

     551                            .dwcfi  cfa_offset, 0
     552                            .dwcfi  restore_reg, 7
     553                            .dwcfi  restore_reg, 6
     554                            .dwcfi  restore_reg, 5
     555                            .dwcfi  restore_reg, 4
     556                            .dwcfi  restore_reg, 3
     557                            .dwcfi  restore_reg, 2
     558                            .dwcfi  restore_reg, 1
     559                            ; BRANCH OCCURS                  ; [] 
     560                            .dwattr $C$DW$24, DW_AT_TI_end_file("/home/merdak/Apps/ti/ccs1020/ccs/tools/compiler/ti-cgt-ar
     561                            .dwattr $C$DW$24, DW_AT_TI_end_line(0x157)
     562                            .dwattr $C$DW$24, DW_AT_TI_end_column(0x2f)
     563                            .dwendentry
     564                            .dwendtag $C$DW$24
     565                    
     566 00000000                   .sect   ".text:__isnanf"
     567                            .clink
     568                            .thumbfunc __isnanf
     569 00000000                   .thumb
     570                            .global __isnanf
     571                    
     572                    $C$DW$28        .dwtag  DW_TAG_subprogram
     573                            .dwattr $C$DW$28, DW_AT_name("__isnanf")
     574                            .dwattr $C$DW$28, DW_AT_low_pc(__isnanf)
     575                            .dwattr $C$DW$28, DW_AT_high_pc(0x00)
     576                            .dwattr $C$DW$28, DW_AT_TI_symbol_name("__isnanf")
     577                            .dwattr $C$DW$28, DW_AT_external
     578                            .dwattr $C$DW$28, DW_AT_type(*$C$DW$T$10)
     579                            .dwattr $C$DW$28, DW_AT_TI_begin_file("/home/merdak/Apps/ti/ccs1020/ccs/tools/compiler/ti-cgt-
     580                            .dwattr $C$DW$28, DW_AT_TI_begin_line(0x158)
     581                            .dwattr $C$DW$28, DW_AT_TI_begin_column(0x25)
     582                            .dwattr $C$DW$28, DW_AT_decl_file("/home/merdak/Apps/ti/ccs1020/ccs/tools/compiler/ti-cgt-arm_
     583                            .dwattr $C$DW$28, DW_AT_decl_line(0x158)
     584                            .dwattr $C$DW$28, DW_AT_decl_column(0x25)
     585                            .dwattr $C$DW$28, DW_AT_TI_max_frame_size(0x08)
     586                            .dwpsn  file "/home/merdak/Apps/ti/ccs1020/ccs/tools/compiler/ti-cgt-arm_20.2.4.LTS/include/_d
     587                    
     588                            .dwfde $C$DW$CIE, __isnanf
     589                    $C$DW$29        .dwtag  DW_TAG_formal_parameter
     590                            .dwattr $C$DW$29, DW_AT_name("f")
     591                            .dwattr $C$DW$29, DW_AT_TI_symbol_name("f")
     592                            .dwattr $C$DW$29, DW_AT_type(*$C$DW$T$16)
     593                            .dwattr $C$DW$29, DW_AT_location[DW_OP_reg0]
     594                    
     595                    ;----------------------------------------------------------------------
     596                    ; 344 | _CODE_ACCESS _INLINE_DEFINITION int __isnanf(float f)                  
     597                    ;----------------------------------------------------------------------
     598                    
     599                    ;*****************************************************************************
     600                    ;* FUNCTION NAME: __isnanf                                                   *
     601                    ;*                                                                           *
     602                    ;*   Regs Modified     : A1,A2,A3,SP,SR                                      *
     603                    ;*   Regs Used         : A1,A2,A3,SP,LR,SR                                   *
     604                    ;*   Local Frame Size  : 0 Args + 4 Auto + 0 Save = 4 byte                   *
     605                    ;*****************************************************************************
TI ARM Assembler Unix v20.2.4 Fri Apr  2 01:01:44 2021

Copyright (c) 1996-2018 Texas Instruments Incorporated
MadgwickAHRS.asm                                                     PAGE   12

     606 00000000           __isnanf:
     607                    ;* --------------------------------------------------------------------------*
     608                            .dwcfi  cfa_offset, 0
     609 00000000 0D08F1AD          SUB       SP, SP, #8            ; [DPU_V7M3_PIPE]  ; [KEEP 32-BIT INS]
     610                            .dwcfi  cfa_offset, 8
     611                    $C$DW$30        .dwtag  DW_TAG_variable
     612                            .dwattr $C$DW$30, DW_AT_name("f")
     613                            .dwattr $C$DW$30, DW_AT_TI_symbol_name("f")
     614                            .dwattr $C$DW$30, DW_AT_type(*$C$DW$T$16)
     615                            .dwattr $C$DW$30, DW_AT_location[DW_OP_breg13 0]
     616                    
     617                    ;----------------------------------------------------------------------
     618                    ; 345 | { return __FLOAT_BIASED_EXP_IS_MAX(f) &&                               
     619                    ;----------------------------------------------------------------------
     620 00000004 9000              STR       A1, [SP, #0]          ; [DPU_V7M3_PIPE] |345|  ; [ORIG 16-BIT INS]
     621                            .dwpsn  file "/home/merdak/Apps/ti/ccs1020/ccs/tools/compiler/ti-cgt-arm_20.2.4.LTS/include/_d
     622 00000006 9800              LDR       A1, [SP, #0]          ; [DPU_V7M3_PIPE] |345|  ; [ORIG 16-BIT INS]
     623 00000008 2200              MOVS      A3, #0                ; [DPU_V7M3_PIPE] |345|  ; [ORIG 16-BIT INS]
     624 0000000a 0C00              LSRS      A1, A1, #16           ; [DPU_V7M3_PIPE] |345|  ; [ORIG 16-BIT INS]
     625 0000000c 40FFF400          AND       A1, A1, #32640        ; [DPU_V7M3_PIPE] |345|  ; [KEEP 32-BIT INS]
     626 00000010 4FFFF5B0          CMP       A1, #32640            ; [DPU_V7M3_PIPE] |345|  ; [KEEP 32-BIT INS]
     627 00000014 D108              BNE       ||$C$L11||            ; [DPU_V7M3_PIPE] |345|  ; [ORIG 16-BIT INS]
     628                            ; BRANCHCC OCCURS {||$C$L11||}   ; [] |345| 
     629                    ;* --------------------------------------------------------------------------*
     630 00000016 9800              LDR       A1, [SP, #0]          ; [DPU_V7M3_PIPE] |345|  ; [ORIG 16-BIT INS]
     631 00000018 4601              MOV       A2, A1                ; [DPU_V7M3_PIPE] |345|  ; [ORIG 16-BIT INS]
     632 0000001a 51DFF36F          BFC       A2, #23, #9           ; [DPU_V7M3_PIPE] |345|  ; [KEEP 32-BIT INS]
     633 0000001e 2000              MOVS      A1, #0                ; [DPU_V7M3_PIPE] |345|  ; [ORIG 16-BIT INS]
     634 00000020 B901              CBNZ      A2, ||$C$L10||        ; []  ; [ORIG 16-BIT INS]
     635                            ; BRANCHCC OCCURS {||$C$L10||}   ; [] |345| 
     636                    ;* --------------------------------------------------------------------------*
     637 00000022 2001              MOVS      A1, #1                ; [DPU_V7M3_PIPE] |345|  ; [ORIG 16-BIT INS]
     638                    ;* --------------------------------------------------------------------------*
     639 00000024           ||$C$L10||:    
     640 00000024 B900              CBNZ      A1, ||$C$L11||        ; []  ; [ORIG 16-BIT INS]
     641                            ; BRANCHCC OCCURS {||$C$L11||}   ; [] |345| 
     642                    ;* --------------------------------------------------------------------------*
     643 00000026 2201              MOVS      A3, #1                ; [DPU_V7M3_PIPE] |345|  ; [ORIG 16-BIT INS]
     644                    ;* --------------------------------------------------------------------------*
     645 00000028           ||$C$L11||:    
     646 00000028 4610              MOV       A1, A3                ; [DPU_V7M3_PIPE] |345|  ; [ORIG 16-BIT INS]
     647                            .dwpsn  file "/home/merdak/Apps/ti/ccs1020/ccs/tools/compiler/ti-cgt-arm_20.2.4.LTS/include/_d
     648                    ;----------------------------------------------------------------------
     649                    ; 346 | (__FLOAT_FRAC_PART_IS_ZERO(f) == 0); }                                 
     650                    ;----------------------------------------------------------------------
     651 0000002a B002              ADD       SP, SP, #8            ; [DPU_V7M3_PIPE]  ; [ORIG 16-BIT INS]
     652                            .dwcfi  cfa_offset, 0
     653                    $C$DW$31        .dwtag  DW_TAG_TI_branch
     654                            .dwattr $C$DW$31, DW_AT_low_pc(0x00)
     655                            .dwattr $C$DW$31, DW_AT_TI_return
     656                    
     657 0000002c 4770              BX        LR                    ; [DPU_V7M3_PIPE]  ; [ORIG 16-BIT INS]
     658                            ; BRANCH OCCURS                  ; [] 
     659                            .dwattr $C$DW$28, DW_AT_TI_end_file("/home/merdak/Apps/ti/ccs1020/ccs/tools/compiler/ti-cgt-ar
     660                            .dwattr $C$DW$28, DW_AT_TI_end_line(0x15a)
TI ARM Assembler Unix v20.2.4 Fri Apr  2 01:01:44 2021

Copyright (c) 1996-2018 Texas Instruments Incorporated
MadgwickAHRS.asm                                                     PAGE   13

     661                            .dwattr $C$DW$28, DW_AT_TI_end_column(0x2e)
     662                            .dwendentry
     663                            .dwendtag $C$DW$28
     664                    
     665 00000000                   .sect   ".text:__isnanl"
     666                            .clink
     667                            .thumbfunc __isnanl
     668 00000000                   .thumb
     669                            .global __isnanl
     670                    
     671                    $C$DW$32        .dwtag  DW_TAG_subprogram
     672                            .dwattr $C$DW$32, DW_AT_name("__isnanl")
     673                            .dwattr $C$DW$32, DW_AT_low_pc(__isnanl)
     674                            .dwattr $C$DW$32, DW_AT_high_pc(0x00)
     675                            .dwattr $C$DW$32, DW_AT_TI_symbol_name("__isnanl")
     676                            .dwattr $C$DW$32, DW_AT_external
     677                            .dwattr $C$DW$32, DW_AT_type(*$C$DW$T$10)
     678                            .dwattr $C$DW$32, DW_AT_TI_begin_file("/home/merdak/Apps/ti/ccs1020/ccs/tools/compiler/ti-cgt-
     679                            .dwattr $C$DW$32, DW_AT_TI_begin_line(0x15b)
     680                            .dwattr $C$DW$32, DW_AT_TI_begin_column(0x25)
     681                            .dwattr $C$DW$32, DW_AT_decl_file("/home/merdak/Apps/ti/ccs1020/ccs/tools/compiler/ti-cgt-arm_
     682                            .dwattr $C$DW$32, DW_AT_decl_line(0x15b)
     683                            .dwattr $C$DW$32, DW_AT_decl_column(0x25)
     684                            .dwattr $C$DW$32, DW_AT_TI_max_frame_size(0x20)
     685                            .dwpsn  file "/home/merdak/Apps/ti/ccs1020/ccs/tools/compiler/ti-cgt-arm_20.2.4.LTS/include/_d
     686                    
     687                            .dwfde $C$DW$CIE, __isnanl
     688                    $C$DW$33        .dwtag  DW_TAG_formal_parameter
     689                            .dwattr $C$DW$33, DW_AT_name("e")
     690                            .dwattr $C$DW$33, DW_AT_TI_symbol_name("e")
     691                            .dwattr $C$DW$33, DW_AT_type(*$C$DW$T$18)
     692                            .dwattr $C$DW$33, DW_AT_location[DW_OP_reg0]
     693                    
     694                    ;----------------------------------------------------------------------
     695                    ; 347 | _CODE_ACCESS _INLINE_DEFINITION int __isnanl(long double e)            
     696                    ;----------------------------------------------------------------------
     697                    
     698                    ;*****************************************************************************
     699                    ;* FUNCTION NAME: __isnanl                                                   *
     700                    ;*                                                                           *
     701                    ;*   Regs Modified     : A1,A2,A3,A4,V1,V2,V3,V4,SP,SR                       *
     702                    ;*   Regs Used         : A1,A2,A3,A4,V1,V2,V3,V4,SP,LR,SR                    *
     703                    ;*   Local Frame Size  : 0 Args + 8 Auto + 20 Save = 28 byte                 *
     704                    ;*****************************************************************************
     705 00000000           __isnanl:
     706                    ;* --------------------------------------------------------------------------*
     707                            .dwcfi  cfa_offset, 0
     708 00000000 B5FE              PUSH      {A2, A3, A4, V1, V2, V3, V4, LR} ; [DPU_V7M3_PIPE]  ; [ORIG 16-BIT INS]
     709                            .dwcfi  cfa_offset, 32
     710                            .dwcfi  save_reg_to_mem, 14, -4
     711                            .dwcfi  save_reg_to_mem, 7, -8
     712                            .dwcfi  save_reg_to_mem, 6, -12
     713                            .dwcfi  save_reg_to_mem, 5, -16
     714                            .dwcfi  save_reg_to_mem, 4, -20
     715                            .dwcfi  save_reg_to_mem, 3, -24
TI ARM Assembler Unix v20.2.4 Fri Apr  2 01:01:44 2021

Copyright (c) 1996-2018 Texas Instruments Incorporated
MadgwickAHRS.asm                                                     PAGE   14

     716                            .dwcfi  save_reg_to_mem, 2, -28
     717                            .dwcfi  save_reg_to_mem, 1, -32
     718                    $C$DW$34        .dwtag  DW_TAG_variable
     719                            .dwattr $C$DW$34, DW_AT_name("e")
     720                            .dwattr $C$DW$34, DW_AT_TI_symbol_name("e")
     721                            .dwattr $C$DW$34, DW_AT_type(*$C$DW$T$18)
     722                            .dwattr $C$DW$34, DW_AT_location[DW_OP_breg13 0]
     723                    
     724                    ;----------------------------------------------------------------------
     725                    ; 348 | { return __LDOUBLE_BIASED_EXP_IS_MAX(e) &&                             
     726                    ;----------------------------------------------------------------------
     727 00000002 0003E88D          STMIA     SP, {A1,A2}           ; [DPU_V7M3_PIPE] |348|  ; [KEEP 32-BIT INS]
     728                            .dwpsn  file "/home/merdak/Apps/ti/ccs1020/ccs/tools/compiler/ti-cgt-arm_20.2.4.LTS/include/_d
     729 00000006 0006E89D          LDMIA     SP, {A2,A3}           ; [DPU_V7M3_PIPE] |348|  ; [KEEP 32-BIT INS]
     730 0000000a 2000              MOVS      A1, #0                ; [DPU_V7M3_PIPE] |348|  ; [ORIG 16-BIT INS]
     731 0000000c 4611              MOV       A2, A3                ; [DPU_V7M3_PIPE] |348|  ; [ORIG 16-BIT INS]
     732 0000000e 000A              LSLS      A3, A2, #0            ; [DPU_V7M3_PIPE] |348|  ; [ORIG 16-BIT INS]
     733 00000010 2100              MOVS      A2, #0                ; [DPU_V7M3_PIPE] |348|  ; [ORIG 16-BIT INS]
     734 00000012 4311              ORRS      A2, A2, A3            ; [DPU_V7M3_PIPE] |348|  ; [ORIG 16-BIT INS]
     735 00000014 0C0A              LSRS      A3, A2, #16           ; [DPU_V7M3_PIPE] |348|  ; [ORIG 16-BIT INS]
     736 00000016 71F0F647          MOV       A2, #32752            ; [DPU_V7M3_PIPE] |348|  ; [KEEP 32-BIT INS]
     737 0000001a 4011              ANDS      A2, A2, A3            ; [DPU_V7M3_PIPE] |348|  ; [ORIG 16-BIT INS]
     738 0000001c 72F0F647          MOV       A3, #32752            ; [DPU_V7M3_PIPE] |348|  ; [KEEP 32-BIT INS]
     739 00000020 428A              CMP       A3, A2                ; [DPU_V7M3_PIPE] |348|  ; [ORIG 16-BIT INS]
     740 00000022 D115              BNE       ||$C$L14||            ; [DPU_V7M3_PIPE] |348|  ; [ORIG 16-BIT INS]
     741                            ; BRANCHCC OCCURS {||$C$L14||}   ; [] |348| 
     742                    ;* --------------------------------------------------------------------------*
     743 00000024 0006E89D          LDMIA     SP, {A2,A3}           ; [DPU_V7M3_PIPE] |348|  ; [KEEP 32-BIT INS]
     744 00000028 4E0A              LDR       V3, $C$CON2           ; [DPU_V7M3_PIPE] |348|  ; [ORIG 16-BIT INS]
     745 0000002a 4611              MOV       A2, A3                ; [DPU_V7M3_PIPE] |348|  ; [ORIG 16-BIT INS]
     746 0000002c 000CE89D          LDMIA     SP, {A3,A4}           ; [DPU_V7M3_PIPE] |348|  ; [KEEP 32-BIT INS]
     747 00000030 2500              MOVS      V2, #0                ; [DPU_V7M3_PIPE] |348|  ; [ORIG 16-BIT INS]
     748 00000032 000C              LSLS      V1, A2, #0            ; [DPU_V7M3_PIPE] |348|  ; [ORIG 16-BIT INS]
     749 00000034 2700              MOVS      V4, #0                ; [DPU_V7M3_PIPE] |348|  ; [ORIG 16-BIT INS]
     750 00000036 2100              MOVS      A2, #0                ; [DPU_V7M3_PIPE] |348|  ; [ORIG 16-BIT INS]
     751 00000038 33FFF04F          MOV       A4, #-1               ; [DPU_V7M3_PIPE] |348|  ; [KEEP 32-BIT INS]
     752 0000003c 432A              ORRS      A3, A3, V2            ; [DPU_V7M3_PIPE] |348|  ; [ORIG 16-BIT INS]
     753 0000003e 4321              ORRS      A2, A2, V1            ; [DPU_V7M3_PIPE] |348|  ; [ORIG 16-BIT INS]
     754 00000040 4013              ANDS      A4, A4, A3            ; [DPU_V7M3_PIPE] |348|  ; [ORIG 16-BIT INS]
     755 00000042 400E              ANDS      V3, V3, A2            ; [DPU_V7M3_PIPE] |348|  ; [ORIG 16-BIT INS]
     756 00000044 D100              BNE       ||$C$L12||            ; [DPU_V7M3_PIPE] |348|  ; [ORIG 16-BIT INS]
     757                            ; BRANCHCC OCCURS {||$C$L12||}   ; [] |348| 
     758                    ;* --------------------------------------------------------------------------*
     759 00000046 2B00              CMP       A4, #0                ; [DPU_V7M3_PIPE] |348|  ; [ORIG 16-BIT INS]
     760                    ;* --------------------------------------------------------------------------*
     761 00000048           ||$C$L12||:    
     762 00000048 D100              BNE       ||$C$L13||            ; [DPU_V7M3_PIPE] |348|  ; [ORIG 16-BIT INS]
     763                            ; BRANCHCC OCCURS {||$C$L13||}   ; [] |348| 
     764                    ;* --------------------------------------------------------------------------*
     765 0000004a 2701              MOVS      V4, #1                ; [DPU_V7M3_PIPE] |348|  ; [ORIG 16-BIT INS]
     766                    ;* --------------------------------------------------------------------------*
     767 0000004c           ||$C$L13||:    
     768 0000004c B907              CBNZ      V4, ||$C$L14||        ; []  ; [ORIG 16-BIT INS]
     769                            ; BRANCHCC OCCURS {||$C$L14||}   ; [] |348| 
     770                    ;* --------------------------------------------------------------------------*
TI ARM Assembler Unix v20.2.4 Fri Apr  2 01:01:44 2021

Copyright (c) 1996-2018 Texas Instruments Incorporated
MadgwickAHRS.asm                                                     PAGE   15

     771 0000004e 2001              MOVS      A1, #1                ; [DPU_V7M3_PIPE] |348|  ; [ORIG 16-BIT INS]
     772                    ;* --------------------------------------------------------------------------*
     773 00000050           ||$C$L14||:    
     774                            .dwpsn  file "/home/merdak/Apps/ti/ccs1020/ccs/tools/compiler/ti-cgt-arm_20.2.4.LTS/include/_d
     775                    ;----------------------------------------------------------------------
     776                    ; 349 | (__LDOUBLE_FRAC_PART_IS_ZERO(e) == 0); }                               
     777                    ;----------------------------------------------------------------------
     778                    $C$DW$35        .dwtag  DW_TAG_TI_branch
     779                            .dwattr $C$DW$35, DW_AT_low_pc(0x00)
     780                            .dwattr $C$DW$35, DW_AT_TI_return
     781                    
     782 00000050 BDFE              POP       {A2, A3, A4, V1, V2, V3, V4, PC} ; [DPU_V7M3_PIPE]  ; [ORIG 16-BIT INS]
     783                            .dwcfi  cfa_offset, 0
     784                            .dwcfi  restore_reg, 7
     785                            .dwcfi  restore_reg, 6
     786                            .dwcfi  restore_reg, 5
     787                            .dwcfi  restore_reg, 4
     788                            .dwcfi  restore_reg, 3
     789                            .dwcfi  restore_reg, 2
     790                            .dwcfi  restore_reg, 1
     791                            ; BRANCH OCCURS                  ; [] 
     792                            .dwattr $C$DW$32, DW_AT_TI_end_file("/home/merdak/Apps/ti/ccs1020/ccs/tools/compiler/ti-cgt-ar
     793                            .dwattr $C$DW$32, DW_AT_TI_end_line(0x15d)
     794                            .dwattr $C$DW$32, DW_AT_TI_end_column(0x30)
     795                            .dwendentry
     796                            .dwendtag $C$DW$32
     797                    
     798 00000000                   .sect   ".text:__isnormal"
     799                            .clink
     800                            .thumbfunc __isnormal
     801 00000000                   .thumb
     802                            .global __isnormal
     803                    
     804                    $C$DW$36        .dwtag  DW_TAG_subprogram
     805                            .dwattr $C$DW$36, DW_AT_name("__isnormal")
     806                            .dwattr $C$DW$36, DW_AT_low_pc(__isnormal)
     807                            .dwattr $C$DW$36, DW_AT_high_pc(0x00)
     808                            .dwattr $C$DW$36, DW_AT_TI_symbol_name("__isnormal")
     809                            .dwattr $C$DW$36, DW_AT_external
     810                            .dwattr $C$DW$36, DW_AT_type(*$C$DW$T$10)
     811                            .dwattr $C$DW$36, DW_AT_TI_begin_file("/home/merdak/Apps/ti/ccs1020/ccs/tools/compiler/ti-cgt-
     812                            .dwattr $C$DW$36, DW_AT_TI_begin_line(0x15f)
     813                            .dwattr $C$DW$36, DW_AT_TI_begin_column(0x25)
     814                            .dwattr $C$DW$36, DW_AT_decl_file("/home/merdak/Apps/ti/ccs1020/ccs/tools/compiler/ti-cgt-arm_
     815                            .dwattr $C$DW$36, DW_AT_decl_line(0x15f)
     816                            .dwattr $C$DW$36, DW_AT_decl_column(0x25)
     817                            .dwattr $C$DW$36, DW_AT_TI_max_frame_size(0x18)
     818                            .dwpsn  file "/home/merdak/Apps/ti/ccs1020/ccs/tools/compiler/ti-cgt-arm_20.2.4.LTS/include/_d
     819                    
     820                            .dwfde $C$DW$CIE, __isnormal
     821                    $C$DW$37        .dwtag  DW_TAG_formal_parameter
     822                            .dwattr $C$DW$37, DW_AT_name("d")
     823                            .dwattr $C$DW$37, DW_AT_TI_symbol_name("d")
     824                            .dwattr $C$DW$37, DW_AT_type(*$C$DW$T$17)
     825                            .dwattr $C$DW$37, DW_AT_location[DW_OP_reg0]
TI ARM Assembler Unix v20.2.4 Fri Apr  2 01:01:44 2021

Copyright (c) 1996-2018 Texas Instruments Incorporated
MadgwickAHRS.asm                                                     PAGE   16

     826                    
     827                    ;----------------------------------------------------------------------
     828                    ; 351 | _CODE_ACCESS _INLINE_DEFINITION int __isnormal(double d)               
     829                    ;----------------------------------------------------------------------
     830                    
     831                    ;*****************************************************************************
     832                    ;* FUNCTION NAME: __isnormal                                                 *
     833                    ;*                                                                           *
     834                    ;*   Regs Modified     : A1,A2,A3,A4,V3,V4,SP,SR                             *
     835                    ;*   Regs Used         : A1,A2,A3,A4,V3,V4,SP,LR,SR                          *
     836                    ;*   Local Frame Size  : 0 Args + 8 Auto + 12 Save = 20 byte                 *
     837                    ;*****************************************************************************
     838 00000000           __isnormal:
     839                    ;* --------------------------------------------------------------------------*
     840                            .dwcfi  cfa_offset, 0
     841 00000000 B5CE              PUSH      {A2, A3, A4, V3, V4, LR} ; [DPU_V7M3_PIPE]  ; [ORIG 16-BIT INS]
     842                            .dwcfi  cfa_offset, 24
     843                            .dwcfi  save_reg_to_mem, 14, -4
     844                            .dwcfi  save_reg_to_mem, 7, -8
     845                            .dwcfi  save_reg_to_mem, 6, -12
     846                            .dwcfi  save_reg_to_mem, 3, -16
     847                            .dwcfi  save_reg_to_mem, 2, -20
     848                            .dwcfi  save_reg_to_mem, 1, -24
     849                    $C$DW$38        .dwtag  DW_TAG_variable
     850                            .dwattr $C$DW$38, DW_AT_name("d")
     851                            .dwattr $C$DW$38, DW_AT_TI_symbol_name("d")
     852                            .dwattr $C$DW$38, DW_AT_type(*$C$DW$T$17)
     853                            .dwattr $C$DW$38, DW_AT_location[DW_OP_breg13 0]
     854                    
     855                    ;----------------------------------------------------------------------
     856                    ; 352 | { return (__DOUBLE_BIASED_EXP_IS_ZERO(d) == 0) &&                      
     857                    ;----------------------------------------------------------------------
     858 00000002 0003E88D          STMIA     SP, {A1,A2}           ; [DPU_V7M3_PIPE] |352|  ; [KEEP 32-BIT INS]
     859                            .dwpsn  file "/home/merdak/Apps/ti/ccs1020/ccs/tools/compiler/ti-cgt-arm_20.2.4.LTS/include/_d
     860 00000006 0006E89D          LDMIA     SP, {A2,A3}           ; [DPU_V7M3_PIPE] |352|  ; [KEEP 32-BIT INS]
     861 0000000a 2000              MOVS      A1, #0                ; [DPU_V7M3_PIPE] |352|  ; [ORIG 16-BIT INS]
     862 0000000c 2700              MOVS      V4, #0                ; [DPU_V7M3_PIPE] |352|  ; [ORIG 16-BIT INS]
     863 0000000e 4611              MOV       A2, A3                ; [DPU_V7M3_PIPE] |352|  ; [ORIG 16-BIT INS]
     864 00000010 000A              LSLS      A3, A2, #0            ; [DPU_V7M3_PIPE] |352|  ; [ORIG 16-BIT INS]
     865 00000012 2100              MOVS      A2, #0                ; [DPU_V7M3_PIPE] |352|  ; [ORIG 16-BIT INS]
     866 00000014 4311              ORRS      A2, A2, A3            ; [DPU_V7M3_PIPE] |352|  ; [ORIG 16-BIT INS]
     867 00000016 0D0B              LSRS      A4, A2, #20           ; [DPU_V7M3_PIPE] |352|  ; [ORIG 16-BIT INS]
     868 00000018 2200              MOVS      A3, #0                ; [DPU_V7M3_PIPE] |352|  ; [ORIG 16-BIT INS]
     869 0000001a 71FFF240          MOV       A2, #2047             ; [DPU_V7M3_PIPE] |352|  ; [KEEP 32-BIT INS]
     870 0000001e 17CE              ASRS      V3, A2, #31           ; [DPU_V7M3_PIPE] |352|  ; [ORIG 16-BIT INS]
     871 00000020 4016              ANDS      V3, V3, A3            ; [DPU_V7M3_PIPE] |352|  ; [ORIG 16-BIT INS]
     872 00000022 0103EA01          AND       A2, A2, A4            ; [DPU_V7M3_PIPE] |352|  ; [KEEP 32-BIT INS]
     873 00000026 D100              BNE       ||$C$L15||            ; [DPU_V7M3_PIPE] |352|  ; [ORIG 16-BIT INS]
     874                            ; BRANCHCC OCCURS {||$C$L15||}   ; [] |352| 
     875                    ;* --------------------------------------------------------------------------*
     876 00000028 2900              CMP       A2, #0                ; [DPU_V7M3_PIPE] |352|  ; [ORIG 16-BIT INS]
     877                    ;* --------------------------------------------------------------------------*
     878 0000002a           ||$C$L15||:    
     879 0000002a D100              BNE       ||$C$L16||            ; [DPU_V7M3_PIPE] |352|  ; [ORIG 16-BIT INS]
     880                            ; BRANCHCC OCCURS {||$C$L16||}   ; [] |352| 
TI ARM Assembler Unix v20.2.4 Fri Apr  2 01:01:44 2021

Copyright (c) 1996-2018 Texas Instruments Incorporated
MadgwickAHRS.asm                                                     PAGE   17

     881                    ;* --------------------------------------------------------------------------*
     882 0000002c 2701              MOVS      V4, #1                ; [DPU_V7M3_PIPE] |352|  ; [ORIG 16-BIT INS]
     883                    ;* --------------------------------------------------------------------------*
     884 0000002e           ||$C$L16||:    
     885 0000002e B98F              CBNZ      V4, ||$C$L18||        ; []  ; [ORIG 16-BIT INS]
     886                            ; BRANCHCC OCCURS {||$C$L18||}   ; [] |352| 
     887                    ;* --------------------------------------------------------------------------*
     888 00000030 0006E89D          LDMIA     SP, {A2,A3}           ; [DPU_V7M3_PIPE] |352|  ; [KEEP 32-BIT INS]
     889 00000034 4611              MOV       A2, A3                ; [DPU_V7M3_PIPE] |352|  ; [ORIG 16-BIT INS]
     890 00000036 2700              MOVS      V4, #0                ; [DPU_V7M3_PIPE] |352|  ; [ORIG 16-BIT INS]
     891 00000038 000A              LSLS      A3, A2, #0            ; [DPU_V7M3_PIPE] |352|  ; [ORIG 16-BIT INS]
     892 0000003a 2100              MOVS      A2, #0                ; [DPU_V7M3_PIPE] |352|  ; [ORIG 16-BIT INS]
     893 0000003c 4311              ORRS      A2, A2, A3            ; [DPU_V7M3_PIPE] |352|  ; [ORIG 16-BIT INS]
     894 0000003e 0C0A              LSRS      A3, A2, #16           ; [DPU_V7M3_PIPE] |352|  ; [ORIG 16-BIT INS]
     895 00000040 71F0F647          MOV       A2, #32752            ; [DPU_V7M3_PIPE] |352|  ; [KEEP 32-BIT INS]
     896 00000044 4011              ANDS      A2, A2, A3            ; [DPU_V7M3_PIPE] |352|  ; [ORIG 16-BIT INS]
     897 00000046 72F0F647          MOV       A3, #32752            ; [DPU_V7M3_PIPE] |352|  ; [KEEP 32-BIT INS]
     898 0000004a 428A              CMP       A3, A2                ; [DPU_V7M3_PIPE] |352|  ; [ORIG 16-BIT INS]
     899 0000004c D100              BNE       ||$C$L17||            ; [DPU_V7M3_PIPE] |352|  ; [ORIG 16-BIT INS]
     900                            ; BRANCHCC OCCURS {||$C$L17||}   ; [] |352| 
     901                    ;* --------------------------------------------------------------------------*
     902 0000004e 2701              MOVS      V4, #1                ; [DPU_V7M3_PIPE] |352|  ; [ORIG 16-BIT INS]
     903                    ;* --------------------------------------------------------------------------*
     904 00000050           ||$C$L17||:    
     905 00000050 B907              CBNZ      V4, ||$C$L18||        ; []  ; [ORIG 16-BIT INS]
     906                            ; BRANCHCC OCCURS {||$C$L18||}   ; [] |352| 
     907                    ;* --------------------------------------------------------------------------*
     908 00000052 2001              MOVS      A1, #1                ; [DPU_V7M3_PIPE] |352|  ; [ORIG 16-BIT INS]
     909                    ;* --------------------------------------------------------------------------*
     910 00000054           ||$C$L18||:    
     911                            .dwpsn  file "/home/merdak/Apps/ti/ccs1020/ccs/tools/compiler/ti-cgt-arm_20.2.4.LTS/include/_d
     912                    ;----------------------------------------------------------------------
     913                    ; 353 | (__DOUBLE_BIASED_EXP_IS_MAX(d) == 0); }                                
     914                    ;----------------------------------------------------------------------
     915                    $C$DW$39        .dwtag  DW_TAG_TI_branch
     916                            .dwattr $C$DW$39, DW_AT_low_pc(0x00)
     917                            .dwattr $C$DW$39, DW_AT_TI_return
     918                    
     919 00000054 BDCE              POP       {A2, A3, A4, V3, V4, PC} ; [DPU_V7M3_PIPE]  ; [ORIG 16-BIT INS]
     920                            .dwcfi  cfa_offset, 0
     921                            .dwcfi  restore_reg, 7
     922                            .dwcfi  restore_reg, 6
     923                            .dwcfi  restore_reg, 3
     924                            .dwcfi  restore_reg, 2
     925                            .dwcfi  restore_reg, 1
     926                            ; BRANCH OCCURS                  ; [] 
     927                            .dwattr $C$DW$36, DW_AT_TI_end_file("/home/merdak/Apps/ti/ccs1020/ccs/tools/compiler/ti-cgt-ar
     928                            .dwattr $C$DW$36, DW_AT_TI_end_line(0x161)
     929                            .dwattr $C$DW$36, DW_AT_TI_end_column(0x30)
     930                            .dwendentry
     931                            .dwendtag $C$DW$36
     932                    
     933 00000000                   .sect   ".text:__isnormalf"
     934                            .clink
     935                            .thumbfunc __isnormalf
TI ARM Assembler Unix v20.2.4 Fri Apr  2 01:01:44 2021

Copyright (c) 1996-2018 Texas Instruments Incorporated
MadgwickAHRS.asm                                                     PAGE   18

     936 00000000                   .thumb
     937                            .global __isnormalf
     938                    
     939                    $C$DW$40        .dwtag  DW_TAG_subprogram
     940                            .dwattr $C$DW$40, DW_AT_name("__isnormalf")
     941                            .dwattr $C$DW$40, DW_AT_low_pc(__isnormalf)
     942                            .dwattr $C$DW$40, DW_AT_high_pc(0x00)
     943                            .dwattr $C$DW$40, DW_AT_TI_symbol_name("__isnormalf")
     944                            .dwattr $C$DW$40, DW_AT_external
     945                            .dwattr $C$DW$40, DW_AT_type(*$C$DW$T$10)
     946                            .dwattr $C$DW$40, DW_AT_TI_begin_file("/home/merdak/Apps/ti/ccs1020/ccs/tools/compiler/ti-cgt-
     947                            .dwattr $C$DW$40, DW_AT_TI_begin_line(0x163)
     948                            .dwattr $C$DW$40, DW_AT_TI_begin_column(0x25)
     949                            .dwattr $C$DW$40, DW_AT_decl_file("/home/merdak/Apps/ti/ccs1020/ccs/tools/compiler/ti-cgt-arm_
     950                            .dwattr $C$DW$40, DW_AT_decl_line(0x163)
     951                            .dwattr $C$DW$40, DW_AT_decl_column(0x25)
     952                            .dwattr $C$DW$40, DW_AT_TI_max_frame_size(0x08)
     953                            .dwpsn  file "/home/merdak/Apps/ti/ccs1020/ccs/tools/compiler/ti-cgt-arm_20.2.4.LTS/include/_d
     954                    
     955                            .dwfde $C$DW$CIE, __isnormalf
     956                    $C$DW$41        .dwtag  DW_TAG_formal_parameter
     957                            .dwattr $C$DW$41, DW_AT_name("f")
     958                            .dwattr $C$DW$41, DW_AT_TI_symbol_name("f")
     959                            .dwattr $C$DW$41, DW_AT_type(*$C$DW$T$16)
     960                            .dwattr $C$DW$41, DW_AT_location[DW_OP_reg0]
     961                    
     962                    ;----------------------------------------------------------------------
     963                    ; 355 | _CODE_ACCESS _INLINE_DEFINITION int __isnormalf(float f)               
     964                    ;----------------------------------------------------------------------
     965                    
     966                    ;*****************************************************************************
     967                    ;* FUNCTION NAME: __isnormalf                                                *
     968                    ;*                                                                           *
     969                    ;*   Regs Modified     : A1,A2,A3,SP,SR                                      *
     970                    ;*   Regs Used         : A1,A2,A3,SP,LR,SR                                   *
     971                    ;*   Local Frame Size  : 0 Args + 4 Auto + 0 Save = 4 byte                   *
     972                    ;*****************************************************************************
     973 00000000           __isnormalf:
     974                    ;* --------------------------------------------------------------------------*
     975                            .dwcfi  cfa_offset, 0
     976 00000000 0D08F1AD          SUB       SP, SP, #8            ; [DPU_V7M3_PIPE]  ; [KEEP 32-BIT INS]
     977                            .dwcfi  cfa_offset, 8
     978                    $C$DW$42        .dwtag  DW_TAG_variable
     979                            .dwattr $C$DW$42, DW_AT_name("f")
     980                            .dwattr $C$DW$42, DW_AT_TI_symbol_name("f")
     981                            .dwattr $C$DW$42, DW_AT_type(*$C$DW$T$16)
     982                            .dwattr $C$DW$42, DW_AT_location[DW_OP_breg13 0]
     983                    
     984                    ;----------------------------------------------------------------------
     985                    ; 356 | { return (__FLOAT_BIASED_EXP_IS_ZERO(f) == 0) &&                       
     986                    ;----------------------------------------------------------------------
     987 00000004 9000              STR       A1, [SP, #0]          ; [DPU_V7M3_PIPE] |356|  ; [ORIG 16-BIT INS]
     988                            .dwpsn  file "/home/merdak/Apps/ti/ccs1020/ccs/tools/compiler/ti-cgt-arm_20.2.4.LTS/include/_d
     989 00000006 9800              LDR       A1, [SP, #0]          ; [DPU_V7M3_PIPE] |356|  ; [ORIG 16-BIT INS]
     990 00000008 2100              MOVS      A2, #0                ; [DPU_V7M3_PIPE] |356|  ; [ORIG 16-BIT INS]
TI ARM Assembler Unix v20.2.4 Fri Apr  2 01:01:44 2021

Copyright (c) 1996-2018 Texas Instruments Incorporated
MadgwickAHRS.asm                                                     PAGE   19

     991 0000000a 52C7F3C0          UBFX      A3, A1, #23, #8       ; [DPU_V7M3_PIPE] |356|  ; [KEEP 32-BIT INS]
     992 0000000e 2000              MOVS      A1, #0                ; [DPU_V7M3_PIPE] |356|  ; [ORIG 16-BIT INS]
     993 00000010 B902              CBNZ      A3, ||$C$L19||        ; []  ; [ORIG 16-BIT INS]
     994                            ; BRANCHCC OCCURS {||$C$L19||}   ; [] |356| 
     995                    ;* --------------------------------------------------------------------------*
     996 00000012 2101              MOVS      A2, #1                ; [DPU_V7M3_PIPE] |356|  ; [ORIG 16-BIT INS]
     997                    ;* --------------------------------------------------------------------------*
     998 00000014           ||$C$L19||:    
     999 00000014 B959              CBNZ      A2, ||$C$L21||        ; []  ; [ORIG 16-BIT INS]
    1000                            ; BRANCHCC OCCURS {||$C$L21||}   ; [] |356| 
    1001                    ;* --------------------------------------------------------------------------*
    1002 00000016 9900              LDR       A2, [SP, #0]          ; [DPU_V7M3_PIPE] |356|  ; [ORIG 16-BIT INS]
    1003 00000018 0C09              LSRS      A2, A2, #16           ; [DPU_V7M3_PIPE] |356|  ; [ORIG 16-BIT INS]
    1004 0000001a 42FFF401          AND       A3, A2, #32640        ; [DPU_V7M3_PIPE] |356|  ; [KEEP 32-BIT INS]
    1005 0000001e 4FFFF5B2          CMP       A3, #32640            ; [DPU_V7M3_PIPE] |356|  ; [KEEP 32-BIT INS]
    1006 00000022 0100F04F          MOV       A2, #0                ; [DPU_V7M3_PIPE] |356|  ; [KEEP 32-BIT INS]
    1007 00000026 D100              BNE       ||$C$L20||            ; [DPU_V7M3_PIPE] |356|  ; [ORIG 16-BIT INS]
    1008                            ; BRANCHCC OCCURS {||$C$L20||}   ; [] |356| 
    1009                    ;* --------------------------------------------------------------------------*
    1010 00000028 2101              MOVS      A2, #1                ; [DPU_V7M3_PIPE] |356|  ; [ORIG 16-BIT INS]
    1011                    ;* --------------------------------------------------------------------------*
    1012 0000002a           ||$C$L20||:    
    1013 0000002a B901              CBNZ      A2, ||$C$L21||        ; []  ; [ORIG 16-BIT INS]
    1014                            ; BRANCHCC OCCURS {||$C$L21||}   ; [] |356| 
    1015                    ;* --------------------------------------------------------------------------*
    1016 0000002c 2001              MOVS      A1, #1                ; [DPU_V7M3_PIPE] |356|  ; [ORIG 16-BIT INS]
    1017                    ;* --------------------------------------------------------------------------*
    1018 0000002e           ||$C$L21||:    
    1019                            .dwpsn  file "/home/merdak/Apps/ti/ccs1020/ccs/tools/compiler/ti-cgt-arm_20.2.4.LTS/include/_d
    1020                    ;----------------------------------------------------------------------
    1021                    ; 357 | (__FLOAT_BIASED_EXP_IS_MAX(f) == 0); }                                 
    1022                    ;----------------------------------------------------------------------
    1023 0000002e B002              ADD       SP, SP, #8            ; [DPU_V7M3_PIPE]  ; [ORIG 16-BIT INS]
    1024                            .dwcfi  cfa_offset, 0
    1025                    $C$DW$43        .dwtag  DW_TAG_TI_branch
    1026                            .dwattr $C$DW$43, DW_AT_low_pc(0x00)
    1027                            .dwattr $C$DW$43, DW_AT_TI_return
    1028                    
    1029 00000030 4770              BX        LR                    ; [DPU_V7M3_PIPE]  ; [ORIG 16-BIT INS]
    1030                            ; BRANCH OCCURS                  ; [] 
    1031                            .dwattr $C$DW$40, DW_AT_TI_end_file("/home/merdak/Apps/ti/ccs1020/ccs/tools/compiler/ti-cgt-ar
    1032                            .dwattr $C$DW$40, DW_AT_TI_end_line(0x165)
    1033                            .dwattr $C$DW$40, DW_AT_TI_end_column(0x2f)
    1034                            .dwendentry
    1035                            .dwendtag $C$DW$40
    1036                    
    1037 00000000                   .sect   ".text:__isnormall"
    1038                            .clink
    1039                            .thumbfunc __isnormall
    1040 00000000                   .thumb
    1041                            .global __isnormall
    1042                    
    1043                    $C$DW$44        .dwtag  DW_TAG_subprogram
    1044                            .dwattr $C$DW$44, DW_AT_name("__isnormall")
    1045                            .dwattr $C$DW$44, DW_AT_low_pc(__isnormall)
TI ARM Assembler Unix v20.2.4 Fri Apr  2 01:01:44 2021

Copyright (c) 1996-2018 Texas Instruments Incorporated
MadgwickAHRS.asm                                                     PAGE   20

    1046                            .dwattr $C$DW$44, DW_AT_high_pc(0x00)
    1047                            .dwattr $C$DW$44, DW_AT_TI_symbol_name("__isnormall")
    1048                            .dwattr $C$DW$44, DW_AT_external
    1049                            .dwattr $C$DW$44, DW_AT_type(*$C$DW$T$10)
    1050                            .dwattr $C$DW$44, DW_AT_TI_begin_file("/home/merdak/Apps/ti/ccs1020/ccs/tools/compiler/ti-cgt-
    1051                            .dwattr $C$DW$44, DW_AT_TI_begin_line(0x167)
    1052                            .dwattr $C$DW$44, DW_AT_TI_begin_column(0x25)
    1053                            .dwattr $C$DW$44, DW_AT_decl_file("/home/merdak/Apps/ti/ccs1020/ccs/tools/compiler/ti-cgt-arm_
    1054                            .dwattr $C$DW$44, DW_AT_decl_line(0x167)
    1055                            .dwattr $C$DW$44, DW_AT_decl_column(0x25)
    1056                            .dwattr $C$DW$44, DW_AT_TI_max_frame_size(0x18)
    1057                            .dwpsn  file "/home/merdak/Apps/ti/ccs1020/ccs/tools/compiler/ti-cgt-arm_20.2.4.LTS/include/_d
    1058                    
    1059                            .dwfde $C$DW$CIE, __isnormall
    1060                    $C$DW$45        .dwtag  DW_TAG_formal_parameter
    1061                            .dwattr $C$DW$45, DW_AT_name("e")
    1062                            .dwattr $C$DW$45, DW_AT_TI_symbol_name("e")
    1063                            .dwattr $C$DW$45, DW_AT_type(*$C$DW$T$18)
    1064                            .dwattr $C$DW$45, DW_AT_location[DW_OP_reg0]
    1065                    
    1066                    ;----------------------------------------------------------------------
    1067                    ; 359 | _CODE_ACCESS _INLINE_DEFINITION int __isnormall(long double e)         
    1068                    ;----------------------------------------------------------------------
    1069                    
    1070                    ;*****************************************************************************
    1071                    ;* FUNCTION NAME: __isnormall                                                *
    1072                    ;*                                                                           *
    1073                    ;*   Regs Modified     : A1,A2,A3,A4,V3,V4,SP,SR                             *
    1074                    ;*   Regs Used         : A1,A2,A3,A4,V3,V4,SP,LR,SR                          *
    1075                    ;*   Local Frame Size  : 0 Args + 8 Auto + 12 Save = 20 byte                 *
    1076                    ;*****************************************************************************
    1077 00000000           __isnormall:
    1078                    ;* --------------------------------------------------------------------------*
    1079                            .dwcfi  cfa_offset, 0
    1080 00000000 B5CE              PUSH      {A2, A3, A4, V3, V4, LR} ; [DPU_V7M3_PIPE]  ; [ORIG 16-BIT INS]
    1081                            .dwcfi  cfa_offset, 24
    1082                            .dwcfi  save_reg_to_mem, 14, -4
    1083                            .dwcfi  save_reg_to_mem, 7, -8
    1084                            .dwcfi  save_reg_to_mem, 6, -12
    1085                            .dwcfi  save_reg_to_mem, 3, -16
    1086                            .dwcfi  save_reg_to_mem, 2, -20
    1087                            .dwcfi  save_reg_to_mem, 1, -24
    1088                    $C$DW$46        .dwtag  DW_TAG_variable
    1089                            .dwattr $C$DW$46, DW_AT_name("e")
    1090                            .dwattr $C$DW$46, DW_AT_TI_symbol_name("e")
    1091                            .dwattr $C$DW$46, DW_AT_type(*$C$DW$T$18)
    1092                            .dwattr $C$DW$46, DW_AT_location[DW_OP_breg13 0]
    1093                    
    1094                    ;----------------------------------------------------------------------
    1095                    ; 360 | { return (__LDOUBLE_BIASED_EXP_IS_ZERO(e) == 0) &&                     
    1096                    ;----------------------------------------------------------------------
    1097 00000002 0003E88D          STMIA     SP, {A1,A2}           ; [DPU_V7M3_PIPE] |360|  ; [KEEP 32-BIT INS]
    1098                            .dwpsn  file "/home/merdak/Apps/ti/ccs1020/ccs/tools/compiler/ti-cgt-arm_20.2.4.LTS/include/_d
    1099 00000006 0006E89D          LDMIA     SP, {A2,A3}           ; [DPU_V7M3_PIPE] |360|  ; [KEEP 32-BIT INS]
    1100 0000000a 2000              MOVS      A1, #0                ; [DPU_V7M3_PIPE] |360|  ; [ORIG 16-BIT INS]
TI ARM Assembler Unix v20.2.4 Fri Apr  2 01:01:44 2021

Copyright (c) 1996-2018 Texas Instruments Incorporated
MadgwickAHRS.asm                                                     PAGE   21

    1101 0000000c 2700              MOVS      V4, #0                ; [DPU_V7M3_PIPE] |360|  ; [ORIG 16-BIT INS]
    1102 0000000e 4611              MOV       A2, A3                ; [DPU_V7M3_PIPE] |360|  ; [ORIG 16-BIT INS]
    1103 00000010 000A              LSLS      A3, A2, #0            ; [DPU_V7M3_PIPE] |360|  ; [ORIG 16-BIT INS]
    1104 00000012 2100              MOVS      A2, #0                ; [DPU_V7M3_PIPE] |360|  ; [ORIG 16-BIT INS]
    1105 00000014 4311              ORRS      A2, A2, A3            ; [DPU_V7M3_PIPE] |360|  ; [ORIG 16-BIT INS]
    1106 00000016 0D0B              LSRS      A4, A2, #20           ; [DPU_V7M3_PIPE] |360|  ; [ORIG 16-BIT INS]
    1107 00000018 2200              MOVS      A3, #0                ; [DPU_V7M3_PIPE] |360|  ; [ORIG 16-BIT INS]
    1108 0000001a 71FFF240          MOV       A2, #2047             ; [DPU_V7M3_PIPE] |360|  ; [KEEP 32-BIT INS]
    1109 0000001e 17CE              ASRS      V3, A2, #31           ; [DPU_V7M3_PIPE] |360|  ; [ORIG 16-BIT INS]
    1110 00000020 4016              ANDS      V3, V3, A3            ; [DPU_V7M3_PIPE] |360|  ; [ORIG 16-BIT INS]
    1111 00000022 0103EA01          AND       A2, A2, A4            ; [DPU_V7M3_PIPE] |360|  ; [KEEP 32-BIT INS]
    1112 00000026 D100              BNE       ||$C$L22||            ; [DPU_V7M3_PIPE] |360|  ; [ORIG 16-BIT INS]
    1113                            ; BRANCHCC OCCURS {||$C$L22||}   ; [] |360| 
    1114                    ;* --------------------------------------------------------------------------*
    1115 00000028 2900              CMP       A2, #0                ; [DPU_V7M3_PIPE] |360|  ; [ORIG 16-BIT INS]
    1116                    ;* --------------------------------------------------------------------------*
    1117 0000002a           ||$C$L22||:    
    1118 0000002a D100              BNE       ||$C$L23||            ; [DPU_V7M3_PIPE] |360|  ; [ORIG 16-BIT INS]
    1119                            ; BRANCHCC OCCURS {||$C$L23||}   ; [] |360| 
    1120                    ;* --------------------------------------------------------------------------*
    1121 0000002c 2701              MOVS      V4, #1                ; [DPU_V7M3_PIPE] |360|  ; [ORIG 16-BIT INS]
    1122                    ;* --------------------------------------------------------------------------*
    1123 0000002e           ||$C$L23||:    
    1124 0000002e B98F              CBNZ      V4, ||$C$L25||        ; []  ; [ORIG 16-BIT INS]
    1125                            ; BRANCHCC OCCURS {||$C$L25||}   ; [] |360| 
    1126                    ;* --------------------------------------------------------------------------*
    1127 00000030 0006E89D          LDMIA     SP, {A2,A3}           ; [DPU_V7M3_PIPE] |360|  ; [KEEP 32-BIT INS]
    1128 00000034 4611              MOV       A2, A3                ; [DPU_V7M3_PIPE] |360|  ; [ORIG 16-BIT INS]
    1129 00000036 2700              MOVS      V4, #0                ; [DPU_V7M3_PIPE] |360|  ; [ORIG 16-BIT INS]
    1130 00000038 000A              LSLS      A3, A2, #0            ; [DPU_V7M3_PIPE] |360|  ; [ORIG 16-BIT INS]
    1131 0000003a 2100              MOVS      A2, #0                ; [DPU_V7M3_PIPE] |360|  ; [ORIG 16-BIT INS]
    1132 0000003c 4311              ORRS      A2, A2, A3            ; [DPU_V7M3_PIPE] |360|  ; [ORIG 16-BIT INS]
    1133 0000003e 0C0A              LSRS      A3, A2, #16           ; [DPU_V7M3_PIPE] |360|  ; [ORIG 16-BIT INS]
    1134 00000040 71F0F647          MOV       A2, #32752            ; [DPU_V7M3_PIPE] |360|  ; [KEEP 32-BIT INS]
    1135 00000044 4011              ANDS      A2, A2, A3            ; [DPU_V7M3_PIPE] |360|  ; [ORIG 16-BIT INS]
    1136 00000046 72F0F647          MOV       A3, #32752            ; [DPU_V7M3_PIPE] |360|  ; [KEEP 32-BIT INS]
    1137 0000004a 428A              CMP       A3, A2                ; [DPU_V7M3_PIPE] |360|  ; [ORIG 16-BIT INS]
    1138 0000004c D100              BNE       ||$C$L24||            ; [DPU_V7M3_PIPE] |360|  ; [ORIG 16-BIT INS]
    1139                            ; BRANCHCC OCCURS {||$C$L24||}   ; [] |360| 
    1140                    ;* --------------------------------------------------------------------------*
    1141 0000004e 2701              MOVS      V4, #1                ; [DPU_V7M3_PIPE] |360|  ; [ORIG 16-BIT INS]
    1142                    ;* --------------------------------------------------------------------------*
    1143 00000050           ||$C$L24||:    
    1144 00000050 B907              CBNZ      V4, ||$C$L25||        ; []  ; [ORIG 16-BIT INS]
    1145                            ; BRANCHCC OCCURS {||$C$L25||}   ; [] |360| 
    1146                    ;* --------------------------------------------------------------------------*
    1147 00000052 2001              MOVS      A1, #1                ; [DPU_V7M3_PIPE] |360|  ; [ORIG 16-BIT INS]
    1148                    ;* --------------------------------------------------------------------------*
    1149 00000054           ||$C$L25||:    
    1150                            .dwpsn  file "/home/merdak/Apps/ti/ccs1020/ccs/tools/compiler/ti-cgt-arm_20.2.4.LTS/include/_d
    1151                    ;----------------------------------------------------------------------
    1152                    ; 361 | (__LDOUBLE_BIASED_EXP_IS_MAX(e) == 0); }                               
    1153                    ;----------------------------------------------------------------------
    1154                    $C$DW$47        .dwtag  DW_TAG_TI_branch
    1155                            .dwattr $C$DW$47, DW_AT_low_pc(0x00)
TI ARM Assembler Unix v20.2.4 Fri Apr  2 01:01:44 2021

Copyright (c) 1996-2018 Texas Instruments Incorporated
MadgwickAHRS.asm                                                     PAGE   22

    1156                            .dwattr $C$DW$47, DW_AT_TI_return
    1157                    
    1158 00000054 BDCE              POP       {A2, A3, A4, V3, V4, PC} ; [DPU_V7M3_PIPE]  ; [ORIG 16-BIT INS]
    1159                            .dwcfi  cfa_offset, 0
    1160                            .dwcfi  restore_reg, 7
    1161                            .dwcfi  restore_reg, 6
    1162                            .dwcfi  restore_reg, 3
    1163                            .dwcfi  restore_reg, 2
    1164                            .dwcfi  restore_reg, 1
    1165                            ; BRANCH OCCURS                  ; [] 
    1166                            .dwattr $C$DW$44, DW_AT_TI_end_file("/home/merdak/Apps/ti/ccs1020/ccs/tools/compiler/ti-cgt-ar
    1167                            .dwattr $C$DW$44, DW_AT_TI_end_line(0x169)
    1168                            .dwattr $C$DW$44, DW_AT_TI_end_column(0x31)
    1169                            .dwendentry
    1170                            .dwendtag $C$DW$44
    1171                    
    1172 00000000                   .sect   ".text:__signbit"
    1173                            .clink
    1174                            .thumbfunc __signbit
    1175 00000000                   .thumb
    1176                            .global __signbit
    1177                    
    1178                    $C$DW$48        .dwtag  DW_TAG_subprogram
    1179                            .dwattr $C$DW$48, DW_AT_name("__signbit")
    1180                            .dwattr $C$DW$48, DW_AT_low_pc(__signbit)
    1181                            .dwattr $C$DW$48, DW_AT_high_pc(0x00)
    1182                            .dwattr $C$DW$48, DW_AT_TI_symbol_name("__signbit")
    1183                            .dwattr $C$DW$48, DW_AT_external
    1184                            .dwattr $C$DW$48, DW_AT_type(*$C$DW$T$10)
    1185                            .dwattr $C$DW$48, DW_AT_TI_begin_file("/home/merdak/Apps/ti/ccs1020/ccs/tools/compiler/ti-cgt-
    1186                            .dwattr $C$DW$48, DW_AT_TI_begin_line(0x16b)
    1187                            .dwattr $C$DW$48, DW_AT_TI_begin_column(0x25)
    1188                            .dwattr $C$DW$48, DW_AT_decl_file("/home/merdak/Apps/ti/ccs1020/ccs/tools/compiler/ti-cgt-arm_
    1189                            .dwattr $C$DW$48, DW_AT_decl_line(0x16b)
    1190                            .dwattr $C$DW$48, DW_AT_decl_column(0x25)
    1191                            .dwattr $C$DW$48, DW_AT_TI_max_frame_size(0x20)
    1192                            .dwpsn  file "/home/merdak/Apps/ti/ccs1020/ccs/tools/compiler/ti-cgt-arm_20.2.4.LTS/include/_d
    1193                    
    1194                            .dwfde $C$DW$CIE, __signbit
    1195                    $C$DW$49        .dwtag  DW_TAG_formal_parameter
    1196                            .dwattr $C$DW$49, DW_AT_name("d")
    1197                            .dwattr $C$DW$49, DW_AT_TI_symbol_name("d")
    1198                            .dwattr $C$DW$49, DW_AT_type(*$C$DW$T$17)
    1199                            .dwattr $C$DW$49, DW_AT_location[DW_OP_reg0]
    1200                    
    1201                    ;----------------------------------------------------------------------
    1202                    ; 363 | _CODE_ACCESS _INLINE_DEFINITION int __signbit(double d)                
    1203                    ;----------------------------------------------------------------------
    1204                    
    1205                    ;*****************************************************************************
    1206                    ;* FUNCTION NAME: __signbit                                                  *
    1207                    ;*                                                                           *
    1208                    ;*   Regs Modified     : A1,A2,A3,A4,V1,V2,V3,V4,SP,SR                       *
    1209                    ;*   Regs Used         : A1,A2,A3,A4,V1,V2,V3,V4,SP,LR,SR                    *
    1210                    ;*   Local Frame Size  : 0 Args + 8 Auto + 20 Save = 28 byte                 *
TI ARM Assembler Unix v20.2.4 Fri Apr  2 01:01:44 2021

Copyright (c) 1996-2018 Texas Instruments Incorporated
MadgwickAHRS.asm                                                     PAGE   23

    1211                    ;*****************************************************************************
    1212 00000000           __signbit:
    1213                    ;* --------------------------------------------------------------------------*
    1214                            .dwcfi  cfa_offset, 0
    1215 00000000 B5FE              PUSH      {A2, A3, A4, V1, V2, V3, V4, LR} ; [DPU_V7M3_PIPE]  ; [ORIG 16-BIT INS]
    1216                            .dwcfi  cfa_offset, 32
    1217                            .dwcfi  save_reg_to_mem, 14, -4
    1218                            .dwcfi  save_reg_to_mem, 7, -8
    1219                            .dwcfi  save_reg_to_mem, 6, -12
    1220                            .dwcfi  save_reg_to_mem, 5, -16
    1221                            .dwcfi  save_reg_to_mem, 4, -20
    1222                            .dwcfi  save_reg_to_mem, 3, -24
    1223                            .dwcfi  save_reg_to_mem, 2, -28
    1224                            .dwcfi  save_reg_to_mem, 1, -32
    1225                    $C$DW$50        .dwtag  DW_TAG_variable
    1226                            .dwattr $C$DW$50, DW_AT_name("d")
    1227                            .dwattr $C$DW$50, DW_AT_TI_symbol_name("d")
    1228                            .dwattr $C$DW$50, DW_AT_type(*$C$DW$T$17)
    1229                            .dwattr $C$DW$50, DW_AT_location[DW_OP_breg13 0]
    1230                    
    1231                    ;----------------------------------------------------------------------
    1232                    ; 364 | { return __DOUBLE_SIGN_BIT_ZERO(d) == 0; }                             
    1233                    ;----------------------------------------------------------------------
    1234 00000002 0003E88D          STMIA     SP, {A1,A2}           ; [DPU_V7M3_PIPE] |364|  ; [KEEP 32-BIT INS]
    1235                            .dwpsn  file "/home/merdak/Apps/ti/ccs1020/ccs/tools/compiler/ti-cgt-arm_20.2.4.LTS/include/_d
    1236 00000006 0006E89D          LDMIA     SP, {A2,A3}           ; [DPU_V7M3_PIPE] |364|  ; [KEEP 32-BIT INS]
    1237 0000000a 4611              MOV       A2, A3                ; [DPU_V7M3_PIPE] |364|  ; [ORIG 16-BIT INS]
    1238 0000000c 000CE89D          LDMIA     SP, {A3,A4}           ; [DPU_V7M3_PIPE] |364|  ; [KEEP 32-BIT INS]
    1239 00000010 2500              MOVS      V2, #0                ; [DPU_V7M3_PIPE] |364|  ; [ORIG 16-BIT INS]
    1240 00000012 4600F04F          MOV       V3, #-2147483648      ; [DPU_V7M3_PIPE] |364|  ; [KEEP 32-BIT INS]
    1241 00000016 2000              MOVS      A1, #0                ; [DPU_V7M3_PIPE] |364|  ; [ORIG 16-BIT INS]
    1242 00000018 2700              MOVS      V4, #0                ; [DPU_V7M3_PIPE] |364|  ; [ORIG 16-BIT INS]
    1243 0000001a 000C              LSLS      V1, A2, #0            ; [DPU_V7M3_PIPE] |364|  ; [ORIG 16-BIT INS]
    1244 0000001c 2100              MOVS      A2, #0                ; [DPU_V7M3_PIPE] |364|  ; [ORIG 16-BIT INS]
    1245 0000001e 4321              ORRS      A2, A2, V1            ; [DPU_V7M3_PIPE] |364|  ; [ORIG 16-BIT INS]
    1246 00000020 2300              MOVS      A4, #0                ; [DPU_V7M3_PIPE] |364|  ; [ORIG 16-BIT INS]
    1247 00000022 432A              ORRS      A3, A3, V2            ; [DPU_V7M3_PIPE] |364|  ; [ORIG 16-BIT INS]
    1248 00000024 400E              ANDS      V3, V3, A2            ; [DPU_V7M3_PIPE] |364|  ; [ORIG 16-BIT INS]
    1249 00000026 0302EA03          AND       A4, A4, A3            ; [DPU_V7M3_PIPE] |364|  ; [KEEP 32-BIT INS]
    1250 0000002a D100              BNE       ||$C$L26||            ; [DPU_V7M3_PIPE] |364|  ; [ORIG 16-BIT INS]
    1251                            ; BRANCHCC OCCURS {||$C$L26||}   ; [] |364| 
    1252                    ;* --------------------------------------------------------------------------*
    1253 0000002c 2B00              CMP       A4, #0                ; [DPU_V7M3_PIPE] |364|  ; [ORIG 16-BIT INS]
    1254                    ;* --------------------------------------------------------------------------*
    1255 0000002e           ||$C$L26||:    
    1256 0000002e D100              BNE       ||$C$L27||            ; [DPU_V7M3_PIPE] |364|  ; [ORIG 16-BIT INS]
    1257                            ; BRANCHCC OCCURS {||$C$L27||}   ; [] |364| 
    1258                    ;* --------------------------------------------------------------------------*
    1259 00000030 2701              MOVS      V4, #1                ; [DPU_V7M3_PIPE] |364|  ; [ORIG 16-BIT INS]
    1260                    ;* --------------------------------------------------------------------------*
    1261 00000032           ||$C$L27||:    
    1262 00000032 B907              CBNZ      V4, ||$C$L28||        ; []  ; [ORIG 16-BIT INS]
    1263                            ; BRANCHCC OCCURS {||$C$L28||}   ; [] |364| 
    1264                    ;* --------------------------------------------------------------------------*
    1265 00000034 2001              MOVS      A1, #1                ; [DPU_V7M3_PIPE] |364|  ; [ORIG 16-BIT INS]
TI ARM Assembler Unix v20.2.4 Fri Apr  2 01:01:44 2021

Copyright (c) 1996-2018 Texas Instruments Incorporated
MadgwickAHRS.asm                                                     PAGE   24

    1266                    ;* --------------------------------------------------------------------------*
    1267 00000036           ||$C$L28||:    
    1268                            .dwpsn  file "/home/merdak/Apps/ti/ccs1020/ccs/tools/compiler/ti-cgt-arm_20.2.4.LTS/include/_d
    1269                    $C$DW$51        .dwtag  DW_TAG_TI_branch
    1270                            .dwattr $C$DW$51, DW_AT_low_pc(0x00)
    1271                            .dwattr $C$DW$51, DW_AT_TI_return
    1272                    
    1273 00000036 BDFE              POP       {A2, A3, A4, V1, V2, V3, V4, PC} ; [DPU_V7M3_PIPE]  ; [ORIG 16-BIT INS]
    1274                            .dwcfi  cfa_offset, 0
    1275                            .dwcfi  restore_reg, 7
    1276                            .dwcfi  restore_reg, 6
    1277                            .dwcfi  restore_reg, 5
    1278                            .dwcfi  restore_reg, 4
    1279                            .dwcfi  restore_reg, 3
    1280                            .dwcfi  restore_reg, 2
    1281                            .dwcfi  restore_reg, 1
    1282                            ; BRANCH OCCURS                  ; [] 
    1283                            .dwattr $C$DW$48, DW_AT_TI_end_file("/home/merdak/Apps/ti/ccs1020/ccs/tools/compiler/ti-cgt-ar
    1284                            .dwattr $C$DW$48, DW_AT_TI_end_line(0x16c)
    1285                            .dwattr $C$DW$48, DW_AT_TI_end_column(0x2a)
    1286                            .dwendentry
    1287                            .dwendtag $C$DW$48
    1288                    
    1289 00000000                   .sect   ".text:__signbitf"
    1290                            .clink
    1291                            .thumbfunc __signbitf
    1292 00000000                   .thumb
    1293                            .global __signbitf
    1294                    
    1295                    $C$DW$52        .dwtag  DW_TAG_subprogram
    1296                            .dwattr $C$DW$52, DW_AT_name("__signbitf")
    1297                            .dwattr $C$DW$52, DW_AT_low_pc(__signbitf)
    1298                            .dwattr $C$DW$52, DW_AT_high_pc(0x00)
    1299                            .dwattr $C$DW$52, DW_AT_TI_symbol_name("__signbitf")
    1300                            .dwattr $C$DW$52, DW_AT_external
    1301                            .dwattr $C$DW$52, DW_AT_type(*$C$DW$T$10)
    1302                            .dwattr $C$DW$52, DW_AT_TI_begin_file("/home/merdak/Apps/ti/ccs1020/ccs/tools/compiler/ti-cgt-
    1303                            .dwattr $C$DW$52, DW_AT_TI_begin_line(0x16d)
    1304                            .dwattr $C$DW$52, DW_AT_TI_begin_column(0x25)
    1305                            .dwattr $C$DW$52, DW_AT_decl_file("/home/merdak/Apps/ti/ccs1020/ccs/tools/compiler/ti-cgt-arm_
    1306                            .dwattr $C$DW$52, DW_AT_decl_line(0x16d)
    1307                            .dwattr $C$DW$52, DW_AT_decl_column(0x25)
    1308                            .dwattr $C$DW$52, DW_AT_TI_max_frame_size(0x08)
    1309                            .dwpsn  file "/home/merdak/Apps/ti/ccs1020/ccs/tools/compiler/ti-cgt-arm_20.2.4.LTS/include/_d
    1310                    
    1311                            .dwfde $C$DW$CIE, __signbitf
    1312                    $C$DW$53        .dwtag  DW_TAG_formal_parameter
    1313                            .dwattr $C$DW$53, DW_AT_name("f")
    1314                            .dwattr $C$DW$53, DW_AT_TI_symbol_name("f")
    1315                            .dwattr $C$DW$53, DW_AT_type(*$C$DW$T$16)
    1316                            .dwattr $C$DW$53, DW_AT_location[DW_OP_reg0]
    1317                    
    1318                    ;----------------------------------------------------------------------
    1319                    ; 365 | _CODE_ACCESS _INLINE_DEFINITION int __signbitf(float f)                
    1320                    ;----------------------------------------------------------------------
TI ARM Assembler Unix v20.2.4 Fri Apr  2 01:01:44 2021

Copyright (c) 1996-2018 Texas Instruments Incorporated
MadgwickAHRS.asm                                                     PAGE   25

    1321                    
    1322                    ;*****************************************************************************
    1323                    ;* FUNCTION NAME: __signbitf                                                 *
    1324                    ;*                                                                           *
    1325                    ;*   Regs Modified     : A1,A2,A3,SP,SR                                      *
    1326                    ;*   Regs Used         : A1,A2,A3,SP,LR,SR                                   *
    1327                    ;*   Local Frame Size  : 0 Args + 4 Auto + 0 Save = 4 byte                   *
    1328                    ;*****************************************************************************
    1329 00000000           __signbitf:
    1330                    ;* --------------------------------------------------------------------------*
    1331                            .dwcfi  cfa_offset, 0
    1332 00000000 0D08F1AD          SUB       SP, SP, #8            ; [DPU_V7M3_PIPE]  ; [KEEP 32-BIT INS]
    1333                            .dwcfi  cfa_offset, 8
    1334                    $C$DW$54        .dwtag  DW_TAG_variable
    1335                            .dwattr $C$DW$54, DW_AT_name("f")
    1336                            .dwattr $C$DW$54, DW_AT_TI_symbol_name("f")
    1337                            .dwattr $C$DW$54, DW_AT_type(*$C$DW$T$16)
    1338                            .dwattr $C$DW$54, DW_AT_location[DW_OP_breg13 0]
    1339                    
    1340                    ;----------------------------------------------------------------------
    1341                    ; 366 | { return __FLOAT_SIGN_BIT_ZERO(f) == 0; }                              
    1342                    ;----------------------------------------------------------------------
    1343 00000004 9000              STR       A1, [SP, #0]          ; [DPU_V7M3_PIPE] |366|  ; [ORIG 16-BIT INS]
    1344                            .dwpsn  file "/home/merdak/Apps/ti/ccs1020/ccs/tools/compiler/ti-cgt-arm_20.2.4.LTS/include/_d
    1345 00000006 9A00              LDR       A3, [SP, #0]          ; [DPU_V7M3_PIPE] |366|  ; [ORIG 16-BIT INS]
    1346 00000008 2100              MOVS      A2, #0                ; [DPU_V7M3_PIPE] |366|  ; [ORIG 16-BIT INS]
    1347 0000000a 2000              MOVS      A1, #0                ; [DPU_V7M3_PIPE] |366|  ; [ORIG 16-BIT INS]
    1348 0000000c 0812              LSRS      A3, A3, #32           ; [DPU_V7M3_PIPE] |366|  ; [ORIG 16-BIT INS]
    1349 0000000e D200              BCS       ||$C$L29||            ; [DPU_V7M3_PIPE] |366|  ; [ORIG 16-BIT INS]
    1350                            ; BRANCHCC OCCURS {||$C$L29||}   ; [] |366| 
    1351                    ;* --------------------------------------------------------------------------*
    1352 00000010 2101              MOVS      A2, #1                ; [DPU_V7M3_PIPE] |366|  ; [ORIG 16-BIT INS]
    1353                    ;* --------------------------------------------------------------------------*
    1354 00000012           ||$C$L29||:    
    1355 00000012 B901              CBNZ      A2, ||$C$L30||        ; []  ; [ORIG 16-BIT INS]
    1356                            ; BRANCHCC OCCURS {||$C$L30||}   ; [] |366| 
    1357                    ;* --------------------------------------------------------------------------*
    1358 00000014 2001              MOVS      A1, #1                ; [DPU_V7M3_PIPE] |366|  ; [ORIG 16-BIT INS]
    1359                    ;* --------------------------------------------------------------------------*
    1360 00000016           ||$C$L30||:    
    1361                            .dwpsn  file "/home/merdak/Apps/ti/ccs1020/ccs/tools/compiler/ti-cgt-arm_20.2.4.LTS/include/_d
    1362 00000016 B002              ADD       SP, SP, #8            ; [DPU_V7M3_PIPE]  ; [ORIG 16-BIT INS]
    1363                            .dwcfi  cfa_offset, 0
    1364                    $C$DW$55        .dwtag  DW_TAG_TI_branch
    1365                            .dwattr $C$DW$55, DW_AT_low_pc(0x00)
    1366                            .dwattr $C$DW$55, DW_AT_TI_return
    1367                    
    1368 00000018 4770              BX        LR                    ; [DPU_V7M3_PIPE]  ; [ORIG 16-BIT INS]
    1369                            ; BRANCH OCCURS                  ; [] 
    1370                            .dwattr $C$DW$52, DW_AT_TI_end_file("/home/merdak/Apps/ti/ccs1020/ccs/tools/compiler/ti-cgt-ar
    1371                            .dwattr $C$DW$52, DW_AT_TI_end_line(0x16e)
    1372                            .dwattr $C$DW$52, DW_AT_TI_end_column(0x29)
    1373                            .dwendentry
    1374                            .dwendtag $C$DW$52
    1375                    
TI ARM Assembler Unix v20.2.4 Fri Apr  2 01:01:44 2021

Copyright (c) 1996-2018 Texas Instruments Incorporated
MadgwickAHRS.asm                                                     PAGE   26

    1376 00000000                   .sect   ".text:__signbitl"
    1377                            .clink
    1378                            .thumbfunc __signbitl
    1379 00000000                   .thumb
    1380                            .global __signbitl
    1381                    
    1382                    $C$DW$56        .dwtag  DW_TAG_subprogram
    1383                            .dwattr $C$DW$56, DW_AT_name("__signbitl")
    1384                            .dwattr $C$DW$56, DW_AT_low_pc(__signbitl)
    1385                            .dwattr $C$DW$56, DW_AT_high_pc(0x00)
    1386                            .dwattr $C$DW$56, DW_AT_TI_symbol_name("__signbitl")
    1387                            .dwattr $C$DW$56, DW_AT_external
    1388                            .dwattr $C$DW$56, DW_AT_type(*$C$DW$T$10)
    1389                            .dwattr $C$DW$56, DW_AT_TI_begin_file("/home/merdak/Apps/ti/ccs1020/ccs/tools/compiler/ti-cgt-
    1390                            .dwattr $C$DW$56, DW_AT_TI_begin_line(0x16f)
    1391                            .dwattr $C$DW$56, DW_AT_TI_begin_column(0x25)
    1392                            .dwattr $C$DW$56, DW_AT_decl_file("/home/merdak/Apps/ti/ccs1020/ccs/tools/compiler/ti-cgt-arm_
    1393                            .dwattr $C$DW$56, DW_AT_decl_line(0x16f)
    1394                            .dwattr $C$DW$56, DW_AT_decl_column(0x25)
    1395                            .dwattr $C$DW$56, DW_AT_TI_max_frame_size(0x20)
    1396                            .dwpsn  file "/home/merdak/Apps/ti/ccs1020/ccs/tools/compiler/ti-cgt-arm_20.2.4.LTS/include/_d
    1397                    
    1398                            .dwfde $C$DW$CIE, __signbitl
    1399                    $C$DW$57        .dwtag  DW_TAG_formal_parameter
    1400                            .dwattr $C$DW$57, DW_AT_name("e")
    1401                            .dwattr $C$DW$57, DW_AT_TI_symbol_name("e")
    1402                            .dwattr $C$DW$57, DW_AT_type(*$C$DW$T$18)
    1403                            .dwattr $C$DW$57, DW_AT_location[DW_OP_reg0]
    1404                    
    1405                    ;----------------------------------------------------------------------
    1406                    ; 367 | _CODE_ACCESS _INLINE_DEFINITION int __signbitl(long double e)          
    1407                    ;----------------------------------------------------------------------
    1408                    
    1409                    ;*****************************************************************************
    1410                    ;* FUNCTION NAME: __signbitl                                                 *
    1411                    ;*                                                                           *
    1412                    ;*   Regs Modified     : A1,A2,A3,A4,V1,V2,V3,V4,SP,SR                       *
    1413                    ;*   Regs Used         : A1,A2,A3,A4,V1,V2,V3,V4,SP,LR,SR                    *
    1414                    ;*   Local Frame Size  : 0 Args + 8 Auto + 20 Save = 28 byte                 *
    1415                    ;*****************************************************************************
    1416 00000000           __signbitl:
    1417                    ;* --------------------------------------------------------------------------*
    1418                            .dwcfi  cfa_offset, 0
    1419 00000000 B5FE              PUSH      {A2, A3, A4, V1, V2, V3, V4, LR} ; [DPU_V7M3_PIPE]  ; [ORIG 16-BIT INS]
    1420                            .dwcfi  cfa_offset, 32
    1421                            .dwcfi  save_reg_to_mem, 14, -4
    1422                            .dwcfi  save_reg_to_mem, 7, -8
    1423                            .dwcfi  save_reg_to_mem, 6, -12
    1424                            .dwcfi  save_reg_to_mem, 5, -16
    1425                            .dwcfi  save_reg_to_mem, 4, -20
    1426                            .dwcfi  save_reg_to_mem, 3, -24
    1427                            .dwcfi  save_reg_to_mem, 2, -28
    1428                            .dwcfi  save_reg_to_mem, 1, -32
    1429                    $C$DW$58        .dwtag  DW_TAG_variable
    1430                            .dwattr $C$DW$58, DW_AT_name("e")
TI ARM Assembler Unix v20.2.4 Fri Apr  2 01:01:44 2021

Copyright (c) 1996-2018 Texas Instruments Incorporated
MadgwickAHRS.asm                                                     PAGE   27

    1431                            .dwattr $C$DW$58, DW_AT_TI_symbol_name("e")
    1432                            .dwattr $C$DW$58, DW_AT_type(*$C$DW$T$18)
    1433                            .dwattr $C$DW$58, DW_AT_location[DW_OP_breg13 0]
    1434                    
    1435                    ;----------------------------------------------------------------------
    1436                    ; 368 | { return __LDOUBLE_SIGN_BIT_ZERO(e) == 0; }                            
    1437                    ;----------------------------------------------------------------------
    1438 00000002 0003E88D          STMIA     SP, {A1,A2}           ; [DPU_V7M3_PIPE] |368|  ; [KEEP 32-BIT INS]
    1439                            .dwpsn  file "/home/merdak/Apps/ti/ccs1020/ccs/tools/compiler/ti-cgt-arm_20.2.4.LTS/include/_d
    1440 00000006 0006E89D          LDMIA     SP, {A2,A3}           ; [DPU_V7M3_PIPE] |368|  ; [KEEP 32-BIT INS]
    1441 0000000a 4611              MOV       A2, A3                ; [DPU_V7M3_PIPE] |368|  ; [ORIG 16-BIT INS]
    1442 0000000c 000CE89D          LDMIA     SP, {A3,A4}           ; [DPU_V7M3_PIPE] |368|  ; [KEEP 32-BIT INS]
    1443 00000010 2500              MOVS      V2, #0                ; [DPU_V7M3_PIPE] |368|  ; [ORIG 16-BIT INS]
    1444 00000012 4600F04F          MOV       V3, #-2147483648      ; [DPU_V7M3_PIPE] |368|  ; [KEEP 32-BIT INS]
    1445 00000016 2000              MOVS      A1, #0                ; [DPU_V7M3_PIPE] |368|  ; [ORIG 16-BIT INS]
    1446 00000018 2700              MOVS      V4, #0                ; [DPU_V7M3_PIPE] |368|  ; [ORIG 16-BIT INS]
    1447 0000001a 000C              LSLS      V1, A2, #0            ; [DPU_V7M3_PIPE] |368|  ; [ORIG 16-BIT INS]
    1448 0000001c 2100              MOVS      A2, #0                ; [DPU_V7M3_PIPE] |368|  ; [ORIG 16-BIT INS]
    1449 0000001e 4321              ORRS      A2, A2, V1            ; [DPU_V7M3_PIPE] |368|  ; [ORIG 16-BIT INS]
    1450 00000020 2300              MOVS      A4, #0                ; [DPU_V7M3_PIPE] |368|  ; [ORIG 16-BIT INS]
    1451 00000022 432A              ORRS      A3, A3, V2            ; [DPU_V7M3_PIPE] |368|  ; [ORIG 16-BIT INS]
    1452 00000024 400E              ANDS      V3, V3, A2            ; [DPU_V7M3_PIPE] |368|  ; [ORIG 16-BIT INS]
    1453 00000026 0302EA03          AND       A4, A4, A3            ; [DPU_V7M3_PIPE] |368|  ; [KEEP 32-BIT INS]
    1454 0000002a D100              BNE       ||$C$L31||            ; [DPU_V7M3_PIPE] |368|  ; [ORIG 16-BIT INS]
    1455                            ; BRANCHCC OCCURS {||$C$L31||}   ; [] |368| 
    1456                    ;* --------------------------------------------------------------------------*
    1457 0000002c 2B00              CMP       A4, #0                ; [DPU_V7M3_PIPE] |368|  ; [ORIG 16-BIT INS]
    1458                    ;* --------------------------------------------------------------------------*
    1459 0000002e           ||$C$L31||:    
    1460 0000002e D100              BNE       ||$C$L32||            ; [DPU_V7M3_PIPE] |368|  ; [ORIG 16-BIT INS]
    1461                            ; BRANCHCC OCCURS {||$C$L32||}   ; [] |368| 
    1462                    ;* --------------------------------------------------------------------------*
    1463 00000030 2701              MOVS      V4, #1                ; [DPU_V7M3_PIPE] |368|  ; [ORIG 16-BIT INS]
    1464                    ;* --------------------------------------------------------------------------*
    1465 00000032           ||$C$L32||:    
    1466 00000032 B907              CBNZ      V4, ||$C$L33||        ; []  ; [ORIG 16-BIT INS]
    1467                            ; BRANCHCC OCCURS {||$C$L33||}   ; [] |368| 
    1468                    ;* --------------------------------------------------------------------------*
    1469 00000034 2001              MOVS      A1, #1                ; [DPU_V7M3_PIPE] |368|  ; [ORIG 16-BIT INS]
    1470                    ;* --------------------------------------------------------------------------*
    1471 00000036           ||$C$L33||:    
    1472                            .dwpsn  file "/home/merdak/Apps/ti/ccs1020/ccs/tools/compiler/ti-cgt-arm_20.2.4.LTS/include/_d
    1473                    $C$DW$59        .dwtag  DW_TAG_TI_branch
    1474                            .dwattr $C$DW$59, DW_AT_low_pc(0x00)
    1475                            .dwattr $C$DW$59, DW_AT_TI_return
    1476                    
    1477 00000036 BDFE              POP       {A2, A3, A4, V1, V2, V3, V4, PC} ; [DPU_V7M3_PIPE]  ; [ORIG 16-BIT INS]
    1478                            .dwcfi  cfa_offset, 0
    1479                            .dwcfi  restore_reg, 7
    1480                            .dwcfi  restore_reg, 6
    1481                            .dwcfi  restore_reg, 5
    1482                            .dwcfi  restore_reg, 4
    1483                            .dwcfi  restore_reg, 3
    1484                            .dwcfi  restore_reg, 2
    1485                            .dwcfi  restore_reg, 1
TI ARM Assembler Unix v20.2.4 Fri Apr  2 01:01:44 2021

Copyright (c) 1996-2018 Texas Instruments Incorporated
MadgwickAHRS.asm                                                     PAGE   28

    1486                            ; BRANCH OCCURS                  ; [] 
    1487                            .dwattr $C$DW$56, DW_AT_TI_end_file("/home/merdak/Apps/ti/ccs1020/ccs/tools/compiler/ti-cgt-ar
    1488                            .dwattr $C$DW$56, DW_AT_TI_end_line(0x170)
    1489                            .dwattr $C$DW$56, DW_AT_TI_end_column(0x2b)
    1490                            .dwendentry
    1491                            .dwendtag $C$DW$56
    1492                    
    1493 00000000                   .sect   ".text:__isinff"
    1494                            .clink
    1495                            .thumbfunc __isinff
    1496 00000000                   .thumb
    1497                            .global __isinff
    1498                    
    1499                    $C$DW$60        .dwtag  DW_TAG_subprogram
    1500                            .dwattr $C$DW$60, DW_AT_name("__isinff")
    1501                            .dwattr $C$DW$60, DW_AT_low_pc(__isinff)
    1502                            .dwattr $C$DW$60, DW_AT_high_pc(0x00)
    1503                            .dwattr $C$DW$60, DW_AT_TI_symbol_name("__isinff")
    1504                            .dwattr $C$DW$60, DW_AT_external
    1505                            .dwattr $C$DW$60, DW_AT_type(*$C$DW$T$10)
    1506                            .dwattr $C$DW$60, DW_AT_TI_begin_file("/home/merdak/Apps/ti/ccs1020/ccs/tools/compiler/ti-cgt-
    1507                            .dwattr $C$DW$60, DW_AT_TI_begin_line(0x176)
    1508                            .dwattr $C$DW$60, DW_AT_TI_begin_column(0x25)
    1509                            .dwattr $C$DW$60, DW_AT_decl_file("/home/merdak/Apps/ti/ccs1020/ccs/tools/compiler/ti-cgt-arm_
    1510                            .dwattr $C$DW$60, DW_AT_decl_line(0x176)
    1511                            .dwattr $C$DW$60, DW_AT_decl_column(0x25)
    1512                            .dwattr $C$DW$60, DW_AT_TI_max_frame_size(0x08)
    1513                            .dwpsn  file "/home/merdak/Apps/ti/ccs1020/ccs/tools/compiler/ti-cgt-arm_20.2.4.LTS/include/_d
    1514                    
    1515                            .dwfde $C$DW$CIE, __isinff
    1516                    $C$DW$61        .dwtag  DW_TAG_formal_parameter
    1517                            .dwattr $C$DW$61, DW_AT_name("f")
    1518                            .dwattr $C$DW$61, DW_AT_TI_symbol_name("f")
    1519                            .dwattr $C$DW$61, DW_AT_type(*$C$DW$T$16)
    1520                            .dwattr $C$DW$61, DW_AT_location[DW_OP_reg0]
    1521                    
    1522                    ;----------------------------------------------------------------------
    1523                    ; 374 | _CODE_ACCESS _INLINE_DEFINITION int __isinff(float f)                  
    1524                    ;----------------------------------------------------------------------
    1525                    
    1526                    ;*****************************************************************************
    1527                    ;* FUNCTION NAME: __isinff                                                   *
    1528                    ;*                                                                           *
    1529                    ;*   Regs Modified     : A1,A2,SP,SR                                         *
    1530                    ;*   Regs Used         : A1,A2,SP,LR,SR                                      *
    1531                    ;*   Local Frame Size  : 0 Args + 4 Auto + 0 Save = 4 byte                   *
    1532                    ;*****************************************************************************
    1533 00000000           __isinff:
    1534                    ;* --------------------------------------------------------------------------*
    1535                            .dwcfi  cfa_offset, 0
    1536 00000000 0D08F1AD          SUB       SP, SP, #8            ; [DPU_V7M3_PIPE]  ; [KEEP 32-BIT INS]
    1537                            .dwcfi  cfa_offset, 8
    1538                    $C$DW$62        .dwtag  DW_TAG_variable
    1539                            .dwattr $C$DW$62, DW_AT_name("f")
    1540                            .dwattr $C$DW$62, DW_AT_TI_symbol_name("f")
TI ARM Assembler Unix v20.2.4 Fri Apr  2 01:01:44 2021

Copyright (c) 1996-2018 Texas Instruments Incorporated
MadgwickAHRS.asm                                                     PAGE   29

    1541                            .dwattr $C$DW$62, DW_AT_type(*$C$DW$T$16)
    1542                            .dwattr $C$DW$62, DW_AT_location[DW_OP_breg13 0]
    1543                    
    1544                    ;----------------------------------------------------------------------
    1545                    ; 375 | { return __FLOAT_BIASED_EXP_IS_MAX(f) && __FLOAT_FRAC_PART_IS_ZERO(f);
    1546                    ;     | }                                                                      
    1547                    ;----------------------------------------------------------------------
    1548 00000004 9000              STR       A1, [SP, #0]          ; [DPU_V7M3_PIPE] |375|  ; [ORIG 16-BIT INS]
    1549                            .dwpsn  file "/home/merdak/Apps/ti/ccs1020/ccs/tools/compiler/ti-cgt-arm_20.2.4.LTS/include/_d
    1550 00000006 9800              LDR       A1, [SP, #0]          ; [DPU_V7M3_PIPE] |375|  ; [ORIG 16-BIT INS]
    1551 00000008 2100              MOVS      A2, #0                ; [DPU_V7M3_PIPE] |375|  ; [ORIG 16-BIT INS]
    1552 0000000a 0C00              LSRS      A1, A1, #16           ; [DPU_V7M3_PIPE] |375|  ; [ORIG 16-BIT INS]
    1553 0000000c 40FFF400          AND       A1, A1, #32640        ; [DPU_V7M3_PIPE] |375|  ; [KEEP 32-BIT INS]
    1554 00000010 4FFFF5B0          CMP       A1, #32640            ; [DPU_V7M3_PIPE] |375|  ; [KEEP 32-BIT INS]
    1555 00000014 D104              BNE       ||$C$L34||            ; [DPU_V7M3_PIPE] |375|  ; [ORIG 16-BIT INS]
    1556                            ; BRANCHCC OCCURS {||$C$L34||}   ; [] |375| 
    1557                    ;* --------------------------------------------------------------------------*
    1558 00000016 9800              LDR       A1, [SP, #0]          ; [DPU_V7M3_PIPE] |375|  ; [ORIG 16-BIT INS]
    1559 00000018 50DFF36F          BFC       A1, #23, #9           ; [DPU_V7M3_PIPE] |375|  ; [KEEP 32-BIT INS]
    1560 0000001c B900              CBNZ      A1, ||$C$L34||        ; []  ; [ORIG 16-BIT INS]
    1561                            ; BRANCHCC OCCURS {||$C$L34||}   ; [] |375| 
    1562                    ;* --------------------------------------------------------------------------*
    1563 0000001e 2101              MOVS      A2, #1                ; [DPU_V7M3_PIPE] |375|  ; [ORIG 16-BIT INS]
    1564                    ;* --------------------------------------------------------------------------*
    1565 00000020           ||$C$L34||:    
    1566 00000020 4608              MOV       A1, A2                ; [DPU_V7M3_PIPE] |375|  ; [ORIG 16-BIT INS]
    1567                            .dwpsn  file "/home/merdak/Apps/ti/ccs1020/ccs/tools/compiler/ti-cgt-arm_20.2.4.LTS/include/_d
    1568 00000022 B002              ADD       SP, SP, #8            ; [DPU_V7M3_PIPE]  ; [ORIG 16-BIT INS]
    1569                            .dwcfi  cfa_offset, 0
    1570                    $C$DW$63        .dwtag  DW_TAG_TI_branch
    1571                            .dwattr $C$DW$63, DW_AT_low_pc(0x00)
    1572                            .dwattr $C$DW$63, DW_AT_TI_return
    1573                    
    1574 00000024 4770              BX        LR                    ; [DPU_V7M3_PIPE]  ; [ORIG 16-BIT INS]
    1575                            ; BRANCH OCCURS                  ; [] 
    1576                            .dwattr $C$DW$60, DW_AT_TI_end_file("/home/merdak/Apps/ti/ccs1020/ccs/tools/compiler/ti-cgt-ar
    1577                            .dwattr $C$DW$60, DW_AT_TI_end_line(0x177)
    1578                            .dwattr $C$DW$60, DW_AT_TI_end_column(0x48)
    1579                            .dwendentry
    1580                            .dwendtag $C$DW$60
    1581                    
    1582 00000000                   .sect   ".text:__isinf"
    1583                            .clink
    1584                            .thumbfunc __isinf
    1585 00000000                   .thumb
    1586                            .global __isinf
    1587                    
    1588                    $C$DW$64        .dwtag  DW_TAG_subprogram
    1589                            .dwattr $C$DW$64, DW_AT_name("__isinf")
    1590                            .dwattr $C$DW$64, DW_AT_low_pc(__isinf)
    1591                            .dwattr $C$DW$64, DW_AT_high_pc(0x00)
    1592                            .dwattr $C$DW$64, DW_AT_TI_symbol_name("__isinf")
    1593                            .dwattr $C$DW$64, DW_AT_external
    1594                            .dwattr $C$DW$64, DW_AT_type(*$C$DW$T$10)
    1595                            .dwattr $C$DW$64, DW_AT_TI_begin_file("/home/merdak/Apps/ti/ccs1020/ccs/tools/compiler/ti-cgt-
TI ARM Assembler Unix v20.2.4 Fri Apr  2 01:01:44 2021

Copyright (c) 1996-2018 Texas Instruments Incorporated
MadgwickAHRS.asm                                                     PAGE   30

    1596                            .dwattr $C$DW$64, DW_AT_TI_begin_line(0x178)
    1597                            .dwattr $C$DW$64, DW_AT_TI_begin_column(0x25)
    1598                            .dwattr $C$DW$64, DW_AT_decl_file("/home/merdak/Apps/ti/ccs1020/ccs/tools/compiler/ti-cgt-arm_
    1599                            .dwattr $C$DW$64, DW_AT_decl_line(0x178)
    1600                            .dwattr $C$DW$64, DW_AT_decl_column(0x25)
    1601                            .dwattr $C$DW$64, DW_AT_TI_max_frame_size(0x18)
    1602                            .dwpsn  file "/home/merdak/Apps/ti/ccs1020/ccs/tools/compiler/ti-cgt-arm_20.2.4.LTS/include/_d
    1603                    
    1604                            .dwfde $C$DW$CIE, __isinf
    1605                    $C$DW$65        .dwtag  DW_TAG_formal_parameter
    1606                            .dwattr $C$DW$65, DW_AT_name("d")
    1607                            .dwattr $C$DW$65, DW_AT_TI_symbol_name("d")
    1608                            .dwattr $C$DW$65, DW_AT_type(*$C$DW$T$17)
    1609                            .dwattr $C$DW$65, DW_AT_location[DW_OP_reg0]
    1610                    
    1611                    ;----------------------------------------------------------------------
    1612                    ; 376 | _CODE_ACCESS _INLINE_DEFINITION int __isinf (double d)                 
    1613                    ;----------------------------------------------------------------------
    1614                    
    1615                    ;*****************************************************************************
    1616                    ;* FUNCTION NAME: __isinf                                                    *
    1617                    ;*                                                                           *
    1618                    ;*   Regs Modified     : A1,A2,A3,A4,V1,V2,V4,SP,SR                          *
    1619                    ;*   Regs Used         : A1,A2,A3,A4,V1,V2,V4,SP,LR,SR                       *
    1620                    ;*   Local Frame Size  : 0 Args + 8 Auto + 16 Save = 24 byte                 *
    1621                    ;*****************************************************************************
    1622 00000000           __isinf:
    1623                    ;* --------------------------------------------------------------------------*
    1624                            .dwcfi  cfa_offset, 0
    1625 00000000 B5BC              PUSH      {A3, A4, V1, V2, V4, LR} ; [DPU_V7M3_PIPE]  ; [ORIG 16-BIT INS]
    1626                            .dwcfi  cfa_offset, 24
    1627                            .dwcfi  save_reg_to_mem, 14, -4
    1628                            .dwcfi  save_reg_to_mem, 7, -8
    1629                            .dwcfi  save_reg_to_mem, 5, -12
    1630                            .dwcfi  save_reg_to_mem, 4, -16
    1631                            .dwcfi  save_reg_to_mem, 3, -20
    1632                            .dwcfi  save_reg_to_mem, 2, -24
    1633                    $C$DW$66        .dwtag  DW_TAG_variable
    1634                            .dwattr $C$DW$66, DW_AT_name("d")
    1635                            .dwattr $C$DW$66, DW_AT_TI_symbol_name("d")
    1636                            .dwattr $C$DW$66, DW_AT_type(*$C$DW$T$17)
    1637                            .dwattr $C$DW$66, DW_AT_location[DW_OP_breg13 0]
    1638                    
    1639                    ;----------------------------------------------------------------------
    1640                    ; 377 | { return __DOUBLE_BIASED_EXP_IS_MAX(d) && __DOUBLE_FRAC_PART_IS_ZERO(d)
    1641                    ;     | ; }                                                                    
    1642                    ;----------------------------------------------------------------------
    1643 00000002 0003E88D          STMIA     SP, {A1,A2}           ; [DPU_V7M3_PIPE] |377|  ; [KEEP 32-BIT INS]
    1644                            .dwpsn  file "/home/merdak/Apps/ti/ccs1020/ccs/tools/compiler/ti-cgt-arm_20.2.4.LTS/include/_d
    1645 00000006 0006E89D          LDMIA     SP, {A2,A3}           ; [DPU_V7M3_PIPE] |377|  ; [KEEP 32-BIT INS]
    1646 0000000a 2000              MOVS      A1, #0                ; [DPU_V7M3_PIPE] |377|  ; [ORIG 16-BIT INS]
    1647 0000000c 4611              MOV       A2, A3                ; [DPU_V7M3_PIPE] |377|  ; [ORIG 16-BIT INS]
    1648 0000000e 000A              LSLS      A3, A2, #0            ; [DPU_V7M3_PIPE] |377|  ; [ORIG 16-BIT INS]
    1649 00000010 2100              MOVS      A2, #0                ; [DPU_V7M3_PIPE] |377|  ; [ORIG 16-BIT INS]
    1650 00000012 4311              ORRS      A2, A2, A3            ; [DPU_V7M3_PIPE] |377|  ; [ORIG 16-BIT INS]
TI ARM Assembler Unix v20.2.4 Fri Apr  2 01:01:44 2021

Copyright (c) 1996-2018 Texas Instruments Incorporated
MadgwickAHRS.asm                                                     PAGE   31

    1651 00000014 0C0A              LSRS      A3, A2, #16           ; [DPU_V7M3_PIPE] |377|  ; [ORIG 16-BIT INS]
    1652 00000016 71F0F647          MOV       A2, #32752            ; [DPU_V7M3_PIPE] |377|  ; [KEEP 32-BIT INS]
    1653 0000001a 4011              ANDS      A2, A2, A3            ; [DPU_V7M3_PIPE] |377|  ; [ORIG 16-BIT INS]
    1654 0000001c 72F0F647          MOV       A3, #32752            ; [DPU_V7M3_PIPE] |377|  ; [KEEP 32-BIT INS]
    1655 00000020 428A              CMP       A3, A2                ; [DPU_V7M3_PIPE] |377|  ; [ORIG 16-BIT INS]
    1656 00000022 D112              BNE       ||$C$L36||            ; [DPU_V7M3_PIPE] |377|  ; [ORIG 16-BIT INS]
    1657                            ; BRANCHCC OCCURS {||$C$L36||}   ; [] |377| 
    1658                    ;* --------------------------------------------------------------------------*
    1659 00000024 0006E89D          LDMIA     SP, {A2,A3}           ; [DPU_V7M3_PIPE] |377|  ; [KEEP 32-BIT INS]
    1660 00000028 4F08              LDR       V4, $C$CON3           ; [DPU_V7M3_PIPE] |377|  ; [ORIG 16-BIT INS]
    1661 0000002a 4611              MOV       A2, A3                ; [DPU_V7M3_PIPE] |377|  ; [ORIG 16-BIT INS]
    1662 0000002c 000CE89D          LDMIA     SP, {A3,A4}           ; [DPU_V7M3_PIPE] |377|  ; [KEEP 32-BIT INS]
    1663 00000030 2500              MOVS      V2, #0                ; [DPU_V7M3_PIPE] |377|  ; [ORIG 16-BIT INS]
    1664 00000032 000C              LSLS      V1, A2, #0            ; [DPU_V7M3_PIPE] |377|  ; [ORIG 16-BIT INS]
    1665 00000034 2100              MOVS      A2, #0                ; [DPU_V7M3_PIPE] |377|  ; [ORIG 16-BIT INS]
    1666 00000036 33FFF04F          MOV       A4, #-1               ; [DPU_V7M3_PIPE] |377|  ; [KEEP 32-BIT INS]
    1667 0000003a 432A              ORRS      A3, A3, V2            ; [DPU_V7M3_PIPE] |377|  ; [ORIG 16-BIT INS]
    1668 0000003c 4321              ORRS      A2, A2, V1            ; [DPU_V7M3_PIPE] |377|  ; [ORIG 16-BIT INS]
    1669 0000003e 4013              ANDS      A4, A4, A3            ; [DPU_V7M3_PIPE] |377|  ; [ORIG 16-BIT INS]
    1670 00000040 400F              ANDS      V4, V4, A2            ; [DPU_V7M3_PIPE] |377|  ; [ORIG 16-BIT INS]
    1671 00000042 D100              BNE       ||$C$L35||            ; [DPU_V7M3_PIPE] |377|  ; [ORIG 16-BIT INS]
    1672                            ; BRANCHCC OCCURS {||$C$L35||}   ; [] |377| 
    1673                    ;* --------------------------------------------------------------------------*
    1674 00000044 2B00              CMP       A4, #0                ; [DPU_V7M3_PIPE] |377|  ; [ORIG 16-BIT INS]
    1675                    ;* --------------------------------------------------------------------------*
    1676 00000046           ||$C$L35||:    
    1677 00000046 D100              BNE       ||$C$L36||            ; [DPU_V7M3_PIPE] |377|  ; [ORIG 16-BIT INS]
    1678                            ; BRANCHCC OCCURS {||$C$L36||}   ; [] |377| 
    1679                    ;* --------------------------------------------------------------------------*
    1680 00000048 2001              MOVS      A1, #1                ; [DPU_V7M3_PIPE] |377|  ; [ORIG 16-BIT INS]
    1681                    ;* --------------------------------------------------------------------------*
    1682 0000004a           ||$C$L36||:    
    1683                            .dwpsn  file "/home/merdak/Apps/ti/ccs1020/ccs/tools/compiler/ti-cgt-arm_20.2.4.LTS/include/_d
    1684                    $C$DW$67        .dwtag  DW_TAG_TI_branch
    1685                            .dwattr $C$DW$67, DW_AT_low_pc(0x00)
    1686                            .dwattr $C$DW$67, DW_AT_TI_return
    1687                    
    1688 0000004a BDBC              POP       {A3, A4, V1, V2, V4, PC} ; [DPU_V7M3_PIPE]  ; [ORIG 16-BIT INS]
    1689                            .dwcfi  cfa_offset, 0
    1690                            .dwcfi  restore_reg, 7
    1691                            .dwcfi  restore_reg, 5
    1692                            .dwcfi  restore_reg, 4
    1693                            .dwcfi  restore_reg, 3
    1694                            .dwcfi  restore_reg, 2
    1695                            ; BRANCH OCCURS                  ; [] 
    1696                            .dwattr $C$DW$64, DW_AT_TI_end_file("/home/merdak/Apps/ti/ccs1020/ccs/tools/compiler/ti-cgt-ar
    1697                            .dwattr $C$DW$64, DW_AT_TI_end_line(0x179)
    1698                            .dwattr $C$DW$64, DW_AT_TI_end_column(0x4a)
    1699                            .dwendentry
    1700                            .dwendtag $C$DW$64
    1701                    
    1702 00000000                   .sect   ".text:__isinfl"
    1703                            .clink
    1704                            .thumbfunc __isinfl
    1705 00000000                   .thumb
TI ARM Assembler Unix v20.2.4 Fri Apr  2 01:01:44 2021

Copyright (c) 1996-2018 Texas Instruments Incorporated
MadgwickAHRS.asm                                                     PAGE   32

    1706                            .global __isinfl
    1707                    
    1708                    $C$DW$68        .dwtag  DW_TAG_subprogram
    1709                            .dwattr $C$DW$68, DW_AT_name("__isinfl")
    1710                            .dwattr $C$DW$68, DW_AT_low_pc(__isinfl)
    1711                            .dwattr $C$DW$68, DW_AT_high_pc(0x00)
    1712                            .dwattr $C$DW$68, DW_AT_TI_symbol_name("__isinfl")
    1713                            .dwattr $C$DW$68, DW_AT_external
    1714                            .dwattr $C$DW$68, DW_AT_type(*$C$DW$T$10)
    1715                            .dwattr $C$DW$68, DW_AT_TI_begin_file("/home/merdak/Apps/ti/ccs1020/ccs/tools/compiler/ti-cgt-
    1716                            .dwattr $C$DW$68, DW_AT_TI_begin_line(0x17a)
    1717                            .dwattr $C$DW$68, DW_AT_TI_begin_column(0x25)
    1718                            .dwattr $C$DW$68, DW_AT_decl_file("/home/merdak/Apps/ti/ccs1020/ccs/tools/compiler/ti-cgt-arm_
    1719                            .dwattr $C$DW$68, DW_AT_decl_line(0x17a)
    1720                            .dwattr $C$DW$68, DW_AT_decl_column(0x25)
    1721                            .dwattr $C$DW$68, DW_AT_TI_max_frame_size(0x18)
    1722                            .dwpsn  file "/home/merdak/Apps/ti/ccs1020/ccs/tools/compiler/ti-cgt-arm_20.2.4.LTS/include/_d
    1723                    
    1724                            .dwfde $C$DW$CIE, __isinfl
    1725                    $C$DW$69        .dwtag  DW_TAG_formal_parameter
    1726                            .dwattr $C$DW$69, DW_AT_name("e")
    1727                            .dwattr $C$DW$69, DW_AT_TI_symbol_name("e")
    1728                            .dwattr $C$DW$69, DW_AT_type(*$C$DW$T$18)
    1729                            .dwattr $C$DW$69, DW_AT_location[DW_OP_reg0]
    1730                    
    1731                    ;----------------------------------------------------------------------
    1732                    ; 378 | _CODE_ACCESS _INLINE_DEFINITION int __isinfl(long double e)            
    1733                    ;----------------------------------------------------------------------
    1734                    
    1735                    ;*****************************************************************************
    1736                    ;* FUNCTION NAME: __isinfl                                                   *
    1737                    ;*                                                                           *
    1738                    ;*   Regs Modified     : A1,A2,A3,A4,V1,V2,V4,SP,SR                          *
    1739                    ;*   Regs Used         : A1,A2,A3,A4,V1,V2,V4,SP,LR,SR                       *
    1740                    ;*   Local Frame Size  : 0 Args + 8 Auto + 16 Save = 24 byte                 *
    1741                    ;*****************************************************************************
    1742 00000000           __isinfl:
    1743                    ;* --------------------------------------------------------------------------*
    1744                            .dwcfi  cfa_offset, 0
    1745 00000000 B5BC              PUSH      {A3, A4, V1, V2, V4, LR} ; [DPU_V7M3_PIPE]  ; [ORIG 16-BIT INS]
    1746                            .dwcfi  cfa_offset, 24
    1747                            .dwcfi  save_reg_to_mem, 14, -4
    1748                            .dwcfi  save_reg_to_mem, 7, -8
    1749                            .dwcfi  save_reg_to_mem, 5, -12
    1750                            .dwcfi  save_reg_to_mem, 4, -16
    1751                            .dwcfi  save_reg_to_mem, 3, -20
    1752                            .dwcfi  save_reg_to_mem, 2, -24
    1753                    $C$DW$70        .dwtag  DW_TAG_variable
    1754                            .dwattr $C$DW$70, DW_AT_name("e")
    1755                            .dwattr $C$DW$70, DW_AT_TI_symbol_name("e")
    1756                            .dwattr $C$DW$70, DW_AT_type(*$C$DW$T$18)
    1757                            .dwattr $C$DW$70, DW_AT_location[DW_OP_breg13 0]
    1758                    
    1759                    ;----------------------------------------------------------------------
    1760                    ; 379 | { return __LDOUBLE_BIASED_EXP_IS_MAX(e) && __LDOUBLE_FRAC_PART_IS_ZERO(
TI ARM Assembler Unix v20.2.4 Fri Apr  2 01:01:44 2021

Copyright (c) 1996-2018 Texas Instruments Incorporated
MadgwickAHRS.asm                                                     PAGE   33

    1761                    ;     | e); }                                                                  
    1762                    ;----------------------------------------------------------------------
    1763 00000002 0003E88D          STMIA     SP, {A1,A2}           ; [DPU_V7M3_PIPE] |379|  ; [KEEP 32-BIT INS]
    1764                            .dwpsn  file "/home/merdak/Apps/ti/ccs1020/ccs/tools/compiler/ti-cgt-arm_20.2.4.LTS/include/_d
    1765 00000006 0006E89D          LDMIA     SP, {A2,A3}           ; [DPU_V7M3_PIPE] |379|  ; [KEEP 32-BIT INS]
    1766 0000000a 2000              MOVS      A1, #0                ; [DPU_V7M3_PIPE] |379|  ; [ORIG 16-BIT INS]
    1767 0000000c 4611              MOV       A2, A3                ; [DPU_V7M3_PIPE] |379|  ; [ORIG 16-BIT INS]
    1768 0000000e 000A              LSLS      A3, A2, #0            ; [DPU_V7M3_PIPE] |379|  ; [ORIG 16-BIT INS]
    1769 00000010 2100              MOVS      A2, #0                ; [DPU_V7M3_PIPE] |379|  ; [ORIG 16-BIT INS]
    1770 00000012 4311              ORRS      A2, A2, A3            ; [DPU_V7M3_PIPE] |379|  ; [ORIG 16-BIT INS]
    1771 00000014 0C0A              LSRS      A3, A2, #16           ; [DPU_V7M3_PIPE] |379|  ; [ORIG 16-BIT INS]
    1772 00000016 71F0F647          MOV       A2, #32752            ; [DPU_V7M3_PIPE] |379|  ; [KEEP 32-BIT INS]
    1773 0000001a 4011              ANDS      A2, A2, A3            ; [DPU_V7M3_PIPE] |379|  ; [ORIG 16-BIT INS]
    1774 0000001c 72F0F647          MOV       A3, #32752            ; [DPU_V7M3_PIPE] |379|  ; [KEEP 32-BIT INS]
    1775 00000020 428A              CMP       A3, A2                ; [DPU_V7M3_PIPE] |379|  ; [ORIG 16-BIT INS]
    1776 00000022 D112              BNE       ||$C$L38||            ; [DPU_V7M3_PIPE] |379|  ; [ORIG 16-BIT INS]
    1777                            ; BRANCHCC OCCURS {||$C$L38||}   ; [] |379| 
    1778                    ;* --------------------------------------------------------------------------*
    1779 00000024 0006E89D          LDMIA     SP, {A2,A3}           ; [DPU_V7M3_PIPE] |379|  ; [KEEP 32-BIT INS]
    1780 00000028 4F08              LDR       V4, $C$CON4           ; [DPU_V7M3_PIPE] |379|  ; [ORIG 16-BIT INS]
    1781 0000002a 4611              MOV       A2, A3                ; [DPU_V7M3_PIPE] |379|  ; [ORIG 16-BIT INS]
    1782 0000002c 000CE89D          LDMIA     SP, {A3,A4}           ; [DPU_V7M3_PIPE] |379|  ; [KEEP 32-BIT INS]
    1783 00000030 2500              MOVS      V2, #0                ; [DPU_V7M3_PIPE] |379|  ; [ORIG 16-BIT INS]
    1784 00000032 000C              LSLS      V1, A2, #0            ; [DPU_V7M3_PIPE] |379|  ; [ORIG 16-BIT INS]
    1785 00000034 2100              MOVS      A2, #0                ; [DPU_V7M3_PIPE] |379|  ; [ORIG 16-BIT INS]
    1786 00000036 33FFF04F          MOV       A4, #-1               ; [DPU_V7M3_PIPE] |379|  ; [KEEP 32-BIT INS]
    1787 0000003a 432A              ORRS      A3, A3, V2            ; [DPU_V7M3_PIPE] |379|  ; [ORIG 16-BIT INS]
    1788 0000003c 4321              ORRS      A2, A2, V1            ; [DPU_V7M3_PIPE] |379|  ; [ORIG 16-BIT INS]
    1789 0000003e 4013              ANDS      A4, A4, A3            ; [DPU_V7M3_PIPE] |379|  ; [ORIG 16-BIT INS]
    1790 00000040 400F              ANDS      V4, V4, A2            ; [DPU_V7M3_PIPE] |379|  ; [ORIG 16-BIT INS]
    1791 00000042 D100              BNE       ||$C$L37||            ; [DPU_V7M3_PIPE] |379|  ; [ORIG 16-BIT INS]
    1792                            ; BRANCHCC OCCURS {||$C$L37||}   ; [] |379| 
    1793                    ;* --------------------------------------------------------------------------*
    1794 00000044 2B00              CMP       A4, #0                ; [DPU_V7M3_PIPE] |379|  ; [ORIG 16-BIT INS]
    1795                    ;* --------------------------------------------------------------------------*
    1796 00000046           ||$C$L37||:    
    1797 00000046 D100              BNE       ||$C$L38||            ; [DPU_V7M3_PIPE] |379|  ; [ORIG 16-BIT INS]
    1798                            ; BRANCHCC OCCURS {||$C$L38||}   ; [] |379| 
    1799                    ;* --------------------------------------------------------------------------*
    1800 00000048 2001              MOVS      A1, #1                ; [DPU_V7M3_PIPE] |379|  ; [ORIG 16-BIT INS]
    1801                    ;* --------------------------------------------------------------------------*
    1802 0000004a           ||$C$L38||:    
    1803                            .dwpsn  file "/home/merdak/Apps/ti/ccs1020/ccs/tools/compiler/ti-cgt-arm_20.2.4.LTS/include/_d
    1804                    $C$DW$71        .dwtag  DW_TAG_TI_branch
    1805                            .dwattr $C$DW$71, DW_AT_low_pc(0x00)
    1806                            .dwattr $C$DW$71, DW_AT_TI_return
    1807                    
    1808 0000004a BDBC              POP       {A3, A4, V1, V2, V4, PC} ; [DPU_V7M3_PIPE]  ; [ORIG 16-BIT INS]
    1809                            .dwcfi  cfa_offset, 0
    1810                            .dwcfi  restore_reg, 7
    1811                            .dwcfi  restore_reg, 5
    1812                            .dwcfi  restore_reg, 4
    1813                            .dwcfi  restore_reg, 3
    1814                            .dwcfi  restore_reg, 2
    1815                            ; BRANCH OCCURS                  ; [] 
TI ARM Assembler Unix v20.2.4 Fri Apr  2 01:01:44 2021

Copyright (c) 1996-2018 Texas Instruments Incorporated
MadgwickAHRS.asm                                                     PAGE   34

    1816                            .dwattr $C$DW$68, DW_AT_TI_end_file("/home/merdak/Apps/ti/ccs1020/ccs/tools/compiler/ti-cgt-ar
    1817                            .dwattr $C$DW$68, DW_AT_TI_end_line(0x17b)
    1818                            .dwattr $C$DW$68, DW_AT_TI_end_column(0x4c)
    1819                            .dwendentry
    1820                            .dwendtag $C$DW$68
    1821                    
    1822 00000000                   .sect   ".text:__fpclassifyf"
    1823                            .clink
    1824                            .thumbfunc __fpclassifyf
    1825 00000000                   .thumb
    1826                            .global __fpclassifyf
    1827                    
    1828                    $C$DW$72        .dwtag  DW_TAG_subprogram
    1829                            .dwattr $C$DW$72, DW_AT_name("__fpclassifyf")
    1830                            .dwattr $C$DW$72, DW_AT_low_pc(__fpclassifyf)
    1831                            .dwattr $C$DW$72, DW_AT_high_pc(0x00)
    1832                            .dwattr $C$DW$72, DW_AT_TI_symbol_name("__fpclassifyf")
    1833                            .dwattr $C$DW$72, DW_AT_external
    1834                            .dwattr $C$DW$72, DW_AT_type(*$C$DW$T$10)
    1835                            .dwattr $C$DW$72, DW_AT_TI_begin_file("/home/merdak/Apps/ti/ccs1020/ccs/tools/compiler/ti-cgt-
    1836                            .dwattr $C$DW$72, DW_AT_TI_begin_line(0x18c)
    1837                            .dwattr $C$DW$72, DW_AT_TI_begin_column(0x25)
    1838                            .dwattr $C$DW$72, DW_AT_decl_file("/home/merdak/Apps/ti/ccs1020/ccs/tools/compiler/ti-cgt-arm_
    1839                            .dwattr $C$DW$72, DW_AT_decl_line(0x18c)
    1840                            .dwattr $C$DW$72, DW_AT_decl_column(0x25)
    1841                            .dwattr $C$DW$72, DW_AT_TI_max_frame_size(0x08)
    1842                            .dwpsn  file "/home/merdak/Apps/ti/ccs1020/ccs/tools/compiler/ti-cgt-arm_20.2.4.LTS/include/_d
    1843                    
    1844                            .dwfde $C$DW$CIE, __fpclassifyf
    1845                    $C$DW$73        .dwtag  DW_TAG_formal_parameter
    1846                            .dwattr $C$DW$73, DW_AT_name("f")
    1847                            .dwattr $C$DW$73, DW_AT_TI_symbol_name("f")
    1848                            .dwattr $C$DW$73, DW_AT_type(*$C$DW$T$16)
    1849                            .dwattr $C$DW$73, DW_AT_location[DW_OP_reg0]
    1850                    
    1851                    ;----------------------------------------------------------------------
    1852                    ; 396 | _CODE_ACCESS _INLINE_DEFINITION int __fpclassifyf(float f)             
    1853                    ;----------------------------------------------------------------------
    1854                    
    1855                    ;*****************************************************************************
    1856                    ;* FUNCTION NAME: __fpclassifyf                                              *
    1857                    ;*                                                                           *
    1858                    ;*   Regs Modified     : A1,SP,SR                                            *
    1859                    ;*   Regs Used         : A1,SP,LR,SR                                         *
    1860                    ;*   Local Frame Size  : 0 Args + 4 Auto + 0 Save = 4 byte                   *
    1861                    ;*****************************************************************************
    1862 00000000           __fpclassifyf:
    1863                    ;* --------------------------------------------------------------------------*
    1864                            .dwcfi  cfa_offset, 0
    1865 00000000 0D08F1AD          SUB       SP, SP, #8            ; [DPU_V7M3_PIPE]  ; [KEEP 32-BIT INS]
    1866                            .dwcfi  cfa_offset, 8
    1867                    $C$DW$74        .dwtag  DW_TAG_variable
    1868                            .dwattr $C$DW$74, DW_AT_name("f")
    1869                            .dwattr $C$DW$74, DW_AT_TI_symbol_name("f")
    1870                            .dwattr $C$DW$74, DW_AT_type(*$C$DW$T$16)
TI ARM Assembler Unix v20.2.4 Fri Apr  2 01:01:44 2021

Copyright (c) 1996-2018 Texas Instruments Incorporated
MadgwickAHRS.asm                                                     PAGE   35

    1871                            .dwattr $C$DW$74, DW_AT_location[DW_OP_breg13 0]
    1872                    
    1873 00000004 9000              STR       A1, [SP, #0]          ; [DPU_V7M3_PIPE] |397|  ; [ORIG 16-BIT INS]
    1874                            .dwpsn  file "/home/merdak/Apps/ti/ccs1020/ccs/tools/compiler/ti-cgt-arm_20.2.4.LTS/include/_d
    1875                    ;----------------------------------------------------------------------
    1876                    ; 398 | if (__FLOAT_BIASED_EXP_IS_MAX(f))                                      
    1877                    ;----------------------------------------------------------------------
    1878 00000006 9800              LDR       A1, [SP, #0]          ; [DPU_V7M3_PIPE] |398|  ; [ORIG 16-BIT INS]
    1879 00000008 0C00              LSRS      A1, A1, #16           ; [DPU_V7M3_PIPE] |398|  ; [ORIG 16-BIT INS]
    1880 0000000a 40FFF400          AND       A1, A1, #32640        ; [DPU_V7M3_PIPE] |398|  ; [KEEP 32-BIT INS]
    1881 0000000e 4FFFF5B0          CMP       A1, #32640            ; [DPU_V7M3_PIPE] |398|  ; [KEEP 32-BIT INS]
    1882 00000012 D107              BNE       ||$C$L40||            ; [DPU_V7M3_PIPE] |398|  ; [ORIG 16-BIT INS]
    1883                            ; BRANCHCC OCCURS {||$C$L40||}   ; [] |398| 
    1884                    ;* --------------------------------------------------------------------------*
    1885                            .dwpsn  file "/home/merdak/Apps/ti/ccs1020/ccs/tools/compiler/ti-cgt-arm_20.2.4.LTS/include/_d
    1886                    ;----------------------------------------------------------------------
    1887                    ; 400 | if (__FLOAT_FRAC_PART_IS_ZERO(f))                                      
    1888                    ;----------------------------------------------------------------------
    1889 00000014 9800              LDR       A1, [SP, #0]          ; [DPU_V7M3_PIPE] |400|  ; [ORIG 16-BIT INS]
    1890 00000016 50DFF36F          BFC       A1, #23, #9           ; [DPU_V7M3_PIPE] |400|  ; [KEEP 32-BIT INS]
    1891 0000001a B908              CBNZ      A1, ||$C$L39||        ; []  ; [ORIG 16-BIT INS]
    1892                            ; BRANCHCC OCCURS {||$C$L39||}   ; [] |400| 
    1893                    ;* --------------------------------------------------------------------------*
    1894                            .dwpsn  file "/home/merdak/Apps/ti/ccs1020/ccs/tools/compiler/ti-cgt-arm_20.2.4.LTS/include/_d
    1895                    ;----------------------------------------------------------------------
    1896                    ; 401 | return __FP_INFINITE;                                                  
    1897                    ;----------------------------------------------------------------------
    1898 0000001c 2001              MOVS      A1, #1                ; [DPU_V7M3_PIPE] |401|  ; [ORIG 16-BIT INS]
    1899 0000001e E010              B         ||$C$L43||            ; [DPU_V7M3_PIPE] |401|  ; [ORIG 16-BIT INS]
    1900                            ; BRANCH OCCURS {||$C$L43||}     ; [] |401| 
    1901                    ;* --------------------------------------------------------------------------*
    1902 00000020           ||$C$L39||:    
    1903                            .dwpsn  file "/home/merdak/Apps/ti/ccs1020/ccs/tools/compiler/ti-cgt-arm_20.2.4.LTS/include/_d
    1904                    ;----------------------------------------------------------------------
    1905                    ; 402 | else return __FP_NAN;                                                  
    1906                    ;----------------------------------------------------------------------
    1907 00000020 2002              MOVS      A1, #2                ; [DPU_V7M3_PIPE] |402|  ; [ORIG 16-BIT INS]
    1908 00000022 E00E              B         ||$C$L43||            ; [DPU_V7M3_PIPE] |402|  ; [ORIG 16-BIT INS]
    1909                            ; BRANCH OCCURS {||$C$L43||}     ; [] |402| 
    1910                    ;* --------------------------------------------------------------------------*
    1911 00000024           ||$C$L40||:    
    1912                            .dwpsn  file "/home/merdak/Apps/ti/ccs1020/ccs/tools/compiler/ti-cgt-arm_20.2.4.LTS/include/_d
    1913                    ;----------------------------------------------------------------------
    1914                    ; 404 | if (__FLOAT_BIASED_EXP_IS_ZERO(f))                                     
    1915                    ;----------------------------------------------------------------------
    1916 00000024 9800              LDR       A1, [SP, #0]          ; [DPU_V7M3_PIPE] |404|  ; [ORIG 16-BIT INS]
    1917 00000026 50C7F3C0          UBFX      A1, A1, #23, #8       ; [DPU_V7M3_PIPE] |404|  ; [KEEP 32-BIT INS]
    1918 0000002a B940              CBNZ      A1, ||$C$L42||        ; []  ; [ORIG 16-BIT INS]
    1919                            ; BRANCHCC OCCURS {||$C$L42||}   ; [] |404| 
    1920                    ;* --------------------------------------------------------------------------*
    1921                            .dwpsn  file "/home/merdak/Apps/ti/ccs1020/ccs/tools/compiler/ti-cgt-arm_20.2.4.LTS/include/_d
    1922                    ;----------------------------------------------------------------------
    1923                    ; 406 | if (__FLOAT_FRAC_PART_IS_ZERO(f))                                      
    1924                    ;----------------------------------------------------------------------
    1925 0000002c 9800              LDR       A1, [SP, #0]          ; [DPU_V7M3_PIPE] |406|  ; [ORIG 16-BIT INS]
TI ARM Assembler Unix v20.2.4 Fri Apr  2 01:01:44 2021

Copyright (c) 1996-2018 Texas Instruments Incorporated
MadgwickAHRS.asm                                                     PAGE   36

    1926 0000002e 50DFF36F          BFC       A1, #23, #9           ; [DPU_V7M3_PIPE] |406|  ; [KEEP 32-BIT INS]
    1927 00000032 B908              CBNZ      A1, ||$C$L41||        ; []  ; [ORIG 16-BIT INS]
    1928                            ; BRANCHCC OCCURS {||$C$L41||}   ; [] |406| 
    1929                    ;* --------------------------------------------------------------------------*
    1930                            .dwpsn  file "/home/merdak/Apps/ti/ccs1020/ccs/tools/compiler/ti-cgt-arm_20.2.4.LTS/include/_d
    1931                    ;----------------------------------------------------------------------
    1932                    ; 407 | return __FP_ZERO;                                                      
    1933                    ;----------------------------------------------------------------------
    1934 00000034 2000              MOVS      A1, #0                ; [DPU_V7M3_PIPE] |407|  ; [ORIG 16-BIT INS]
    1935 00000036 E004              B         ||$C$L43||            ; [DPU_V7M3_PIPE] |407|  ; [ORIG 16-BIT INS]
    1936                            ; BRANCH OCCURS {||$C$L43||}     ; [] |407| 
    1937                    ;* --------------------------------------------------------------------------*
    1938 00000038           ||$C$L41||:    
    1939                            .dwpsn  file "/home/merdak/Apps/ti/ccs1020/ccs/tools/compiler/ti-cgt-arm_20.2.4.LTS/include/_d
    1940                    ;----------------------------------------------------------------------
    1941                    ; 408 | else return __FP_SUBNORMAL;                                            
    1942                    ;----------------------------------------------------------------------
    1943 00000038 0001F06F          MVN       A1, #1                ; [DPU_V7M3_PIPE] |408|  ; [KEEP 32-BIT INS]
    1944 0000003c E001              B         ||$C$L43||            ; [DPU_V7M3_PIPE] |408|  ; [ORIG 16-BIT INS]
    1945                            ; BRANCH OCCURS {||$C$L43||}     ; [] |408| 
    1946                    ;* --------------------------------------------------------------------------*
    1947 0000003e           ||$C$L42||:    
    1948                            .dwpsn  file "/home/merdak/Apps/ti/ccs1020/ccs/tools/compiler/ti-cgt-arm_20.2.4.LTS/include/_d
    1949                    ;----------------------------------------------------------------------
    1950                    ; 410 | return __FP_NORMAL;                                                    
    1951                    ;----------------------------------------------------------------------
    1952 0000003e 30FFF04F          MOV       A1, #-1               ; [DPU_V7M3_PIPE] |410|  ; [KEEP 32-BIT INS]
    1953                    ;* --------------------------------------------------------------------------*
    1954 00000042           ||$C$L43||:    
    1955                            .dwpsn  file "/home/merdak/Apps/ti/ccs1020/ccs/tools/compiler/ti-cgt-arm_20.2.4.LTS/include/_d
    1956 00000042 B002              ADD       SP, SP, #8            ; [DPU_V7M3_PIPE]  ; [ORIG 16-BIT INS]
    1957                            .dwcfi  cfa_offset, 0
    1958                    $C$DW$75        .dwtag  DW_TAG_TI_branch
    1959                            .dwattr $C$DW$75, DW_AT_low_pc(0x00)
    1960                            .dwattr $C$DW$75, DW_AT_TI_return
    1961                    
    1962 00000044 4770              BX        LR                    ; [DPU_V7M3_PIPE]  ; [ORIG 16-BIT INS]
    1963                            ; BRANCH OCCURS                  ; [] 
    1964                            .dwattr $C$DW$72, DW_AT_TI_end_file("/home/merdak/Apps/ti/ccs1020/ccs/tools/compiler/ti-cgt-ar
    1965                            .dwattr $C$DW$72, DW_AT_TI_end_line(0x19b)
    1966                            .dwattr $C$DW$72, DW_AT_TI_end_column(0x01)
    1967                            .dwendentry
    1968                            .dwendtag $C$DW$72
    1969                    
    1970 00000000                   .sect   ".text:__fpclassify"
    1971                            .clink
    1972                            .thumbfunc __fpclassify
    1973 00000000                   .thumb
    1974                            .global __fpclassify
    1975                    
    1976                    $C$DW$76        .dwtag  DW_TAG_subprogram
    1977                            .dwattr $C$DW$76, DW_AT_name("__fpclassify")
    1978                            .dwattr $C$DW$76, DW_AT_low_pc(__fpclassify)
    1979                            .dwattr $C$DW$76, DW_AT_high_pc(0x00)
    1980                            .dwattr $C$DW$76, DW_AT_TI_symbol_name("__fpclassify")
TI ARM Assembler Unix v20.2.4 Fri Apr  2 01:01:44 2021

Copyright (c) 1996-2018 Texas Instruments Incorporated
MadgwickAHRS.asm                                                     PAGE   37

    1981                            .dwattr $C$DW$76, DW_AT_external
    1982                            .dwattr $C$DW$76, DW_AT_type(*$C$DW$T$10)
    1983                            .dwattr $C$DW$76, DW_AT_TI_begin_file("/home/merdak/Apps/ti/ccs1020/ccs/tools/compiler/ti-cgt-
    1984                            .dwattr $C$DW$76, DW_AT_TI_begin_line(0x19d)
    1985                            .dwattr $C$DW$76, DW_AT_TI_begin_column(0x25)
    1986                            .dwattr $C$DW$76, DW_AT_decl_file("/home/merdak/Apps/ti/ccs1020/ccs/tools/compiler/ti-cgt-arm_
    1987                            .dwattr $C$DW$76, DW_AT_decl_line(0x19d)
    1988                            .dwattr $C$DW$76, DW_AT_decl_column(0x25)
    1989                            .dwattr $C$DW$76, DW_AT_TI_max_frame_size(0x10)
    1990                            .dwpsn  file "/home/merdak/Apps/ti/ccs1020/ccs/tools/compiler/ti-cgt-arm_20.2.4.LTS/include/_d
    1991                    
    1992                            .dwfde $C$DW$CIE, __fpclassify
    1993                    $C$DW$77        .dwtag  DW_TAG_formal_parameter
    1994                            .dwattr $C$DW$77, DW_AT_name("d")
    1995                            .dwattr $C$DW$77, DW_AT_TI_symbol_name("d")
    1996                            .dwattr $C$DW$77, DW_AT_type(*$C$DW$T$17)
    1997                            .dwattr $C$DW$77, DW_AT_location[DW_OP_reg0]
    1998                    
    1999                    ;----------------------------------------------------------------------
    2000                    ; 413 | _CODE_ACCESS _INLINE_DEFINITION int __fpclassify (double d)            
    2001                    ;----------------------------------------------------------------------
    2002                    
    2003                    ;*****************************************************************************
    2004                    ;* FUNCTION NAME: __fpclassify                                               *
    2005                    ;*                                                                           *
    2006                    ;*   Regs Modified     : A1,A2,A3,A4,V1,SP,SR                                *
    2007                    ;*   Regs Used         : A1,A2,A3,A4,V1,SP,LR,SR                             *
    2008                    ;*   Local Frame Size  : 0 Args + 8 Auto + 8 Save = 16 byte                  *
    2009                    ;*****************************************************************************
    2010 00000000           __fpclassify:
    2011                    ;* --------------------------------------------------------------------------*
    2012                            .dwcfi  cfa_offset, 0
    2013 00000000 B51C              PUSH      {A3, A4, V1, LR}      ; [DPU_V7M3_PIPE]  ; [ORIG 16-BIT INS]
    2014                            .dwcfi  cfa_offset, 16
    2015                            .dwcfi  save_reg_to_mem, 14, -4
    2016                            .dwcfi  save_reg_to_mem, 4, -8
    2017                            .dwcfi  save_reg_to_mem, 3, -12
    2018                            .dwcfi  save_reg_to_mem, 2, -16
    2019                    $C$DW$78        .dwtag  DW_TAG_variable
    2020                            .dwattr $C$DW$78, DW_AT_name("d")
    2021                            .dwattr $C$DW$78, DW_AT_TI_symbol_name("d")
    2022                            .dwattr $C$DW$78, DW_AT_type(*$C$DW$T$17)
    2023                            .dwattr $C$DW$78, DW_AT_location[DW_OP_breg13 0]
    2024                    
    2025 00000002 0003E88D          STMIA     SP, {A1,A2}           ; [DPU_V7M3_PIPE] |414|  ; [KEEP 32-BIT INS]
    2026                            .dwpsn  file "/home/merdak/Apps/ti/ccs1020/ccs/tools/compiler/ti-cgt-arm_20.2.4.LTS/include/_d
    2027                    ;----------------------------------------------------------------------
    2028                    ; 415 | if (__DOUBLE_BIASED_EXP_IS_MAX(d))                                     
    2029                    ;----------------------------------------------------------------------
    2030 00000006 0006E89D          LDMIA     SP, {A2,A3}           ; [DPU_V7M3_PIPE] |415|  ; [KEEP 32-BIT INS]
    2031 0000000a 4610              MOV       A1, A3                ; [DPU_V7M3_PIPE] |415|  ; [ORIG 16-BIT INS]
    2032 0000000c 0001              LSLS      A2, A1, #0            ; [DPU_V7M3_PIPE] |415|  ; [ORIG 16-BIT INS]
    2033 0000000e 2000              MOVS      A1, #0                ; [DPU_V7M3_PIPE] |415|  ; [ORIG 16-BIT INS]
    2034 00000010 4308              ORRS      A1, A1, A2            ; [DPU_V7M3_PIPE] |415|  ; [ORIG 16-BIT INS]
    2035 00000012 0C01              LSRS      A2, A1, #16           ; [DPU_V7M3_PIPE] |415|  ; [ORIG 16-BIT INS]
TI ARM Assembler Unix v20.2.4 Fri Apr  2 01:01:44 2021

Copyright (c) 1996-2018 Texas Instruments Incorporated
MadgwickAHRS.asm                                                     PAGE   38

    2036 00000014 70F0F647          MOV       A1, #32752            ; [DPU_V7M3_PIPE] |415|  ; [KEEP 32-BIT INS]
    2037 00000018 4008              ANDS      A1, A1, A2            ; [DPU_V7M3_PIPE] |415|  ; [ORIG 16-BIT INS]
    2038 0000001a 71F0F647          MOV       A2, #32752            ; [DPU_V7M3_PIPE] |415|  ; [KEEP 32-BIT INS]
    2039 0000001e 4281              CMP       A2, A1                ; [DPU_V7M3_PIPE] |415|  ; [ORIG 16-BIT INS]
    2040 00000020 D115              BNE       ||$C$L46||            ; [DPU_V7M3_PIPE] |415|  ; [ORIG 16-BIT INS]
    2041                            ; BRANCHCC OCCURS {||$C$L46||}   ; [] |415| 
    2042                    ;* --------------------------------------------------------------------------*
    2043                            .dwpsn  file "/home/merdak/Apps/ti/ccs1020/ccs/tools/compiler/ti-cgt-arm_20.2.4.LTS/include/_d
    2044                    ;----------------------------------------------------------------------
    2045                    ; 417 | if (__DOUBLE_FRAC_PART_IS_ZERO(d))                                     
    2046                    ;----------------------------------------------------------------------
    2047 00000022 0006E89D          LDMIA     SP, {A2,A3}           ; [DPU_V7M3_PIPE] |417|  ; [KEEP 32-BIT INS]
    2048 00000026 4610              MOV       A1, A3                ; [DPU_V7M3_PIPE] |417|  ; [ORIG 16-BIT INS]
    2049 00000028 000CE89D          LDMIA     SP, {A3,A4}           ; [DPU_V7M3_PIPE] |417|  ; [KEEP 32-BIT INS]
    2050 0000002c 2100              MOVS      A2, #0                ; [DPU_V7M3_PIPE] |417|  ; [ORIG 16-BIT INS]
    2051 0000002e 0000              LSLS      A1, A1, #0            ; [DPU_V7M3_PIPE] |417|  ; [ORIG 16-BIT INS]
    2052 00000030 4301              ORRS      A2, A2, A1            ; [DPU_V7M3_PIPE] |417|  ; [ORIG 16-BIT INS]
    2053 00000032 481C              LDR       A1, $C$CON5           ; [DPU_V7M3_PIPE] |417|  ; [ORIG 16-BIT INS]
    2054 00000034 2400              MOVS      V1, #0                ; [DPU_V7M3_PIPE] |417|  ; [ORIG 16-BIT INS]
    2055 00000036 33FFF04F          MOV       A4, #-1               ; [DPU_V7M3_PIPE] |417|  ; [KEEP 32-BIT INS]
    2056 0000003a 4322              ORRS      A3, A3, V1            ; [DPU_V7M3_PIPE] |417|  ; [ORIG 16-BIT INS]
    2057 0000003c 4013              ANDS      A4, A4, A3            ; [DPU_V7M3_PIPE] |417|  ; [ORIG 16-BIT INS]
    2058 0000003e 4008              ANDS      A1, A1, A2            ; [DPU_V7M3_PIPE] |417|  ; [ORIG 16-BIT INS]
    2059 00000040 D100              BNE       ||$C$L44||            ; [DPU_V7M3_PIPE] |417|  ; [ORIG 16-BIT INS]
    2060                            ; BRANCHCC OCCURS {||$C$L44||}   ; [] |417| 
    2061                    ;* --------------------------------------------------------------------------*
    2062 00000042 2B00              CMP       A4, #0                ; [DPU_V7M3_PIPE] |417|  ; [ORIG 16-BIT INS]
    2063                    ;* --------------------------------------------------------------------------*
    2064 00000044           ||$C$L44||:    
    2065 00000044 D101              BNE       ||$C$L45||            ; [DPU_V7M3_PIPE] |417|  ; [ORIG 16-BIT INS]
    2066                            ; BRANCHCC OCCURS {||$C$L45||}   ; [] |417| 
    2067                    ;* --------------------------------------------------------------------------*
    2068                            .dwpsn  file "/home/merdak/Apps/ti/ccs1020/ccs/tools/compiler/ti-cgt-arm_20.2.4.LTS/include/_d
    2069                    ;----------------------------------------------------------------------
    2070                    ; 418 | return __FP_INFINITE;                                                  
    2071                    ;----------------------------------------------------------------------
    2072 00000046 2001              MOVS      A1, #1                ; [DPU_V7M3_PIPE] |418|  ; [ORIG 16-BIT INS]
    2073 00000048 E02B              B         ||$C$L51||            ; [DPU_V7M3_PIPE] |418|  ; [ORIG 16-BIT INS]
    2074                            ; BRANCH OCCURS {||$C$L51||}     ; [] |418| 
    2075                    ;* --------------------------------------------------------------------------*
    2076 0000004a           ||$C$L45||:    
    2077                            .dwpsn  file "/home/merdak/Apps/ti/ccs1020/ccs/tools/compiler/ti-cgt-arm_20.2.4.LTS/include/_d
    2078                    ;----------------------------------------------------------------------
    2079                    ; 419 | else return __FP_NAN;                                                  
    2080                    ;----------------------------------------------------------------------
    2081 0000004a 2002              MOVS      A1, #2                ; [DPU_V7M3_PIPE] |419|  ; [ORIG 16-BIT INS]
    2082 0000004c E029              B         ||$C$L51||            ; [DPU_V7M3_PIPE] |419|  ; [ORIG 16-BIT INS]
    2083                            ; BRANCH OCCURS {||$C$L51||}     ; [] |419| 
    2084                    ;* --------------------------------------------------------------------------*
    2085 0000004e           ||$C$L46||:    
    2086                            .dwpsn  file "/home/merdak/Apps/ti/ccs1020/ccs/tools/compiler/ti-cgt-arm_20.2.4.LTS/include/_d
    2087                    ;----------------------------------------------------------------------
    2088                    ; 421 | if (__DOUBLE_BIASED_EXP_IS_ZERO(d))                                    
    2089                    ;----------------------------------------------------------------------
    2090 0000004e 0006E89D          LDMIA     SP, {A2,A3}           ; [DPU_V7M3_PIPE] |421|  ; [KEEP 32-BIT INS]
TI ARM Assembler Unix v20.2.4 Fri Apr  2 01:01:44 2021

Copyright (c) 1996-2018 Texas Instruments Incorporated
MadgwickAHRS.asm                                                     PAGE   39

    2091 00000052 4610              MOV       A1, A3                ; [DPU_V7M3_PIPE] |421|  ; [ORIG 16-BIT INS]
    2092 00000054 0001              LSLS      A2, A1, #0            ; [DPU_V7M3_PIPE] |421|  ; [ORIG 16-BIT INS]
    2093 00000056 2000              MOVS      A1, #0                ; [DPU_V7M3_PIPE] |421|  ; [ORIG 16-BIT INS]
    2094 00000058 2200              MOVS      A3, #0                ; [DPU_V7M3_PIPE] |421|  ; [ORIG 16-BIT INS]
    2095 0000005a 4308              ORRS      A1, A1, A2            ; [DPU_V7M3_PIPE] |421|  ; [ORIG 16-BIT INS]
    2096 0000005c 0D03              LSRS      A4, A1, #20           ; [DPU_V7M3_PIPE] |421|  ; [ORIG 16-BIT INS]
    2097 0000005e 70FFF240          MOV       A1, #2047             ; [DPU_V7M3_PIPE] |421|  ; [KEEP 32-BIT INS]
    2098 00000062 4601              MOV       A2, A1                ; [DPU_V7M3_PIPE] |421|  ; [ORIG 16-BIT INS]
    2099 00000064 17C0              ASRS      A1, A1, #31           ; [DPU_V7M3_PIPE] |421|  ; [ORIG 16-BIT INS]
    2100 00000066 4019              ANDS      A2, A2, A4            ; [DPU_V7M3_PIPE] |421|  ; [ORIG 16-BIT INS]
    2101 00000068 4010              ANDS      A1, A1, A3            ; [DPU_V7M3_PIPE] |421|  ; [ORIG 16-BIT INS]
    2102 0000006a D100              BNE       ||$C$L47||            ; [DPU_V7M3_PIPE] |421|  ; [ORIG 16-BIT INS]
    2103                            ; BRANCHCC OCCURS {||$C$L47||}   ; [] |421| 
    2104                    ;* --------------------------------------------------------------------------*
    2105 0000006c 2900              CMP       A2, #0                ; [DPU_V7M3_PIPE] |421|  ; [ORIG 16-BIT INS]
    2106                    ;* --------------------------------------------------------------------------*
    2107 0000006e           ||$C$L47||:    
    2108 0000006e D116              BNE       ||$C$L50||            ; [DPU_V7M3_PIPE] |421|  ; [ORIG 16-BIT INS]
    2109                            ; BRANCHCC OCCURS {||$C$L50||}   ; [] |421| 
    2110                    ;* --------------------------------------------------------------------------*
    2111                            .dwpsn  file "/home/merdak/Apps/ti/ccs1020/ccs/tools/compiler/ti-cgt-arm_20.2.4.LTS/include/_d
    2112                    ;----------------------------------------------------------------------
    2113                    ; 423 | if (__DOUBLE_FRAC_PART_IS_ZERO(d))                                     
    2114                    ;----------------------------------------------------------------------
    2115 00000070 0006E89D          LDMIA     SP, {A2,A3}           ; [DPU_V7M3_PIPE] |423|  ; [KEEP 32-BIT INS]
    2116 00000074 4610              MOV       A1, A3                ; [DPU_V7M3_PIPE] |423|  ; [ORIG 16-BIT INS]
    2117 00000076 000CE89D          LDMIA     SP, {A3,A4}           ; [DPU_V7M3_PIPE] |423|  ; [KEEP 32-BIT INS]
    2118 0000007a 2100              MOVS      A2, #0                ; [DPU_V7M3_PIPE] |423|  ; [ORIG 16-BIT INS]
    2119 0000007c 0000              LSLS      A1, A1, #0            ; [DPU_V7M3_PIPE] |423|  ; [ORIG 16-BIT INS]
    2120 0000007e 4301              ORRS      A2, A2, A1            ; [DPU_V7M3_PIPE] |423|  ; [ORIG 16-BIT INS]
    2121 00000080 4808              LDR       A1, $C$CON5           ; [DPU_V7M3_PIPE] |423|  ; [ORIG 16-BIT INS]
    2122 00000082 2400              MOVS      V1, #0                ; [DPU_V7M3_PIPE] |423|  ; [ORIG 16-BIT INS]
    2123 00000084 33FFF04F          MOV       A4, #-1               ; [DPU_V7M3_PIPE] |423|  ; [KEEP 32-BIT INS]
    2124 00000088 4322              ORRS      A3, A3, V1            ; [DPU_V7M3_PIPE] |423|  ; [ORIG 16-BIT INS]
    2125 0000008a 4013              ANDS      A4, A4, A3            ; [DPU_V7M3_PIPE] |423|  ; [ORIG 16-BIT INS]
    2126 0000008c 4008              ANDS      A1, A1, A2            ; [DPU_V7M3_PIPE] |423|  ; [ORIG 16-BIT INS]
    2127 0000008e D100              BNE       ||$C$L48||            ; [DPU_V7M3_PIPE] |423|  ; [ORIG 16-BIT INS]
    2128                            ; BRANCHCC OCCURS {||$C$L48||}   ; [] |423| 
    2129                    ;* --------------------------------------------------------------------------*
    2130 00000090 2B00              CMP       A4, #0                ; [DPU_V7M3_PIPE] |423|  ; [ORIG 16-BIT INS]
    2131                    ;* --------------------------------------------------------------------------*
    2132 00000092           ||$C$L48||:    
    2133 00000092 D101              BNE       ||$C$L49||            ; [DPU_V7M3_PIPE] |423|  ; [ORIG 16-BIT INS]
    2134                            ; BRANCHCC OCCURS {||$C$L49||}   ; [] |423| 
    2135                    ;* --------------------------------------------------------------------------*
    2136                            .dwpsn  file "/home/merdak/Apps/ti/ccs1020/ccs/tools/compiler/ti-cgt-arm_20.2.4.LTS/include/_d
    2137                    ;----------------------------------------------------------------------
    2138                    ; 424 | return __FP_ZERO;                                                      
    2139                    ;----------------------------------------------------------------------
    2140 00000094 2000              MOVS      A1, #0                ; [DPU_V7M3_PIPE] |424|  ; [ORIG 16-BIT INS]
    2141 00000096 E004              B         ||$C$L51||            ; [DPU_V7M3_PIPE] |424|  ; [ORIG 16-BIT INS]
    2142                            ; BRANCH OCCURS {||$C$L51||}     ; [] |424| 
    2143                    ;* --------------------------------------------------------------------------*
    2144 00000098           ||$C$L49||:    
    2145                            .dwpsn  file "/home/merdak/Apps/ti/ccs1020/ccs/tools/compiler/ti-cgt-arm_20.2.4.LTS/include/_d
TI ARM Assembler Unix v20.2.4 Fri Apr  2 01:01:44 2021

Copyright (c) 1996-2018 Texas Instruments Incorporated
MadgwickAHRS.asm                                                     PAGE   40

    2146                    ;----------------------------------------------------------------------
    2147                    ; 425 | else return __FP_SUBNORMAL;                                            
    2148                    ;----------------------------------------------------------------------
    2149 00000098 0001F06F          MVN       A1, #1                ; [DPU_V7M3_PIPE] |425|  ; [KEEP 32-BIT INS]
    2150 0000009c E001              B         ||$C$L51||            ; [DPU_V7M3_PIPE] |425|  ; [ORIG 16-BIT INS]
    2151                            ; BRANCH OCCURS {||$C$L51||}     ; [] |425| 
    2152                    ;* --------------------------------------------------------------------------*
    2153 0000009e           ||$C$L50||:    
    2154                            .dwpsn  file "/home/merdak/Apps/ti/ccs1020/ccs/tools/compiler/ti-cgt-arm_20.2.4.LTS/include/_d
    2155                    ;----------------------------------------------------------------------
    2156                    ; 427 | return __FP_NORMAL;                                                    
    2157                    ;----------------------------------------------------------------------
    2158 0000009e 30FFF04F          MOV       A1, #-1               ; [DPU_V7M3_PIPE] |427|  ; [KEEP 32-BIT INS]
    2159                    ;* --------------------------------------------------------------------------*
    2160 000000a2           ||$C$L51||:    
    2161                            .dwpsn  file "/home/merdak/Apps/ti/ccs1020/ccs/tools/compiler/ti-cgt-arm_20.2.4.LTS/include/_d
    2162                    $C$DW$79        .dwtag  DW_TAG_TI_branch
    2163                            .dwattr $C$DW$79, DW_AT_low_pc(0x00)
    2164                            .dwattr $C$DW$79, DW_AT_TI_return
    2165                    
    2166 000000a2 BD1C              POP       {A3, A4, V1, PC}      ; [DPU_V7M3_PIPE]  ; [ORIG 16-BIT INS]
    2167                            .dwcfi  cfa_offset, 0
    2168                            .dwcfi  restore_reg, 4
    2169                            .dwcfi  restore_reg, 3
    2170                            .dwcfi  restore_reg, 2
    2171                            ; BRANCH OCCURS                  ; [] 
    2172                            .dwattr $C$DW$76, DW_AT_TI_end_file("/home/merdak/Apps/ti/ccs1020/ccs/tools/compiler/ti-cgt-ar
    2173                            .dwattr $C$DW$76, DW_AT_TI_end_line(0x1ac)
    2174                            .dwattr $C$DW$76, DW_AT_TI_end_column(0x01)
    2175                            .dwendentry
    2176                            .dwendtag $C$DW$76
    2177                    
    2178 00000000                   .sect   ".text:__fpclassifyl"
    2179                            .clink
    2180                            .thumbfunc __fpclassifyl
    2181 00000000                   .thumb
    2182                            .global __fpclassifyl
    2183                    
    2184                    $C$DW$80        .dwtag  DW_TAG_subprogram
    2185                            .dwattr $C$DW$80, DW_AT_name("__fpclassifyl")
    2186                            .dwattr $C$DW$80, DW_AT_low_pc(__fpclassifyl)
    2187                            .dwattr $C$DW$80, DW_AT_high_pc(0x00)
    2188                            .dwattr $C$DW$80, DW_AT_TI_symbol_name("__fpclassifyl")
    2189                            .dwattr $C$DW$80, DW_AT_external
    2190                            .dwattr $C$DW$80, DW_AT_type(*$C$DW$T$10)
    2191                            .dwattr $C$DW$80, DW_AT_TI_begin_file("/home/merdak/Apps/ti/ccs1020/ccs/tools/compiler/ti-cgt-
    2192                            .dwattr $C$DW$80, DW_AT_TI_begin_line(0x1ae)
    2193                            .dwattr $C$DW$80, DW_AT_TI_begin_column(0x25)
    2194                            .dwattr $C$DW$80, DW_AT_decl_file("/home/merdak/Apps/ti/ccs1020/ccs/tools/compiler/ti-cgt-arm_
    2195                            .dwattr $C$DW$80, DW_AT_decl_line(0x1ae)
    2196                            .dwattr $C$DW$80, DW_AT_decl_column(0x25)
    2197                            .dwattr $C$DW$80, DW_AT_TI_max_frame_size(0x10)
    2198                            .dwpsn  file "/home/merdak/Apps/ti/ccs1020/ccs/tools/compiler/ti-cgt-arm_20.2.4.LTS/include/_d
    2199                    
    2200                            .dwfde $C$DW$CIE, __fpclassifyl
TI ARM Assembler Unix v20.2.4 Fri Apr  2 01:01:44 2021

Copyright (c) 1996-2018 Texas Instruments Incorporated
MadgwickAHRS.asm                                                     PAGE   41

    2201                    $C$DW$81        .dwtag  DW_TAG_formal_parameter
    2202                            .dwattr $C$DW$81, DW_AT_name("e")
    2203                            .dwattr $C$DW$81, DW_AT_TI_symbol_name("e")
    2204                            .dwattr $C$DW$81, DW_AT_type(*$C$DW$T$18)
    2205                            .dwattr $C$DW$81, DW_AT_location[DW_OP_reg0]
    2206                    
    2207                    ;----------------------------------------------------------------------
    2208                    ; 430 | _CODE_ACCESS _INLINE_DEFINITION int __fpclassifyl(long double e)       
    2209                    ;----------------------------------------------------------------------
    2210                    
    2211                    ;*****************************************************************************
    2212                    ;* FUNCTION NAME: __fpclassifyl                                              *
    2213                    ;*                                                                           *
    2214                    ;*   Regs Modified     : A1,A2,A3,A4,V1,SP,SR                                *
    2215                    ;*   Regs Used         : A1,A2,A3,A4,V1,SP,LR,SR                             *
    2216                    ;*   Local Frame Size  : 0 Args + 8 Auto + 8 Save = 16 byte                  *
    2217                    ;*****************************************************************************
    2218 00000000           __fpclassifyl:
    2219                    ;* --------------------------------------------------------------------------*
    2220                            .dwcfi  cfa_offset, 0
    2221 00000000 B51C              PUSH      {A3, A4, V1, LR}      ; [DPU_V7M3_PIPE]  ; [ORIG 16-BIT INS]
    2222                            .dwcfi  cfa_offset, 16
    2223                            .dwcfi  save_reg_to_mem, 14, -4
    2224                            .dwcfi  save_reg_to_mem, 4, -8
    2225                            .dwcfi  save_reg_to_mem, 3, -12
    2226                            .dwcfi  save_reg_to_mem, 2, -16
    2227                    $C$DW$82        .dwtag  DW_TAG_variable
    2228                            .dwattr $C$DW$82, DW_AT_name("e")
    2229                            .dwattr $C$DW$82, DW_AT_TI_symbol_name("e")
    2230                            .dwattr $C$DW$82, DW_AT_type(*$C$DW$T$18)
    2231                            .dwattr $C$DW$82, DW_AT_location[DW_OP_breg13 0]
    2232                    
    2233 00000002 0003E88D          STMIA     SP, {A1,A2}           ; [DPU_V7M3_PIPE] |431|  ; [KEEP 32-BIT INS]
    2234                            .dwpsn  file "/home/merdak/Apps/ti/ccs1020/ccs/tools/compiler/ti-cgt-arm_20.2.4.LTS/include/_d
    2235                    ;----------------------------------------------------------------------
    2236                    ; 432 | if (__LDOUBLE_BIASED_EXP_IS_MAX(e))                                    
    2237                    ;----------------------------------------------------------------------
    2238 00000006 0006E89D          LDMIA     SP, {A2,A3}           ; [DPU_V7M3_PIPE] |432|  ; [KEEP 32-BIT INS]
    2239 0000000a 4610              MOV       A1, A3                ; [DPU_V7M3_PIPE] |432|  ; [ORIG 16-BIT INS]
    2240 0000000c 0001              LSLS      A2, A1, #0            ; [DPU_V7M3_PIPE] |432|  ; [ORIG 16-BIT INS]
    2241 0000000e 2000              MOVS      A1, #0                ; [DPU_V7M3_PIPE] |432|  ; [ORIG 16-BIT INS]
    2242 00000010 4308              ORRS      A1, A1, A2            ; [DPU_V7M3_PIPE] |432|  ; [ORIG 16-BIT INS]
    2243 00000012 0C01              LSRS      A2, A1, #16           ; [DPU_V7M3_PIPE] |432|  ; [ORIG 16-BIT INS]
    2244 00000014 70F0F647          MOV       A1, #32752            ; [DPU_V7M3_PIPE] |432|  ; [KEEP 32-BIT INS]
    2245 00000018 4008              ANDS      A1, A1, A2            ; [DPU_V7M3_PIPE] |432|  ; [ORIG 16-BIT INS]
    2246 0000001a 71F0F647          MOV       A2, #32752            ; [DPU_V7M3_PIPE] |432|  ; [KEEP 32-BIT INS]
    2247 0000001e 4281              CMP       A2, A1                ; [DPU_V7M3_PIPE] |432|  ; [ORIG 16-BIT INS]
    2248 00000020 D115              BNE       ||$C$L54||            ; [DPU_V7M3_PIPE] |432|  ; [ORIG 16-BIT INS]
    2249                            ; BRANCHCC OCCURS {||$C$L54||}   ; [] |432| 
    2250                    ;* --------------------------------------------------------------------------*
    2251                            .dwpsn  file "/home/merdak/Apps/ti/ccs1020/ccs/tools/compiler/ti-cgt-arm_20.2.4.LTS/include/_d
    2252                    ;----------------------------------------------------------------------
    2253                    ; 434 | if (__LDOUBLE_FRAC_PART_IS_ZERO(e))                                    
    2254                    ;----------------------------------------------------------------------
    2255 00000022 0006E89D          LDMIA     SP, {A2,A3}           ; [DPU_V7M3_PIPE] |434|  ; [KEEP 32-BIT INS]
TI ARM Assembler Unix v20.2.4 Fri Apr  2 01:01:44 2021

Copyright (c) 1996-2018 Texas Instruments Incorporated
MadgwickAHRS.asm                                                     PAGE   42

    2256 00000026 4610              MOV       A1, A3                ; [DPU_V7M3_PIPE] |434|  ; [ORIG 16-BIT INS]
    2257 00000028 000CE89D          LDMIA     SP, {A3,A4}           ; [DPU_V7M3_PIPE] |434|  ; [KEEP 32-BIT INS]
    2258 0000002c 2100              MOVS      A2, #0                ; [DPU_V7M3_PIPE] |434|  ; [ORIG 16-BIT INS]
    2259 0000002e 0000              LSLS      A1, A1, #0            ; [DPU_V7M3_PIPE] |434|  ; [ORIG 16-BIT INS]
    2260 00000030 4301              ORRS      A2, A2, A1            ; [DPU_V7M3_PIPE] |434|  ; [ORIG 16-BIT INS]
    2261 00000032 481C              LDR       A1, $C$CON6           ; [DPU_V7M3_PIPE] |434|  ; [ORIG 16-BIT INS]
    2262 00000034 2400              MOVS      V1, #0                ; [DPU_V7M3_PIPE] |434|  ; [ORIG 16-BIT INS]
    2263 00000036 33FFF04F          MOV       A4, #-1               ; [DPU_V7M3_PIPE] |434|  ; [KEEP 32-BIT INS]
    2264 0000003a 4322              ORRS      A3, A3, V1            ; [DPU_V7M3_PIPE] |434|  ; [ORIG 16-BIT INS]
    2265 0000003c 4013              ANDS      A4, A4, A3            ; [DPU_V7M3_PIPE] |434|  ; [ORIG 16-BIT INS]
    2266 0000003e 4008              ANDS      A1, A1, A2            ; [DPU_V7M3_PIPE] |434|  ; [ORIG 16-BIT INS]
    2267 00000040 D100              BNE       ||$C$L52||            ; [DPU_V7M3_PIPE] |434|  ; [ORIG 16-BIT INS]
    2268                            ; BRANCHCC OCCURS {||$C$L52||}   ; [] |434| 
    2269                    ;* --------------------------------------------------------------------------*
    2270 00000042 2B00              CMP       A4, #0                ; [DPU_V7M3_PIPE] |434|  ; [ORIG 16-BIT INS]
    2271                    ;* --------------------------------------------------------------------------*
    2272 00000044           ||$C$L52||:    
    2273 00000044 D101              BNE       ||$C$L53||            ; [DPU_V7M3_PIPE] |434|  ; [ORIG 16-BIT INS]
    2274                            ; BRANCHCC OCCURS {||$C$L53||}   ; [] |434| 
    2275                    ;* --------------------------------------------------------------------------*
    2276                            .dwpsn  file "/home/merdak/Apps/ti/ccs1020/ccs/tools/compiler/ti-cgt-arm_20.2.4.LTS/include/_d
    2277                    ;----------------------------------------------------------------------
    2278                    ; 435 | return __FP_INFINITE;                                                  
    2279                    ;----------------------------------------------------------------------
    2280 00000046 2001              MOVS      A1, #1                ; [DPU_V7M3_PIPE] |435|  ; [ORIG 16-BIT INS]
    2281 00000048 E02B              B         ||$C$L59||            ; [DPU_V7M3_PIPE] |435|  ; [ORIG 16-BIT INS]
    2282                            ; BRANCH OCCURS {||$C$L59||}     ; [] |435| 
    2283                    ;* --------------------------------------------------------------------------*
    2284 0000004a           ||$C$L53||:    
    2285                            .dwpsn  file "/home/merdak/Apps/ti/ccs1020/ccs/tools/compiler/ti-cgt-arm_20.2.4.LTS/include/_d
    2286                    ;----------------------------------------------------------------------
    2287                    ; 436 | else return __FP_NAN;                                                  
    2288                    ;----------------------------------------------------------------------
    2289 0000004a 2002              MOVS      A1, #2                ; [DPU_V7M3_PIPE] |436|  ; [ORIG 16-BIT INS]
    2290 0000004c E029              B         ||$C$L59||            ; [DPU_V7M3_PIPE] |436|  ; [ORIG 16-BIT INS]
    2291                            ; BRANCH OCCURS {||$C$L59||}     ; [] |436| 
    2292                    ;* --------------------------------------------------------------------------*
    2293 0000004e           ||$C$L54||:    
    2294                            .dwpsn  file "/home/merdak/Apps/ti/ccs1020/ccs/tools/compiler/ti-cgt-arm_20.2.4.LTS/include/_d
    2295                    ;----------------------------------------------------------------------
    2296                    ; 438 | if (__LDOUBLE_BIASED_EXP_IS_ZERO(e))                                   
    2297                    ;----------------------------------------------------------------------
    2298 0000004e 0006E89D          LDMIA     SP, {A2,A3}           ; [DPU_V7M3_PIPE] |438|  ; [KEEP 32-BIT INS]
    2299 00000052 4610              MOV       A1, A3                ; [DPU_V7M3_PIPE] |438|  ; [ORIG 16-BIT INS]
    2300 00000054 0001              LSLS      A2, A1, #0            ; [DPU_V7M3_PIPE] |438|  ; [ORIG 16-BIT INS]
    2301 00000056 2000              MOVS      A1, #0                ; [DPU_V7M3_PIPE] |438|  ; [ORIG 16-BIT INS]
    2302 00000058 2200              MOVS      A3, #0                ; [DPU_V7M3_PIPE] |438|  ; [ORIG 16-BIT INS]
    2303 0000005a 4308              ORRS      A1, A1, A2            ; [DPU_V7M3_PIPE] |438|  ; [ORIG 16-BIT INS]
    2304 0000005c 0D03              LSRS      A4, A1, #20           ; [DPU_V7M3_PIPE] |438|  ; [ORIG 16-BIT INS]
    2305 0000005e 70FFF240          MOV       A1, #2047             ; [DPU_V7M3_PIPE] |438|  ; [KEEP 32-BIT INS]
    2306 00000062 4601              MOV       A2, A1                ; [DPU_V7M3_PIPE] |438|  ; [ORIG 16-BIT INS]
    2307 00000064 17C0              ASRS      A1, A1, #31           ; [DPU_V7M3_PIPE] |438|  ; [ORIG 16-BIT INS]
    2308 00000066 4019              ANDS      A2, A2, A4            ; [DPU_V7M3_PIPE] |438|  ; [ORIG 16-BIT INS]
    2309 00000068 4010              ANDS      A1, A1, A3            ; [DPU_V7M3_PIPE] |438|  ; [ORIG 16-BIT INS]
    2310 0000006a D100              BNE       ||$C$L55||            ; [DPU_V7M3_PIPE] |438|  ; [ORIG 16-BIT INS]
TI ARM Assembler Unix v20.2.4 Fri Apr  2 01:01:44 2021

Copyright (c) 1996-2018 Texas Instruments Incorporated
MadgwickAHRS.asm                                                     PAGE   43

    2311                            ; BRANCHCC OCCURS {||$C$L55||}   ; [] |438| 
    2312                    ;* --------------------------------------------------------------------------*
    2313 0000006c 2900              CMP       A2, #0                ; [DPU_V7M3_PIPE] |438|  ; [ORIG 16-BIT INS]
    2314                    ;* --------------------------------------------------------------------------*
    2315 0000006e           ||$C$L55||:    
    2316 0000006e D116              BNE       ||$C$L58||            ; [DPU_V7M3_PIPE] |438|  ; [ORIG 16-BIT INS]
    2317                            ; BRANCHCC OCCURS {||$C$L58||}   ; [] |438| 
    2318                    ;* --------------------------------------------------------------------------*
    2319                            .dwpsn  file "/home/merdak/Apps/ti/ccs1020/ccs/tools/compiler/ti-cgt-arm_20.2.4.LTS/include/_d
    2320                    ;----------------------------------------------------------------------
    2321                    ; 440 | if (__LDOUBLE_FRAC_PART_IS_ZERO(e))                                    
    2322                    ;----------------------------------------------------------------------
    2323 00000070 0006E89D          LDMIA     SP, {A2,A3}           ; [DPU_V7M3_PIPE] |440|  ; [KEEP 32-BIT INS]
    2324 00000074 4610              MOV       A1, A3                ; [DPU_V7M3_PIPE] |440|  ; [ORIG 16-BIT INS]
    2325 00000076 000CE89D          LDMIA     SP, {A3,A4}           ; [DPU_V7M3_PIPE] |440|  ; [KEEP 32-BIT INS]
    2326 0000007a 2100              MOVS      A2, #0                ; [DPU_V7M3_PIPE] |440|  ; [ORIG 16-BIT INS]
    2327 0000007c 0000              LSLS      A1, A1, #0            ; [DPU_V7M3_PIPE] |440|  ; [ORIG 16-BIT INS]
    2328 0000007e 4301              ORRS      A2, A2, A1            ; [DPU_V7M3_PIPE] |440|  ; [ORIG 16-BIT INS]
    2329 00000080 4808              LDR       A1, $C$CON6           ; [DPU_V7M3_PIPE] |440|  ; [ORIG 16-BIT INS]
    2330 00000082 2400              MOVS      V1, #0                ; [DPU_V7M3_PIPE] |440|  ; [ORIG 16-BIT INS]
    2331 00000084 33FFF04F          MOV       A4, #-1               ; [DPU_V7M3_PIPE] |440|  ; [KEEP 32-BIT INS]
    2332 00000088 4322              ORRS      A3, A3, V1            ; [DPU_V7M3_PIPE] |440|  ; [ORIG 16-BIT INS]
    2333 0000008a 4013              ANDS      A4, A4, A3            ; [DPU_V7M3_PIPE] |440|  ; [ORIG 16-BIT INS]
    2334 0000008c 4008              ANDS      A1, A1, A2            ; [DPU_V7M3_PIPE] |440|  ; [ORIG 16-BIT INS]
    2335 0000008e D100              BNE       ||$C$L56||            ; [DPU_V7M3_PIPE] |440|  ; [ORIG 16-BIT INS]
    2336                            ; BRANCHCC OCCURS {||$C$L56||}   ; [] |440| 
    2337                    ;* --------------------------------------------------------------------------*
    2338 00000090 2B00              CMP       A4, #0                ; [DPU_V7M3_PIPE] |440|  ; [ORIG 16-BIT INS]
    2339                    ;* --------------------------------------------------------------------------*
    2340 00000092           ||$C$L56||:    
    2341 00000092 D101              BNE       ||$C$L57||            ; [DPU_V7M3_PIPE] |440|  ; [ORIG 16-BIT INS]
    2342                            ; BRANCHCC OCCURS {||$C$L57||}   ; [] |440| 
    2343                    ;* --------------------------------------------------------------------------*
    2344                            .dwpsn  file "/home/merdak/Apps/ti/ccs1020/ccs/tools/compiler/ti-cgt-arm_20.2.4.LTS/include/_d
    2345                    ;----------------------------------------------------------------------
    2346                    ; 441 | return __FP_ZERO;                                                      
    2347                    ;----------------------------------------------------------------------
    2348 00000094 2000              MOVS      A1, #0                ; [DPU_V7M3_PIPE] |441|  ; [ORIG 16-BIT INS]
    2349 00000096 E004              B         ||$C$L59||            ; [DPU_V7M3_PIPE] |441|  ; [ORIG 16-BIT INS]
    2350                            ; BRANCH OCCURS {||$C$L59||}     ; [] |441| 
    2351                    ;* --------------------------------------------------------------------------*
    2352 00000098           ||$C$L57||:    
    2353                            .dwpsn  file "/home/merdak/Apps/ti/ccs1020/ccs/tools/compiler/ti-cgt-arm_20.2.4.LTS/include/_d
    2354                    ;----------------------------------------------------------------------
    2355                    ; 442 | else return __FP_SUBNORMAL;                                            
    2356                    ;----------------------------------------------------------------------
    2357 00000098 0001F06F          MVN       A1, #1                ; [DPU_V7M3_PIPE] |442|  ; [KEEP 32-BIT INS]
    2358 0000009c E001              B         ||$C$L59||            ; [DPU_V7M3_PIPE] |442|  ; [ORIG 16-BIT INS]
    2359                            ; BRANCH OCCURS {||$C$L59||}     ; [] |442| 
    2360                    ;* --------------------------------------------------------------------------*
    2361 0000009e           ||$C$L58||:    
    2362                            .dwpsn  file "/home/merdak/Apps/ti/ccs1020/ccs/tools/compiler/ti-cgt-arm_20.2.4.LTS/include/_d
    2363                    ;----------------------------------------------------------------------
    2364                    ; 444 | return __FP_NORMAL;                                                    
    2365                    ;----------------------------------------------------------------------
TI ARM Assembler Unix v20.2.4 Fri Apr  2 01:01:44 2021

Copyright (c) 1996-2018 Texas Instruments Incorporated
MadgwickAHRS.asm                                                     PAGE   44

    2366 0000009e 30FFF04F          MOV       A1, #-1               ; [DPU_V7M3_PIPE] |444|  ; [KEEP 32-BIT INS]
    2367                    ;* --------------------------------------------------------------------------*
    2368 000000a2           ||$C$L59||:    
    2369                            .dwpsn  file "/home/merdak/Apps/ti/ccs1020/ccs/tools/compiler/ti-cgt-arm_20.2.4.LTS/include/_d
    2370                    $C$DW$83        .dwtag  DW_TAG_TI_branch
    2371                            .dwattr $C$DW$83, DW_AT_low_pc(0x00)
    2372                            .dwattr $C$DW$83, DW_AT_TI_return
    2373                    
    2374 000000a2 BD1C              POP       {A3, A4, V1, PC}      ; [DPU_V7M3_PIPE]  ; [ORIG 16-BIT INS]
    2375                            .dwcfi  cfa_offset, 0
    2376                            .dwcfi  restore_reg, 4
    2377                            .dwcfi  restore_reg, 3
    2378                            .dwcfi  restore_reg, 2
    2379                            ; BRANCH OCCURS                  ; [] 
    2380                            .dwattr $C$DW$80, DW_AT_TI_end_file("/home/merdak/Apps/ti/ccs1020/ccs/tools/compiler/ti-cgt-ar
    2381                            .dwattr $C$DW$80, DW_AT_TI_end_line(0x1bd)
    2382                            .dwattr $C$DW$80, DW_AT_TI_end_column(0x01)
    2383                            .dwendentry
    2384                            .dwendtag $C$DW$80
    2385                    
    2386 00000000                   .sect   ".text:MadgwickAHRSupdate"
    2387                            .clink
    2388                            .thumbfunc MadgwickAHRSupdate
    2389 00000000                   .thumb
    2390                            .global MadgwickAHRSupdate
    2391                    
    2392                    $C$DW$84        .dwtag  DW_TAG_subprogram
    2393                            .dwattr $C$DW$84, DW_AT_name("MadgwickAHRSupdate")
    2394                            .dwattr $C$DW$84, DW_AT_low_pc(MadgwickAHRSupdate)
    2395                            .dwattr $C$DW$84, DW_AT_high_pc(0x00)
    2396                            .dwattr $C$DW$84, DW_AT_TI_symbol_name("MadgwickAHRSupdate")
    2397                            .dwattr $C$DW$84, DW_AT_external
    2398                            .dwattr $C$DW$84, DW_AT_TI_begin_file("../App/MadgwickAHRS.c")
    2399                            .dwattr $C$DW$84, DW_AT_TI_begin_line(0x30)
    2400                            .dwattr $C$DW$84, DW_AT_TI_begin_column(0x06)
    2401                            .dwattr $C$DW$84, DW_AT_decl_file("../App/MadgwickAHRS.c")
    2402                            .dwattr $C$DW$84, DW_AT_decl_line(0x30)
    2403                            .dwattr $C$DW$84, DW_AT_decl_column(0x06)
    2404                            .dwattr $C$DW$84, DW_AT_TI_max_frame_size(0xb8)
    2405                            .dwpsn  file "../App/MadgwickAHRS.c",line 48,column 115,is_stmt,address MadgwickAHRSupdate,isa
    2406                    
    2407                            .dwfde $C$DW$CIE, MadgwickAHRSupdate
    2408                    $C$DW$85        .dwtag  DW_TAG_formal_parameter
    2409                            .dwattr $C$DW$85, DW_AT_name("gx")
    2410                            .dwattr $C$DW$85, DW_AT_TI_symbol_name("gx")
    2411                            .dwattr $C$DW$85, DW_AT_type(*$C$DW$T$16)
    2412                            .dwattr $C$DW$85, DW_AT_location[DW_OP_reg0]
    2413                    
    2414                    $C$DW$86        .dwtag  DW_TAG_formal_parameter
    2415                            .dwattr $C$DW$86, DW_AT_name("gy")
    2416                            .dwattr $C$DW$86, DW_AT_TI_symbol_name("gy")
    2417                            .dwattr $C$DW$86, DW_AT_type(*$C$DW$T$16)
    2418                            .dwattr $C$DW$86, DW_AT_location[DW_OP_reg1]
    2419                    
    2420                    $C$DW$87        .dwtag  DW_TAG_formal_parameter
TI ARM Assembler Unix v20.2.4 Fri Apr  2 01:01:44 2021

Copyright (c) 1996-2018 Texas Instruments Incorporated
MadgwickAHRS.asm                                                     PAGE   45

    2421                            .dwattr $C$DW$87, DW_AT_name("gz")
    2422                            .dwattr $C$DW$87, DW_AT_TI_symbol_name("gz")
    2423                            .dwattr $C$DW$87, DW_AT_type(*$C$DW$T$16)
    2424                            .dwattr $C$DW$87, DW_AT_location[DW_OP_reg2]
    2425                    
    2426                    $C$DW$88        .dwtag  DW_TAG_formal_parameter
    2427                            .dwattr $C$DW$88, DW_AT_name("ax")
    2428                            .dwattr $C$DW$88, DW_AT_TI_symbol_name("ax")
    2429                            .dwattr $C$DW$88, DW_AT_type(*$C$DW$T$16)
    2430                            .dwattr $C$DW$88, DW_AT_location[DW_OP_reg3]
    2431                    
    2432                    $C$DW$89        .dwtag  DW_TAG_formal_parameter
    2433                            .dwattr $C$DW$89, DW_AT_name("ay")
    2434                            .dwattr $C$DW$89, DW_AT_TI_symbol_name("ay")
    2435                            .dwattr $C$DW$89, DW_AT_type(*$C$DW$T$16)
    2436                            .dwattr $C$DW$89, DW_AT_location[DW_OP_breg13 184]
    2437                    
    2438                    $C$DW$90        .dwtag  DW_TAG_formal_parameter
    2439                            .dwattr $C$DW$90, DW_AT_name("az")
    2440                            .dwattr $C$DW$90, DW_AT_TI_symbol_name("az")
    2441                            .dwattr $C$DW$90, DW_AT_type(*$C$DW$T$16)
    2442                            .dwattr $C$DW$90, DW_AT_location[DW_OP_breg13 188]
    2443                    
    2444                    $C$DW$91        .dwtag  DW_TAG_formal_parameter
    2445                            .dwattr $C$DW$91, DW_AT_name("mx")
    2446                            .dwattr $C$DW$91, DW_AT_TI_symbol_name("mx")
    2447                            .dwattr $C$DW$91, DW_AT_type(*$C$DW$T$16)
    2448                            .dwattr $C$DW$91, DW_AT_location[DW_OP_breg13 192]
    2449                    
    2450                    $C$DW$92        .dwtag  DW_TAG_formal_parameter
    2451                            .dwattr $C$DW$92, DW_AT_name("my")
    2452                            .dwattr $C$DW$92, DW_AT_TI_symbol_name("my")
    2453                            .dwattr $C$DW$92, DW_AT_type(*$C$DW$T$16)
    2454                            .dwattr $C$DW$92, DW_AT_location[DW_OP_breg13 196]
    2455                    
    2456                    $C$DW$93        .dwtag  DW_TAG_formal_parameter
    2457                            .dwattr $C$DW$93, DW_AT_name("mz")
    2458                            .dwattr $C$DW$93, DW_AT_TI_symbol_name("mz")
    2459                            .dwattr $C$DW$93, DW_AT_type(*$C$DW$T$16)
    2460                            .dwattr $C$DW$93, DW_AT_location[DW_OP_breg13 200]
    2461                    
    2462                    
    2463                    ;*****************************************************************************
    2464                    ;* FUNCTION NAME: MadgwickAHRSupdate                                         *
    2465                    ;*                                                                           *
    2466                    ;*   Regs Modified     : A1,A2,A3,A4,V1,V2,V3,V9,SP,LR,SR                    *
    2467                    ;*   Regs Used         : A1,A2,A3,A4,V1,V2,V3,V9,SP,LR,SR                    *
    2468                    ;*   Local Frame Size  : 8 Args + 156 Auto + 16 Save = 180 byte              *
    2469                    ;*****************************************************************************
    2470 00000000           MadgwickAHRSupdate:
    2471                    ;* --------------------------------------------------------------------------*
    2472                            .dwcfi  cfa_offset, 0
    2473 00000000 B570              PUSH      {V1, V2, V3, LR}      ; [DPU_V7M3_PIPE]  ; [ORIG 16-BIT INS]
    2474                            .dwcfi  cfa_offset, 16
    2475                            .dwcfi  save_reg_to_mem, 14, -4
TI ARM Assembler Unix v20.2.4 Fri Apr  2 01:01:44 2021

Copyright (c) 1996-2018 Texas Instruments Incorporated
MadgwickAHRS.asm                                                     PAGE   46

    2476                            .dwcfi  save_reg_to_mem, 6, -8
    2477                            .dwcfi  save_reg_to_mem, 5, -12
    2478                            .dwcfi  save_reg_to_mem, 4, -16
    2479 00000002 0DA8F1AD          SUB       SP, SP, #168          ; [DPU_V7M3_PIPE]  ; [KEEP 32-BIT INS]
    2480                            .dwcfi  cfa_offset, 184
    2481                    $C$DW$94        .dwtag  DW_TAG_variable
    2482                            .dwattr $C$DW$94, DW_AT_name("gx")
    2483                            .dwattr $C$DW$94, DW_AT_TI_symbol_name("gx")
    2484                            .dwattr $C$DW$94, DW_AT_type(*$C$DW$T$16)
    2485                            .dwattr $C$DW$94, DW_AT_location[DW_OP_breg13 8]
    2486                    
    2487                    $C$DW$95        .dwtag  DW_TAG_variable
    2488                            .dwattr $C$DW$95, DW_AT_name("gy")
    2489                            .dwattr $C$DW$95, DW_AT_TI_symbol_name("gy")
    2490                            .dwattr $C$DW$95, DW_AT_type(*$C$DW$T$16)
    2491                            .dwattr $C$DW$95, DW_AT_location[DW_OP_breg13 12]
    2492                    
    2493                    $C$DW$96        .dwtag  DW_TAG_variable
    2494                            .dwattr $C$DW$96, DW_AT_name("gz")
    2495                            .dwattr $C$DW$96, DW_AT_TI_symbol_name("gz")
    2496                            .dwattr $C$DW$96, DW_AT_type(*$C$DW$T$16)
    2497                            .dwattr $C$DW$96, DW_AT_location[DW_OP_breg13 16]
    2498                    
    2499                    $C$DW$97        .dwtag  DW_TAG_variable
    2500                            .dwattr $C$DW$97, DW_AT_name("ax")
    2501                            .dwattr $C$DW$97, DW_AT_TI_symbol_name("ax")
    2502                            .dwattr $C$DW$97, DW_AT_type(*$C$DW$T$16)
    2503                            .dwattr $C$DW$97, DW_AT_location[DW_OP_breg13 20]
    2504                    
    2505                    $C$DW$98        .dwtag  DW_TAG_variable
    2506                            .dwattr $C$DW$98, DW_AT_name("recipNorm")
    2507                            .dwattr $C$DW$98, DW_AT_TI_symbol_name("recipNorm")
    2508                            .dwattr $C$DW$98, DW_AT_type(*$C$DW$T$16)
    2509                            .dwattr $C$DW$98, DW_AT_location[DW_OP_breg13 24]
    2510                    
    2511                    $C$DW$99        .dwtag  DW_TAG_variable
    2512                            .dwattr $C$DW$99, DW_AT_name("s0")
    2513                            .dwattr $C$DW$99, DW_AT_TI_symbol_name("s0")
    2514                            .dwattr $C$DW$99, DW_AT_type(*$C$DW$T$16)
    2515                            .dwattr $C$DW$99, DW_AT_location[DW_OP_breg13 28]
    2516                    
    2517                    $C$DW$100       .dwtag  DW_TAG_variable
    2518                            .dwattr $C$DW$100, DW_AT_name("s1")
    2519                            .dwattr $C$DW$100, DW_AT_TI_symbol_name("s1")
    2520                            .dwattr $C$DW$100, DW_AT_type(*$C$DW$T$16)
    2521                            .dwattr $C$DW$100, DW_AT_location[DW_OP_breg13 32]
    2522                    
    2523                    $C$DW$101       .dwtag  DW_TAG_variable
    2524                            .dwattr $C$DW$101, DW_AT_name("s2")
    2525                            .dwattr $C$DW$101, DW_AT_TI_symbol_name("s2")
    2526                            .dwattr $C$DW$101, DW_AT_type(*$C$DW$T$16)
    2527                            .dwattr $C$DW$101, DW_AT_location[DW_OP_breg13 36]
    2528                    
    2529                    $C$DW$102       .dwtag  DW_TAG_variable
    2530                            .dwattr $C$DW$102, DW_AT_name("s3")
TI ARM Assembler Unix v20.2.4 Fri Apr  2 01:01:44 2021

Copyright (c) 1996-2018 Texas Instruments Incorporated
MadgwickAHRS.asm                                                     PAGE   47

    2531                            .dwattr $C$DW$102, DW_AT_TI_symbol_name("s3")
    2532                            .dwattr $C$DW$102, DW_AT_type(*$C$DW$T$16)
    2533                            .dwattr $C$DW$102, DW_AT_location[DW_OP_breg13 40]
    2534                    
    2535                    $C$DW$103       .dwtag  DW_TAG_variable
    2536                            .dwattr $C$DW$103, DW_AT_name("qDot1")
    2537                            .dwattr $C$DW$103, DW_AT_TI_symbol_name("qDot1")
    2538                            .dwattr $C$DW$103, DW_AT_type(*$C$DW$T$16)
    2539                            .dwattr $C$DW$103, DW_AT_location[DW_OP_breg13 44]
    2540                    
    2541                    $C$DW$104       .dwtag  DW_TAG_variable
    2542                            .dwattr $C$DW$104, DW_AT_name("qDot2")
    2543                            .dwattr $C$DW$104, DW_AT_TI_symbol_name("qDot2")
    2544                            .dwattr $C$DW$104, DW_AT_type(*$C$DW$T$16)
    2545                            .dwattr $C$DW$104, DW_AT_location[DW_OP_breg13 48]
    2546                    
    2547                    $C$DW$105       .dwtag  DW_TAG_variable
    2548                            .dwattr $C$DW$105, DW_AT_name("qDot3")
    2549                            .dwattr $C$DW$105, DW_AT_TI_symbol_name("qDot3")
    2550                            .dwattr $C$DW$105, DW_AT_type(*$C$DW$T$16)
    2551                            .dwattr $C$DW$105, DW_AT_location[DW_OP_breg13 52]
    2552                    
    2553                    $C$DW$106       .dwtag  DW_TAG_variable
    2554                            .dwattr $C$DW$106, DW_AT_name("qDot4")
    2555                            .dwattr $C$DW$106, DW_AT_TI_symbol_name("qDot4")
    2556                            .dwattr $C$DW$106, DW_AT_type(*$C$DW$T$16)
    2557                            .dwattr $C$DW$106, DW_AT_location[DW_OP_breg13 56]
    2558                    
    2559                    $C$DW$107       .dwtag  DW_TAG_variable
    2560                            .dwattr $C$DW$107, DW_AT_name("hx")
    2561                            .dwattr $C$DW$107, DW_AT_TI_symbol_name("hx")
    2562                            .dwattr $C$DW$107, DW_AT_type(*$C$DW$T$16)
    2563                            .dwattr $C$DW$107, DW_AT_location[DW_OP_breg13 60]
    2564                    
    2565                    $C$DW$108       .dwtag  DW_TAG_variable
    2566                            .dwattr $C$DW$108, DW_AT_name("hy")
    2567                            .dwattr $C$DW$108, DW_AT_TI_symbol_name("hy")
    2568                            .dwattr $C$DW$108, DW_AT_type(*$C$DW$T$16)
    2569                            .dwattr $C$DW$108, DW_AT_location[DW_OP_breg13 64]
    2570                    
    2571                    $C$DW$109       .dwtag  DW_TAG_variable
    2572                            .dwattr $C$DW$109, DW_AT_name("_2q0mx")
    2573                            .dwattr $C$DW$109, DW_AT_TI_symbol_name("_2q0mx")
    2574                            .dwattr $C$DW$109, DW_AT_type(*$C$DW$T$16)
    2575                            .dwattr $C$DW$109, DW_AT_location[DW_OP_breg13 68]
    2576                    
    2577                    $C$DW$110       .dwtag  DW_TAG_variable
    2578                            .dwattr $C$DW$110, DW_AT_name("_2q0my")
    2579                            .dwattr $C$DW$110, DW_AT_TI_symbol_name("_2q0my")
    2580                            .dwattr $C$DW$110, DW_AT_type(*$C$DW$T$16)
    2581                            .dwattr $C$DW$110, DW_AT_location[DW_OP_breg13 72]
    2582                    
    2583                    $C$DW$111       .dwtag  DW_TAG_variable
    2584                            .dwattr $C$DW$111, DW_AT_name("_2q0mz")
    2585                            .dwattr $C$DW$111, DW_AT_TI_symbol_name("_2q0mz")
TI ARM Assembler Unix v20.2.4 Fri Apr  2 01:01:44 2021

Copyright (c) 1996-2018 Texas Instruments Incorporated
MadgwickAHRS.asm                                                     PAGE   48

    2586                            .dwattr $C$DW$111, DW_AT_type(*$C$DW$T$16)
    2587                            .dwattr $C$DW$111, DW_AT_location[DW_OP_breg13 76]
    2588                    
    2589                    $C$DW$112       .dwtag  DW_TAG_variable
    2590                            .dwattr $C$DW$112, DW_AT_name("_2q1mx")
    2591                            .dwattr $C$DW$112, DW_AT_TI_symbol_name("_2q1mx")
    2592                            .dwattr $C$DW$112, DW_AT_type(*$C$DW$T$16)
    2593                            .dwattr $C$DW$112, DW_AT_location[DW_OP_breg13 80]
    2594                    
    2595                    $C$DW$113       .dwtag  DW_TAG_variable
    2596                            .dwattr $C$DW$113, DW_AT_name("_2bx")
    2597                            .dwattr $C$DW$113, DW_AT_TI_symbol_name("_2bx")
    2598                            .dwattr $C$DW$113, DW_AT_type(*$C$DW$T$16)
    2599                            .dwattr $C$DW$113, DW_AT_location[DW_OP_breg13 84]
    2600                    
    2601                    $C$DW$114       .dwtag  DW_TAG_variable
    2602                            .dwattr $C$DW$114, DW_AT_name("_2bz")
    2603                            .dwattr $C$DW$114, DW_AT_TI_symbol_name("_2bz")
    2604                            .dwattr $C$DW$114, DW_AT_type(*$C$DW$T$16)
    2605                            .dwattr $C$DW$114, DW_AT_location[DW_OP_breg13 88]
    2606                    
    2607                    $C$DW$115       .dwtag  DW_TAG_variable
    2608                            .dwattr $C$DW$115, DW_AT_name("_4bx")
    2609                            .dwattr $C$DW$115, DW_AT_TI_symbol_name("_4bx")
    2610                            .dwattr $C$DW$115, DW_AT_type(*$C$DW$T$16)
    2611                            .dwattr $C$DW$115, DW_AT_location[DW_OP_breg13 92]
    2612                    
    2613                    $C$DW$116       .dwtag  DW_TAG_variable
    2614                            .dwattr $C$DW$116, DW_AT_name("_4bz")
    2615                            .dwattr $C$DW$116, DW_AT_TI_symbol_name("_4bz")
    2616                            .dwattr $C$DW$116, DW_AT_type(*$C$DW$T$16)
    2617                            .dwattr $C$DW$116, DW_AT_location[DW_OP_breg13 96]
    2618                    
    2619                    $C$DW$117       .dwtag  DW_TAG_variable
    2620                            .dwattr $C$DW$117, DW_AT_name("_2q0")
    2621                            .dwattr $C$DW$117, DW_AT_TI_symbol_name("_2q0")
    2622                            .dwattr $C$DW$117, DW_AT_type(*$C$DW$T$16)
    2623                            .dwattr $C$DW$117, DW_AT_location[DW_OP_breg13 100]
    2624                    
    2625                    $C$DW$118       .dwtag  DW_TAG_variable
    2626                            .dwattr $C$DW$118, DW_AT_name("_2q1")
    2627                            .dwattr $C$DW$118, DW_AT_TI_symbol_name("_2q1")
    2628                            .dwattr $C$DW$118, DW_AT_type(*$C$DW$T$16)
    2629                            .dwattr $C$DW$118, DW_AT_location[DW_OP_breg13 104]
    2630                    
    2631                    $C$DW$119       .dwtag  DW_TAG_variable
    2632                            .dwattr $C$DW$119, DW_AT_name("_2q2")
    2633                            .dwattr $C$DW$119, DW_AT_TI_symbol_name("_2q2")
    2634                            .dwattr $C$DW$119, DW_AT_type(*$C$DW$T$16)
    2635                            .dwattr $C$DW$119, DW_AT_location[DW_OP_breg13 108]
    2636                    
    2637                    $C$DW$120       .dwtag  DW_TAG_variable
    2638                            .dwattr $C$DW$120, DW_AT_name("_2q3")
    2639                            .dwattr $C$DW$120, DW_AT_TI_symbol_name("_2q3")
    2640                            .dwattr $C$DW$120, DW_AT_type(*$C$DW$T$16)
TI ARM Assembler Unix v20.2.4 Fri Apr  2 01:01:44 2021

Copyright (c) 1996-2018 Texas Instruments Incorporated
MadgwickAHRS.asm                                                     PAGE   49

    2641                            .dwattr $C$DW$120, DW_AT_location[DW_OP_breg13 112]
    2642                    
    2643                    $C$DW$121       .dwtag  DW_TAG_variable
    2644                            .dwattr $C$DW$121, DW_AT_name("_2q0q2")
    2645                            .dwattr $C$DW$121, DW_AT_TI_symbol_name("_2q0q2")
    2646                            .dwattr $C$DW$121, DW_AT_type(*$C$DW$T$16)
    2647                            .dwattr $C$DW$121, DW_AT_location[DW_OP_breg13 116]
    2648                    
    2649                    $C$DW$122       .dwtag  DW_TAG_variable
    2650                            .dwattr $C$DW$122, DW_AT_name("_2q2q3")
    2651                            .dwattr $C$DW$122, DW_AT_TI_symbol_name("_2q2q3")
    2652                            .dwattr $C$DW$122, DW_AT_type(*$C$DW$T$16)
    2653                            .dwattr $C$DW$122, DW_AT_location[DW_OP_breg13 120]
    2654                    
    2655                    $C$DW$123       .dwtag  DW_TAG_variable
    2656                            .dwattr $C$DW$123, DW_AT_name("q0q0")
    2657                            .dwattr $C$DW$123, DW_AT_TI_symbol_name("q0q0")
    2658                            .dwattr $C$DW$123, DW_AT_type(*$C$DW$T$16)
    2659                            .dwattr $C$DW$123, DW_AT_location[DW_OP_breg13 124]
    2660                    
    2661                    $C$DW$124       .dwtag  DW_TAG_variable
    2662                            .dwattr $C$DW$124, DW_AT_name("q0q1")
    2663                            .dwattr $C$DW$124, DW_AT_TI_symbol_name("q0q1")
    2664                            .dwattr $C$DW$124, DW_AT_type(*$C$DW$T$16)
    2665                            .dwattr $C$DW$124, DW_AT_location[DW_OP_breg13 128]
    2666                    
    2667                    $C$DW$125       .dwtag  DW_TAG_variable
    2668                            .dwattr $C$DW$125, DW_AT_name("q0q2")
    2669                            .dwattr $C$DW$125, DW_AT_TI_symbol_name("q0q2")
    2670                            .dwattr $C$DW$125, DW_AT_type(*$C$DW$T$16)
    2671                            .dwattr $C$DW$125, DW_AT_location[DW_OP_breg13 132]
    2672                    
    2673                    $C$DW$126       .dwtag  DW_TAG_variable
    2674                            .dwattr $C$DW$126, DW_AT_name("q0q3")
    2675                            .dwattr $C$DW$126, DW_AT_TI_symbol_name("q0q3")
    2676                            .dwattr $C$DW$126, DW_AT_type(*$C$DW$T$16)
    2677                            .dwattr $C$DW$126, DW_AT_location[DW_OP_breg13 136]
    2678                    
    2679                    $C$DW$127       .dwtag  DW_TAG_variable
    2680                            .dwattr $C$DW$127, DW_AT_name("q1q1")
    2681                            .dwattr $C$DW$127, DW_AT_TI_symbol_name("q1q1")
    2682                            .dwattr $C$DW$127, DW_AT_type(*$C$DW$T$16)
    2683                            .dwattr $C$DW$127, DW_AT_location[DW_OP_breg13 140]
    2684                    
    2685                    $C$DW$128       .dwtag  DW_TAG_variable
    2686                            .dwattr $C$DW$128, DW_AT_name("q1q2")
    2687                            .dwattr $C$DW$128, DW_AT_TI_symbol_name("q1q2")
    2688                            .dwattr $C$DW$128, DW_AT_type(*$C$DW$T$16)
    2689                            .dwattr $C$DW$128, DW_AT_location[DW_OP_breg13 144]
    2690                    
    2691                    $C$DW$129       .dwtag  DW_TAG_variable
    2692                            .dwattr $C$DW$129, DW_AT_name("q1q3")
    2693                            .dwattr $C$DW$129, DW_AT_TI_symbol_name("q1q3")
    2694                            .dwattr $C$DW$129, DW_AT_type(*$C$DW$T$16)
    2695                            .dwattr $C$DW$129, DW_AT_location[DW_OP_breg13 148]
TI ARM Assembler Unix v20.2.4 Fri Apr  2 01:01:44 2021

Copyright (c) 1996-2018 Texas Instruments Incorporated
MadgwickAHRS.asm                                                     PAGE   50

    2696                    
    2697                    $C$DW$130       .dwtag  DW_TAG_variable
    2698                            .dwattr $C$DW$130, DW_AT_name("q2q2")
    2699                            .dwattr $C$DW$130, DW_AT_TI_symbol_name("q2q2")
    2700                            .dwattr $C$DW$130, DW_AT_type(*$C$DW$T$16)
    2701                            .dwattr $C$DW$130, DW_AT_location[DW_OP_breg13 152]
    2702                    
    2703                    $C$DW$131       .dwtag  DW_TAG_variable
    2704                            .dwattr $C$DW$131, DW_AT_name("q2q3")
    2705                            .dwattr $C$DW$131, DW_AT_TI_symbol_name("q2q3")
    2706                            .dwattr $C$DW$131, DW_AT_type(*$C$DW$T$16)
    2707                            .dwattr $C$DW$131, DW_AT_location[DW_OP_breg13 156]
    2708                    
    2709                    $C$DW$132       .dwtag  DW_TAG_variable
    2710                            .dwattr $C$DW$132, DW_AT_name("q3q3")
    2711                            .dwattr $C$DW$132, DW_AT_TI_symbol_name("q3q3")
    2712                            .dwattr $C$DW$132, DW_AT_type(*$C$DW$T$16)
    2713                            .dwattr $C$DW$132, DW_AT_location[DW_OP_breg13 160]
    2714                    
    2715                    ;----------------------------------------------------------------------
    2716                    ;  48 | void MadgwickAHRSupdate(float gx, float gy, float gz, float ax, float a
    2717                    ;     | y, float az, float mx, float my, float mz) {                           
    2718                    ;  49 | float recipNorm;                                                       
    2719                    ;  50 | float s0, s1, s2, s3;                                                  
    2720                    ;  51 | float qDot1, qDot2, qDot3, qDot4;                                      
    2721                    ;  52 | float hx, hy;                                                          
    2722                    ;  53 | float _2q0mx, _2q0my, _2q0mz, _2q1mx, _2bx, _2bz, _4bx, _4bz, _2q0, _2q
    2723                    ;     | 1, _2q2, _2q3, _2q0q2, _2q2q3, q0q0, q0q1, q0q2, q0q3, q1q1, q1q2, q1q3
    2724                    ;     | , q2q2, q2q3, q3q3;                                                    
    2725                    ;  55 | // Use IMU algorithm if magnetometer measurement invalid (avoids NaN in
    2726                    ;     |  magnetometer normalisation)                                           
    2727                    ;----------------------------------------------------------------------
    2728 00000006 9305              STR       A4, [SP, #20]         ; [DPU_V7M3_PIPE] |48|  ; [ORIG 16-BIT INS]
    2729 00000008 9204              STR       A3, [SP, #16]         ; [DPU_V7M3_PIPE] |48|  ; [ORIG 16-BIT INS]
    2730 0000000a 9103              STR       A2, [SP, #12]         ; [DPU_V7M3_PIPE] |48|  ; [ORIG 16-BIT INS]
    2731 0000000c 9002              STR       A1, [SP, #8]          ; [DPU_V7M3_PIPE] |48|  ; [ORIG 16-BIT INS]
    2732                            .dwpsn  file "../App/MadgwickAHRS.c",line 56,column 2,is_stmt,isa 1
    2733                    ;----------------------------------------------------------------------
    2734                    ;  56 | if((mx == 0.0f) && (my == 0.0f) && (mz == 0.0f)) {                     
    2735                    ;----------------------------------------------------------------------
    2736 0000000e 4953              LDR       A2, $C$FL1            ; [DPU_V7M3_PIPE] |56|  ; [ORIG 16-BIT INS]
    2737 00000010 9830              LDR       A1, [SP, #192]        ; [DPU_V7M3_PIPE] |56|  ; [ORIG 16-BIT INS]
    2738                    $C$DW$133       .dwtag  DW_TAG_TI_branch
    2739                            .dwattr $C$DW$133, DW_AT_low_pc(0x00)
    2740                            .dwattr $C$DW$133, DW_AT_name("__aeabi_cfcmpeq")
    2741                            .dwattr $C$DW$133, DW_AT_TI_call
    2742                    
    2743 00000012 FFFEF7FF!         BL        __aeabi_cfcmpeq       ; [DPU_V7M3_PIPE] |56|  ; [KEEP 32-BIT INS]
    2744                            ; CALL OCCURS {__aeabi_cfcmpeq }  ; [] |56| 
    2745 00000016 D115              BNE       ||$C$L60||            ; [DPU_V7M3_PIPE] |56|  ; [ORIG 16-BIT INS]
    2746                            ; BRANCHCC OCCURS {||$C$L60||}   ; [] |56| 
    2747                    ;* --------------------------------------------------------------------------*
    2748 00000018 9831              LDR       A1, [SP, #196]        ; [DPU_V7M3_PIPE] |56|  ; [ORIG 16-BIT INS]
    2749 0000001a 4950              LDR       A2, $C$FL1            ; [DPU_V7M3_PIPE] |56|  ; [ORIG 16-BIT INS]
    2750                    $C$DW$134       .dwtag  DW_TAG_TI_branch
TI ARM Assembler Unix v20.2.4 Fri Apr  2 01:01:44 2021

Copyright (c) 1996-2018 Texas Instruments Incorporated
MadgwickAHRS.asm                                                     PAGE   51

    2751                            .dwattr $C$DW$134, DW_AT_low_pc(0x00)
    2752                            .dwattr $C$DW$134, DW_AT_name("__aeabi_cfcmpeq")
    2753                            .dwattr $C$DW$134, DW_AT_TI_call
    2754                    
    2755 0000001c FFFEF7FF!         BL        __aeabi_cfcmpeq       ; [DPU_V7M3_PIPE] |56|  ; [KEEP 32-BIT INS]
    2756                            ; CALL OCCURS {__aeabi_cfcmpeq }  ; [] |56| 
    2757 00000020 D110              BNE       ||$C$L60||            ; [DPU_V7M3_PIPE] |56|  ; [ORIG 16-BIT INS]
    2758                            ; BRANCHCC OCCURS {||$C$L60||}   ; [] |56| 
    2759                    ;* --------------------------------------------------------------------------*
    2760 00000022 9832              LDR       A1, [SP, #200]        ; [DPU_V7M3_PIPE] |56|  ; [ORIG 16-BIT INS]
    2761 00000024 494D              LDR       A2, $C$FL1            ; [DPU_V7M3_PIPE] |56|  ; [ORIG 16-BIT INS]
    2762                    $C$DW$135       .dwtag  DW_TAG_TI_branch
    2763                            .dwattr $C$DW$135, DW_AT_low_pc(0x00)
    2764                            .dwattr $C$DW$135, DW_AT_name("__aeabi_cfcmpeq")
    2765                            .dwattr $C$DW$135, DW_AT_TI_call
    2766                    
    2767 00000026 FFFEF7FF!         BL        __aeabi_cfcmpeq       ; [DPU_V7M3_PIPE] |56|  ; [KEEP 32-BIT INS]
    2768                            ; CALL OCCURS {__aeabi_cfcmpeq }  ; [] |56| 
    2769 0000002a D10B              BNE       ||$C$L60||            ; [DPU_V7M3_PIPE] |56|  ; [ORIG 16-BIT INS]
    2770                            ; BRANCHCC OCCURS {||$C$L60||}   ; [] |56| 
    2771                    ;* --------------------------------------------------------------------------*
    2772                            .dwpsn  file "../App/MadgwickAHRS.c",line 57,column 3,is_stmt,isa 1
    2773                    ;----------------------------------------------------------------------
    2774                    ;  57 | MadgwickAHRSupdateIMU(gx, gy, gz, ax, ay, az);                         
    2775                    ;----------------------------------------------------------------------
    2776 0000002c 982E              LDR       A1, [SP, #184]        ; [DPU_V7M3_PIPE] |57|  ; [ORIG 16-BIT INS]
    2777 0000002e 9000              STR       A1, [SP, #0]          ; [DPU_V7M3_PIPE] |57|  ; [ORIG 16-BIT INS]
    2778 00000030 982F              LDR       A1, [SP, #188]        ; [DPU_V7M3_PIPE] |57|  ; [ORIG 16-BIT INS]
    2779 00000032 9001              STR       A1, [SP, #4]          ; [DPU_V7M3_PIPE] |57|  ; [ORIG 16-BIT INS]
    2780 00000034 9903              LDR       A2, [SP, #12]         ; [DPU_V7M3_PIPE] |57|  ; [ORIG 16-BIT INS]
    2781 00000036 9A04              LDR       A3, [SP, #16]         ; [DPU_V7M3_PIPE] |57|  ; [ORIG 16-BIT INS]
    2782 00000038 9B05              LDR       A4, [SP, #20]         ; [DPU_V7M3_PIPE] |57|  ; [ORIG 16-BIT INS]
    2783 0000003a 9802              LDR       A1, [SP, #8]          ; [DPU_V7M3_PIPE] |57|  ; [ORIG 16-BIT INS]
    2784                    $C$DW$136       .dwtag  DW_TAG_TI_branch
    2785                            .dwattr $C$DW$136, DW_AT_low_pc(0x00)
    2786                            .dwattr $C$DW$136, DW_AT_name("MadgwickAHRSupdateIMU")
    2787                            .dwattr $C$DW$136, DW_AT_TI_call
    2788                    
    2789 0000003c FFFEF7FF!         BL        MadgwickAHRSupdateIMU ; [DPU_V7M3_PIPE] |57|  ; [KEEP 32-BIT INS]
    2790                            ; CALL OCCURS {MadgwickAHRSupdateIMU }  ; [] |57| 
    2791                            .dwpsn  file "../App/MadgwickAHRS.c",line 58,column 3,is_stmt,isa 1
    2792                    ;----------------------------------------------------------------------
    2793                    ;  58 | return;                                                                
    2794                    ;  61 | // Rate of change of quaternion from gyroscope                         
    2795                    ;----------------------------------------------------------------------
    2796 00000040 BFFEF7FF!         B         ||$C$L74||            ; [DPU_V7M3_PIPE] |58|  ; [KEEP 32-BIT INS]
    2797                            ; BRANCH OCCURS {||$C$L74||}     ; [] |58| 
    2798                    ;* --------------------------------------------------------------------------*
    2799 00000044           ||$C$L60||:    
    2800                            .dwpsn  file "../App/MadgwickAHRS.c",line 62,column 2,is_stmt,isa 1
    2801                    ;----------------------------------------------------------------------
    2802                    ;  62 | qDot1 = 0.5f * (-q1 * gx - q2 * gy - q3 * gz);                         
    2803                    ;----------------------------------------------------------------------
    2804 00000044 48BE              LDR       A1, $C$CON7           ; [DPU_V7M3_PIPE] |62|  ; [ORIG 16-BIT INS]
    2805 00000046 9902              LDR       A2, [SP, #8]          ; [DPU_V7M3_PIPE] |62|  ; [ORIG 16-BIT INS]
TI ARM Assembler Unix v20.2.4 Fri Apr  2 01:01:44 2021

Copyright (c) 1996-2018 Texas Instruments Incorporated
MadgwickAHRS.asm                                                     PAGE   52

    2806 00000048 6800              LDR       A1, [A1, #0]          ; [DPU_V7M3_PIPE] |62|  ; [ORIG 16-BIT INS]
    2807 0000004a 4000F080          EOR       A1, A1, #-2147483648  ; [DPU_V7M3_PIPE] |62|  ; [KEEP 32-BIT INS]
    2808                    $C$DW$137       .dwtag  DW_TAG_TI_branch
    2809                            .dwattr $C$DW$137, DW_AT_low_pc(0x00)
    2810                            .dwattr $C$DW$137, DW_AT_name("__aeabi_fmul")
    2811                            .dwattr $C$DW$137, DW_AT_TI_call
    2812                    
    2813 0000004e FFFEF7FF!         BL        __aeabi_fmul          ; [DPU_V7M3_PIPE] |62|  ; [KEEP 32-BIT INS]
    2814                            ; CALL OCCURS {__aeabi_fmul }    ; [] |62| 
    2815 00000052 4604              MOV       V1, A1                ; [DPU_V7M3_PIPE] |62|  ; [ORIG 16-BIT INS]
    2816 00000054 48BB              LDR       A1, $C$CON8           ; [DPU_V7M3_PIPE] |62|  ; [ORIG 16-BIT INS]
    2817 00000056 9903              LDR       A2, [SP, #12]         ; [DPU_V7M3_PIPE] |62|  ; [ORIG 16-BIT INS]
    2818 00000058 6800              LDR       A1, [A1, #0]          ; [DPU_V7M3_PIPE] |62|  ; [ORIG 16-BIT INS]
    2819                    $C$DW$138       .dwtag  DW_TAG_TI_branch
    2820                            .dwattr $C$DW$138, DW_AT_low_pc(0x00)
    2821                            .dwattr $C$DW$138, DW_AT_name("__aeabi_fmul")
